
MULTICAN_SELF_RUNTHRU.elf:     file format elf32-littlearm

Sections:
Idx Name          Size      VMA       LMA       File off  Algn
  0 .text         00008908  08000000  0c000000  00008000  2**2
                  CONTENTS, ALLOC, LOAD, READONLY, CODE
  1 Stack         00000800  1ffe8000  1ffe8000  00020000  2**0
                  ALLOC
  2 .data         000001b0  1ffe8800  0c008908  00018800  2**3
                  CONTENTS, ALLOC, LOAD, DATA
  3 .bss          000003b0  1ffe89b0  0c008ab8  000189b0  2**2
                  ALLOC
  4 .no_init      00000014  2003ffc0  2003ffc0  0001ffc0  2**2
                  ALLOC
  5 .debug_aranges 00000920  00000000  00000000  000189b0  2**3
                  CONTENTS, READONLY, DEBUGGING
  6 .debug_info   0000ffb6  00000000  00000000  000192d0  2**0
                  CONTENTS, READONLY, DEBUGGING
  7 .debug_abbrev 0000226f  00000000  00000000  00029286  2**0
                  CONTENTS, READONLY, DEBUGGING
  8 .debug_line   00005697  00000000  00000000  0002b4f5  2**0
                  CONTENTS, READONLY, DEBUGGING
  9 .debug_frame  00002c90  00000000  00000000  00030b8c  2**2
                  CONTENTS, READONLY, DEBUGGING
 10 .debug_str    00006a41  00000000  00000000  0003381c  2**0
                  CONTENTS, READONLY, DEBUGGING
 11 .debug_loc    00004986  00000000  00000000  0003a25d  2**0
                  CONTENTS, READONLY, DEBUGGING
 12 .debug_ranges 000007a8  00000000  00000000  0003ebe3  2**0
                  CONTENTS, READONLY, DEBUGGING
 13 .build_attributes 00000921  00000000  00000000  0003f38b  2**0
                  CONTENTS, READONLY

Disassembly of section .text:

08000000 <__Vectors>:
 8000000:	00 88 fe 1f 01 02 00 08 99 02 00 08 99 02 00 08     ................
 8000010:	99 02 00 08 99 02 00 08 99 02 00 08 00 00 00 00     ................
	...
 800002c:	99 02 00 08 99 02 00 08 00 00 00 00 99 02 00 08     ................
 800003c:	99 02 00 08 99 02 00 08 99 02 00 08 99 02 00 08     ................
 800004c:	99 02 00 08 99 02 00 08 99 02 00 08 99 02 00 08     ................
 800005c:	99 02 00 08 99 02 00 08 00 00 00 00 00 00 00 00     ................
 800006c:	00 00 00 00 99 02 00 08 00 00 00 00 99 02 00 08     ................
 800007c:	99 02 00 08 99 02 00 08 99 02 00 08 99 02 00 08     ................
 800008c:	99 02 00 08 99 02 00 08 99 02 00 08 99 02 00 08     ................
 800009c:	99 02 00 08 99 02 00 08 99 02 00 08 99 02 00 08     ................
 80000ac:	99 02 00 08 99 02 00 08 99 02 00 08 99 02 00 08     ................
 80000bc:	99 02 00 08 99 02 00 08 99 02 00 08 99 02 00 08     ................
 80000cc:	99 02 00 08 99 02 00 08 99 02 00 08 99 02 00 08     ................
 80000dc:	99 02 00 08 99 02 00 08 99 02 00 08 99 02 00 08     ................
 80000ec:	99 02 00 08 99 02 00 08 99 02 00 08 99 02 00 08     ................
 80000fc:	99 02 00 08 99 02 00 08 99 02 00 08 99 02 00 08     ................
 800010c:	99 02 00 08 99 02 00 08 99 02 00 08 99 02 00 08     ................
 800011c:	99 02 00 08 99 02 00 08 99 02 00 08 99 02 00 08     ................
 800012c:	99 02 00 08 99 02 00 08 99 02 00 08 99 02 00 08     ................
 800013c:	99 02 00 08 99 02 00 08 99 02 00 08 99 02 00 08     ................
 800014c:	99 02 00 08 99 02 00 08 99 02 00 08 99 02 00 08     ................
 800015c:	99 02 00 08 00 00 00 00 00 00 00 00 00 00 00 00     ................
 800016c:	00 00 00 00 89 76 00 08 99 02 00 08 99 02 00 08     .....v..........
 800017c:	99 02 00 08 99 02 00 08 99 02 00 08 99 02 00 08     ................
 800018c:	99 02 00 08 99 02 00 08 99 02 00 08 99 02 00 08     ................
 800019c:	99 02 00 08 99 02 00 08 99 02 00 08 99 02 00 08     ................
 80001ac:	99 02 00 08 99 02 00 08 99 02 00 08 99 02 00 08     ................
 80001bc:	99 02 00 08 99 02 00 08 99 02 00 08 99 02 00 08     ................
 80001cc:	99 02 00 08 99 02 00 08 99 02 00 08 99 02 00 08     ................
 80001dc:	00 00 00 00 99 02 00 08 99 02 00 08 99 02 00 08     ................
 80001ec:	99 02 00 08 99 02 00 08 99 02 00 08 99 02 00 08     ................
 80001fc:	00 00 00 00                                         ....

08000200 <Reset_Handler>:
/* Reset Handler */
    .thumb_func
    .globl  Reset_Handler
    .type   Reset_Handler, %function
Reset_Handler:
    ldr sp,=__initial_sp
 8000200:	f8df d074 	ldr.w	sp, [pc, #116]	; 8000278 <__zero_table_end__>

#ifndef __SKIP_SYSTEM_INIT
    ldr  r0, =SystemInit
 8000204:	481d      	ldr	r0, [pc, #116]	; (800027c <__zero_table_end__+0x4>)
    blx  r0
 8000206:	4780      	blx	r0
 *    offset 4: VMA of start of a section to copy to
 *    offset 8: size of the section to copy. Must be multiply of 4
 *
 *  All addresses must be aligned to 4 bytes boundary.
 */
	ldr	r4, =__copy_table_start__
 8000208:	4c1d      	ldr	r4, [pc, #116]	; (8000280 <__zero_table_end__+0x8>)
	ldr	r5, =__copy_table_end__
 800020a:	4d1e      	ldr	r5, [pc, #120]	; (8000284 <__zero_table_end__+0xc>)

.L_loop0:
	cmp	r4, r5
 800020c:	42ac      	cmp	r4, r5
	bge	.L_loop0_done
 800020e:	da09      	bge.n	8000224 <Reset_Handler+0x24>
	ldr	r1, [r4]
 8000210:	6821      	ldr	r1, [r4, #0]
	ldr	r2, [r4, #4]
 8000212:	6862      	ldr	r2, [r4, #4]
	ldr	r3, [r4, #8]
 8000214:	68a3      	ldr	r3, [r4, #8]

.L_loop0_0:
	subs	r3, #4
 8000216:	3b04      	subs	r3, #4
	ittt	ge
 8000218:	bfa2      	ittt	ge
	ldrge	r0, [r1, r3]
 800021a:	58c8      	ldrge	r0, [r1, r3]
	strge	r0, [r2, r3]
 800021c:	50d0      	strge	r0, [r2, r3]
	bge	.L_loop0_0
 800021e:	e7fa      	bge.n	8000216 <Reset_Handler+0x16>

	adds	r4, #12
 8000220:	340c      	adds	r4, #12
	b	.L_loop0
 8000222:	e7f3      	b.n	800020c <Reset_Handler+0xc>
 *    offset 4: Size of this BSS section. Must be multiply of 4
 *
 *  Define __SKIP_BSS_CLEAR to disable zeroing uninitialzed data in startup.
 */    
#ifndef __SKIP_BSS_CLEAR
	ldr	r3, =__zero_table_start__
 8000224:	4b18      	ldr	r3, [pc, #96]	; (8000288 <__zero_table_end__+0x10>)
	ldr	r4, =__zero_table_end__
 8000226:	4c19      	ldr	r4, [pc, #100]	; (800028c <__zero_table_end__+0x14>)

.L_loop2:
	cmp	r3, r4
 8000228:	42a3      	cmp	r3, r4
	bge	.L_loop2_done
 800022a:	da08      	bge.n	800023e <Reset_Handler+0x3e>
	ldr	r1, [r3]
 800022c:	6819      	ldr	r1, [r3, #0]
	ldr	r2, [r3, #4]
 800022e:	685a      	ldr	r2, [r3, #4]
	movs	r0, 0
 8000230:	2000      	movs	r0, #0

.L_loop2_0:
	subs	r2, #4
 8000232:	3a04      	subs	r2, #4
	itt	ge
 8000234:	bfa4      	itt	ge
	strge	r0, [r1, r2]
 8000236:	5088      	strge	r0, [r1, r2]
	bge	.L_loop2_0
 8000238:	e7fb      	bge.n	8000232 <Reset_Handler+0x32>

	adds	r3, #8
 800023a:	3308      	adds	r3, #8
	b	.L_loop2
 800023c:	e7f4      	b.n	8000228 <Reset_Handler+0x28>
.L_loop2_done:    
#endif /* __SKIP_BSS_CLEAR */
   
#ifndef __SKIP_LIBC_INIT_ARRAY
    ldr  r0, =__libc_init_array
 800023e:	4814      	ldr	r0, [pc, #80]	; (8000290 <__zero_table_end__+0x18>)
    blx  r0
 8000240:	4780      	blx	r0
#endif

    ldr  r0, =main
 8000242:	4814      	ldr	r0, [pc, #80]	; (8000294 <__zero_table_end__+0x1c>)
    blx  r0
 8000244:	4780      	blx	r0
	...

08000248 <__copy_table_start__>:
 8000248:	0c008908 	.word	0x0c008908
 800024c:	1ffe8800 	.word	0x1ffe8800
 8000250:	000001b0 	.word	0x000001b0
 8000254:	0c008908 	.word	0x0c008908
 8000258:	1ffe8800 	.word	0x1ffe8800
 800025c:	00000000 	.word	0x00000000

08000260 <__copy_table_end__>:
 8000260:	1ffe89b0 	.word	0x1ffe89b0
 8000264:	000003b0 	.word	0x000003b0
 8000268:	20000000 	.word	0x20000000
 800026c:	00000000 	.word	0x00000000
 8000270:	20000000 	.word	0x20000000
 8000274:	00000000 	.word	0x00000000

08000278 <__zero_table_end__>:
/* Reset Handler */
    .thumb_func
    .globl  Reset_Handler
    .type   Reset_Handler, %function
Reset_Handler:
    ldr sp,=__initial_sp
 8000278:	1ffe8800 	.word	0x1ffe8800

#ifndef __SKIP_SYSTEM_INIT
    ldr  r0, =SystemInit
 800027c:	0800029d 	.word	0x0800029d
 *    offset 4: VMA of start of a section to copy to
 *    offset 8: size of the section to copy. Must be multiply of 4
 *
 *  All addresses must be aligned to 4 bytes boundary.
 */
	ldr	r4, =__copy_table_start__
 8000280:	08000248 	.word	0x08000248
	ldr	r5, =__copy_table_end__
 8000284:	08000260 	.word	0x08000260
 *    offset 4: Size of this BSS section. Must be multiply of 4
 *
 *  Define __SKIP_BSS_CLEAR to disable zeroing uninitialzed data in startup.
 */    
#ifndef __SKIP_BSS_CLEAR
	ldr	r3, =__zero_table_start__
 8000288:	08000260 	.word	0x08000260
	ldr	r4, =__zero_table_end__
 800028c:	08000278 	.word	0x08000278
	b	.L_loop2
.L_loop2_done:    
#endif /* __SKIP_BSS_CLEAR */
   
#ifndef __SKIP_LIBC_INIT_ARRAY
    ldr  r0, =__libc_init_array
 8000290:	08007701 	.word	0x08007701
    blx  r0
#endif

    ldr  r0, =main
 8000294:	08007649 	.word	0x08007649

08000298 <BusFault_Handler>:
	.align	1
    .thumb_func
    .weak Default_Handler
    .type Default_Handler, %function
Default_Handler:
    b .
 8000298:	e7fe      	b.n	8000298 <BusFault_Handler>
	...

0800029c <SystemInit>:
/*******************************************************************************
 * API IMPLEMENTATION
 *******************************************************************************/

__WEAK void SystemInit(void)
{
 800029c:	b598      	push	{r3, r4, r7, lr}
 800029e:	af00      	add	r7, sp, #0
  memcpy(g_chipid, CHIPID_LOC, 16);
 80002a0:	4a05      	ldr	r2, [pc, #20]	; (80002b8 <SystemInit+0x1c>)
 80002a2:	f04f 5300 	mov.w	r3, #536870912	; 0x20000000
 80002a6:	4614      	mov	r4, r2
 80002a8:	cb0f      	ldmia	r3, {r0, r1, r2, r3}
 80002aa:	e884 000f 	stmia.w	r4, {r0, r1, r2, r3}

  SystemCoreSetup();
 80002ae:	f006 fee5 	bl	800707c <SystemCoreSetup>
  SystemCoreClockSetup();
 80002b2:	f006 ff61 	bl	8007178 <SystemCoreClockSetup>
}
 80002b6:	bd98      	pop	{r3, r4, r7, pc}
 80002b8:	2003ffc4 	.word	0x2003ffc4

080002bc <SystemCoreClockUpdate>:

  SystemCoreClockUpdate();
}

__WEAK void SystemCoreClockUpdate(void)
{
 80002bc:	b580      	push	{r7, lr}
 80002be:	b084      	sub	sp, #16
 80002c0:	af00      	add	r7, sp, #0
  uint32_t pdiv;
  uint32_t ndiv;
  uint32_t kdiv;
  uint32_t temp;

  if (SCU_CLK->SYSCLKCR & SCU_CLK_SYSCLKCR_SYSSEL_Msk)
 80002c2:	4b2f      	ldr	r3, [pc, #188]	; (8000380 <SystemCoreClockUpdate+0xc4>)
 80002c4:	68db      	ldr	r3, [r3, #12]
 80002c6:	f403 3380 	and.w	r3, r3, #65536	; 0x10000
 80002ca:	2b00      	cmp	r3, #0
 80002cc:	d03e      	beq.n	800034c <SystemCoreClockUpdate+0x90>
  {
    /* fPLL is clock source for fSYS */
    if(SCU_PLL->PLLCON2 & SCU_PLL_PLLCON2_PINSEL_Msk)
 80002ce:	4b2d      	ldr	r3, [pc, #180]	; (8000384 <SystemCoreClockUpdate+0xc8>)
 80002d0:	68db      	ldr	r3, [r3, #12]
 80002d2:	f003 0301 	and.w	r3, r3, #1
 80002d6:	2b00      	cmp	r3, #0
 80002d8:	d002      	beq.n	80002e0 <SystemCoreClockUpdate+0x24>
    {
      /* PLL input clock is the backup clock (fOFI) */
      temp = OFI_FREQUENCY;
 80002da:	4b2b      	ldr	r3, [pc, #172]	; (8000388 <SystemCoreClockUpdate+0xcc>)
 80002dc:	60fb      	str	r3, [r7, #12]
 80002de:	e002      	b.n	80002e6 <SystemCoreClockUpdate+0x2a>
    }
    else
    {
      /* PLL input clock is the high performance osicllator (fOSCHP) */
      temp = OSCHP_GetFrequency();
 80002e0:	f006 ff2c 	bl	800713c <OSCHP_GetFrequency>
 80002e4:	60f8      	str	r0, [r7, #12]
    }

    /* check if PLL is locked */
    if (SCU_PLL->PLLSTAT & SCU_PLL_PLLSTAT_VCOLOCK_Msk)
 80002e6:	4b27      	ldr	r3, [pc, #156]	; (8000384 <SystemCoreClockUpdate+0xc8>)
 80002e8:	681b      	ldr	r3, [r3, #0]
 80002ea:	f003 0304 	and.w	r3, r3, #4
 80002ee:	2b00      	cmp	r3, #0
 80002f0:	d020      	beq.n	8000334 <SystemCoreClockUpdate+0x78>
    {
      /* PLL normal mode */
      /* read back divider settings */
      pdiv = ((SCU_PLL->PLLCON1 & SCU_PLL_PLLCON1_PDIV_Msk) >> SCU_PLL_PLLCON1_PDIV_Pos) + 1;
 80002f2:	4b24      	ldr	r3, [pc, #144]	; (8000384 <SystemCoreClockUpdate+0xc8>)
 80002f4:	689b      	ldr	r3, [r3, #8]
 80002f6:	f003 6370 	and.w	r3, r3, #251658240	; 0xf000000
 80002fa:	0e1b      	lsrs	r3, r3, #24
 80002fc:	3301      	adds	r3, #1
 80002fe:	60bb      	str	r3, [r7, #8]
      ndiv = ((SCU_PLL->PLLCON1 & SCU_PLL_PLLCON1_NDIV_Msk) >> SCU_PLL_PLLCON1_NDIV_Pos) + 1;
 8000300:	4b20      	ldr	r3, [pc, #128]	; (8000384 <SystemCoreClockUpdate+0xc8>)
 8000302:	689b      	ldr	r3, [r3, #8]
 8000304:	f403 43fe 	and.w	r3, r3, #32512	; 0x7f00
 8000308:	0a1b      	lsrs	r3, r3, #8
 800030a:	3301      	adds	r3, #1
 800030c:	607b      	str	r3, [r7, #4]
      kdiv = ((SCU_PLL->PLLCON1 & SCU_PLL_PLLCON1_K2DIV_Msk) >> SCU_PLL_PLLCON1_K2DIV_Pos) + 1;
 800030e:	4b1d      	ldr	r3, [pc, #116]	; (8000384 <SystemCoreClockUpdate+0xc8>)
 8000310:	689b      	ldr	r3, [r3, #8]
 8000312:	f403 03fe 	and.w	r3, r3, #8323072	; 0x7f0000
 8000316:	0c1b      	lsrs	r3, r3, #16
 8000318:	3301      	adds	r3, #1
 800031a:	603b      	str	r3, [r7, #0]

      temp = (temp / (pdiv * kdiv)) * ndiv;
 800031c:	68bb      	ldr	r3, [r7, #8]
 800031e:	683a      	ldr	r2, [r7, #0]
 8000320:	fb02 f303 	mul.w	r3, r2, r3
 8000324:	68fa      	ldr	r2, [r7, #12]
 8000326:	fbb2 f3f3 	udiv	r3, r2, r3
 800032a:	687a      	ldr	r2, [r7, #4]
 800032c:	fb02 f303 	mul.w	r3, r2, r3
 8000330:	60fb      	str	r3, [r7, #12]
 8000332:	e00d      	b.n	8000350 <SystemCoreClockUpdate+0x94>
    }
    else
    {
      /* PLL prescalar mode */
      /* read back divider settings */
      kdiv  = ((SCU_PLL->PLLCON1 & SCU_PLL_PLLCON1_K1DIV_Msk) >> SCU_PLL_PLLCON1_K1DIV_Pos) + 1;
 8000334:	4b13      	ldr	r3, [pc, #76]	; (8000384 <SystemCoreClockUpdate+0xc8>)
 8000336:	689b      	ldr	r3, [r3, #8]
 8000338:	f003 037f 	and.w	r3, r3, #127	; 0x7f
 800033c:	3301      	adds	r3, #1
 800033e:	603b      	str	r3, [r7, #0]

      temp = (temp / kdiv);
 8000340:	68fa      	ldr	r2, [r7, #12]
 8000342:	683b      	ldr	r3, [r7, #0]
 8000344:	fbb2 f3f3 	udiv	r3, r2, r3
 8000348:	60fb      	str	r3, [r7, #12]
 800034a:	e001      	b.n	8000350 <SystemCoreClockUpdate+0x94>
    }
  }
  else
  {
    /* fOFI is clock source for fSYS */
    temp = OFI_FREQUENCY;
 800034c:	4b0e      	ldr	r3, [pc, #56]	; (8000388 <SystemCoreClockUpdate+0xcc>)
 800034e:	60fb      	str	r3, [r7, #12]
  }

  temp = temp / ((SCU_CLK->SYSCLKCR & SCU_CLK_SYSCLKCR_SYSDIV_Msk) + 1);
 8000350:	4b0b      	ldr	r3, [pc, #44]	; (8000380 <SystemCoreClockUpdate+0xc4>)
 8000352:	68db      	ldr	r3, [r3, #12]
 8000354:	b2db      	uxtb	r3, r3
 8000356:	3301      	adds	r3, #1
 8000358:	68fa      	ldr	r2, [r7, #12]
 800035a:	fbb2 f3f3 	udiv	r3, r2, r3
 800035e:	60fb      	str	r3, [r7, #12]
  temp = temp / ((SCU_CLK->CPUCLKCR & SCU_CLK_CPUCLKCR_CPUDIV_Msk) + 1);
 8000360:	4b07      	ldr	r3, [pc, #28]	; (8000380 <SystemCoreClockUpdate+0xc4>)
 8000362:	691b      	ldr	r3, [r3, #16]
 8000364:	f003 0301 	and.w	r3, r3, #1
 8000368:	3301      	adds	r3, #1
 800036a:	68fa      	ldr	r2, [r7, #12]
 800036c:	fbb2 f3f3 	udiv	r3, r2, r3
 8000370:	60fb      	str	r3, [r7, #12]

  SystemCoreClock = temp;
 8000372:	4a06      	ldr	r2, [pc, #24]	; (800038c <SystemCoreClockUpdate+0xd0>)
 8000374:	68fb      	ldr	r3, [r7, #12]
 8000376:	6013      	str	r3, [r2, #0]
}
 8000378:	3710      	adds	r7, #16
 800037a:	46bd      	mov	sp, r7
 800037c:	bd80      	pop	{r7, pc}
 800037e:	bf00      	nop
 8000380:	50004600 	.word	0x50004600
 8000384:	50004710 	.word	0x50004710
 8000388:	016e3600 	.word	0x016e3600
 800038c:	2003ffc0 	.word	0x2003ffc0

08000390 <XMC_CAN_MO_GetStatus>:
 * None
 *
 */

__STATIC_INLINE uint32_t XMC_CAN_MO_GetStatus(const XMC_CAN_MO_t *const can_mo)
{
 8000390:	b480      	push	{r7}
 8000392:	b083      	sub	sp, #12
 8000394:	af00      	add	r7, sp, #0
 8000396:	6078      	str	r0, [r7, #4]
  return ((can_mo->can_mo_ptr->MOSTAT));
 8000398:	687b      	ldr	r3, [r7, #4]
 800039a:	681b      	ldr	r3, [r3, #0]
 800039c:	69db      	ldr	r3, [r3, #28]
}
 800039e:	4618      	mov	r0, r3
 80003a0:	370c      	adds	r7, #12
 80003a2:	46bd      	mov	sp, r7
 80003a4:	f85d 7b04 	ldr.w	r7, [sp], #4
 80003a8:	4770      	bx	lr
 80003aa:	bf00      	nop

080003ac <pack12>:
 * Bit-packing helpers
 * ============================================================ */

/* 12-bit unsigned: lo = val[7:0], hi = {4b0000, val[11:8]} */
static void pack12(uint8_t *lo, uint8_t *hi, uint16_t val)
{
 80003ac:	b480      	push	{r7}
 80003ae:	b085      	sub	sp, #20
 80003b0:	af00      	add	r7, sp, #0
 80003b2:	60f8      	str	r0, [r7, #12]
 80003b4:	60b9      	str	r1, [r7, #8]
 80003b6:	4613      	mov	r3, r2
 80003b8:	80fb      	strh	r3, [r7, #6]
    *lo = (uint8_t)(val & 0xFFU);
 80003ba:	88fb      	ldrh	r3, [r7, #6]
 80003bc:	b2da      	uxtb	r2, r3
 80003be:	68fb      	ldr	r3, [r7, #12]
 80003c0:	701a      	strb	r2, [r3, #0]
    *hi = (uint8_t)((val >> 8U) & 0x0FU);
 80003c2:	88fb      	ldrh	r3, [r7, #6]
 80003c4:	0a1b      	lsrs	r3, r3, #8
 80003c6:	b29b      	uxth	r3, r3
 80003c8:	b2db      	uxtb	r3, r3
 80003ca:	f003 030f 	and.w	r3, r3, #15
 80003ce:	b2da      	uxtb	r2, r3
 80003d0:	68bb      	ldr	r3, [r7, #8]
 80003d2:	701a      	strb	r2, [r3, #0]
}
 80003d4:	3714      	adds	r7, #20
 80003d6:	46bd      	mov	sp, r7
 80003d8:	f85d 7b04 	ldr.w	r7, [sp], #4
 80003dc:	4770      	bx	lr
 80003de:	bf00      	nop

080003e0 <pack16>:
//     return (uint16_t)((uint16_t)(hi & 0x0FU) << 8U) | lo;
// }

/* 16-bit signed little-endian */
static void pack16(uint8_t *lo, uint8_t *hi, uint16_t val)
{
 80003e0:	b480      	push	{r7}
 80003e2:	b085      	sub	sp, #20
 80003e4:	af00      	add	r7, sp, #0
 80003e6:	60f8      	str	r0, [r7, #12]
 80003e8:	60b9      	str	r1, [r7, #8]
 80003ea:	4613      	mov	r3, r2
 80003ec:	80fb      	strh	r3, [r7, #6]
    *lo = (uint8_t)(val & 0xFFU);
 80003ee:	88fb      	ldrh	r3, [r7, #6]
 80003f0:	b2da      	uxtb	r2, r3
 80003f2:	68fb      	ldr	r3, [r7, #12]
 80003f4:	701a      	strb	r2, [r3, #0]
    *hi = (uint8_t)((val >> 8U) & 0xFFU);
 80003f6:	88fb      	ldrh	r3, [r7, #6]
 80003f8:	0a1b      	lsrs	r3, r3, #8
 80003fa:	b29b      	uxth	r3, r3
 80003fc:	b2da      	uxtb	r2, r3
 80003fe:	68bb      	ldr	r3, [r7, #8]
 8000400:	701a      	strb	r2, [r3, #0]
}
 8000402:	3714      	adds	r7, #20
 8000404:	46bd      	mov	sp, r7
 8000406:	f85d 7b04 	ldr.w	r7, [sp], #4
 800040a:	4770      	bx	lr

0800040c <unpack16>:

static uint16_t unpack16(uint8_t lo, uint8_t hi)
{
 800040c:	b480      	push	{r7}
 800040e:	b083      	sub	sp, #12
 8000410:	af00      	add	r7, sp, #0
 8000412:	4603      	mov	r3, r0
 8000414:	460a      	mov	r2, r1
 8000416:	71fb      	strb	r3, [r7, #7]
 8000418:	4613      	mov	r3, r2
 800041a:	71bb      	strb	r3, [r7, #6]
    return (uint16_t)((uint16_t)hi << 8U) | lo;
 800041c:	79bb      	ldrb	r3, [r7, #6]
 800041e:	b29b      	uxth	r3, r3
 8000420:	021b      	lsls	r3, r3, #8
 8000422:	b29a      	uxth	r2, r3
 8000424:	79fb      	ldrb	r3, [r7, #7]
 8000426:	b29b      	uxth	r3, r3
 8000428:	4313      	orrs	r3, r2
 800042a:	b29b      	uxth	r3, r3
}
 800042c:	4618      	mov	r0, r3
 800042e:	370c      	adds	r7, #12
 8000430:	46bd      	mov	sp, r7
 8000432:	f85d 7b04 	ldr.w	r7, [sp], #4
 8000436:	4770      	bx	lr

08000438 <even_parity>:

/* Even parity over bits[7:1]; result placed in bit0 */
static uint8_t even_parity(uint8_t byte)
{
 8000438:	b480      	push	{r7}
 800043a:	b085      	sub	sp, #20
 800043c:	af00      	add	r7, sp, #0
 800043e:	4603      	mov	r3, r0
 8000440:	71fb      	strb	r3, [r7, #7]
    uint8_t p = byte >> 1U;
 8000442:	79fb      	ldrb	r3, [r7, #7]
 8000444:	085b      	lsrs	r3, r3, #1
 8000446:	73fb      	strb	r3, [r7, #15]
    p ^= p >> 4U;
 8000448:	7bfb      	ldrb	r3, [r7, #15]
 800044a:	091b      	lsrs	r3, r3, #4
 800044c:	b2da      	uxtb	r2, r3
 800044e:	7bfb      	ldrb	r3, [r7, #15]
 8000450:	4053      	eors	r3, r2
 8000452:	73fb      	strb	r3, [r7, #15]
    p ^= p >> 2U;
 8000454:	7bfb      	ldrb	r3, [r7, #15]
 8000456:	089b      	lsrs	r3, r3, #2
 8000458:	b2da      	uxtb	r2, r3
 800045a:	7bfb      	ldrb	r3, [r7, #15]
 800045c:	4053      	eors	r3, r2
 800045e:	73fb      	strb	r3, [r7, #15]
    p ^= p >> 1U;
 8000460:	7bfb      	ldrb	r3, [r7, #15]
 8000462:	085b      	lsrs	r3, r3, #1
 8000464:	b2da      	uxtb	r2, r3
 8000466:	7bfb      	ldrb	r3, [r7, #15]
 8000468:	4053      	eors	r3, r2
 800046a:	73fb      	strb	r3, [r7, #15]
    return (byte & 0xFEU) | (p & 0x01U);
 800046c:	79fb      	ldrb	r3, [r7, #7]
 800046e:	f023 0301 	bic.w	r3, r3, #1
 8000472:	b2da      	uxtb	r2, r3
 8000474:	7bfb      	ldrb	r3, [r7, #15]
 8000476:	f003 0301 	and.w	r3, r3, #1
 800047a:	b2db      	uxtb	r3, r3
 800047c:	4313      	orrs	r3, r2
 800047e:	b2db      	uxtb	r3, r3
}
 8000480:	4618      	mov	r0, r3
 8000482:	3714      	adds	r7, #20
 8000484:	46bd      	mov	sp, r7
 8000486:	f85d 7b04 	ldr.w	r7, [sp], #4
 800048a:	4770      	bx	lr

0800048c <write_allowed>:
/* ============================================================
 * Write-protect check
 * bit0=LIM, bit1=OFS, bit2=SCL, bit3=REV (in write_protect.b1)
 * ============================================================ */
static int write_allowed(uint16_t data_id)
{
 800048c:	b480      	push	{r7}
 800048e:	b085      	sub	sp, #20
 8000490:	af00      	add	r7, sp, #0
 8000492:	4603      	mov	r3, r0
 8000494:	80fb      	strh	r3, [r7, #6]
    uint8_t wp = g_regs.write_protect.b1;
 8000496:	4b22      	ldr	r3, [pc, #136]	; (8000520 <write_allowed+0x94>)
 8000498:	f893 32d2 	ldrb.w	r3, [r3, #722]	; 0x2d2
 800049c:	73fb      	strb	r3, [r7, #15]
    if (data_id >= 0x30U && data_id <= 0x4AU) return !(wp & 0x02U); /* OFS */
 800049e:	88fb      	ldrh	r3, [r7, #6]
 80004a0:	2b2f      	cmp	r3, #47	; 0x2f
 80004a2:	d90b      	bls.n	80004bc <write_allowed+0x30>
 80004a4:	88fb      	ldrh	r3, [r7, #6]
 80004a6:	2b4a      	cmp	r3, #74	; 0x4a
 80004a8:	d808      	bhi.n	80004bc <write_allowed+0x30>
 80004aa:	7bfb      	ldrb	r3, [r7, #15]
 80004ac:	f003 0302 	and.w	r3, r3, #2
 80004b0:	2b00      	cmp	r3, #0
 80004b2:	bf0c      	ite	eq
 80004b4:	2301      	moveq	r3, #1
 80004b6:	2300      	movne	r3, #0
 80004b8:	b2db      	uxtb	r3, r3
 80004ba:	e02b      	b.n	8000514 <write_allowed+0x88>
    if (data_id >= 0x50U && data_id <= 0x6AU) return !(wp & 0x04U); /* SCL */
 80004bc:	88fb      	ldrh	r3, [r7, #6]
 80004be:	2b4f      	cmp	r3, #79	; 0x4f
 80004c0:	d90b      	bls.n	80004da <write_allowed+0x4e>
 80004c2:	88fb      	ldrh	r3, [r7, #6]
 80004c4:	2b6a      	cmp	r3, #106	; 0x6a
 80004c6:	d808      	bhi.n	80004da <write_allowed+0x4e>
 80004c8:	7bfb      	ldrb	r3, [r7, #15]
 80004ca:	f003 0304 	and.w	r3, r3, #4
 80004ce:	2b00      	cmp	r3, #0
 80004d0:	bf0c      	ite	eq
 80004d2:	2301      	moveq	r3, #1
 80004d4:	2300      	movne	r3, #0
 80004d6:	b2db      	uxtb	r3, r3
 80004d8:	e01c      	b.n	8000514 <write_allowed+0x88>
    if (data_id >= 0xB0U && data_id <= 0xCFU) return !(wp & 0x01U); /* LIM */
 80004da:	88fb      	ldrh	r3, [r7, #6]
 80004dc:	2baf      	cmp	r3, #175	; 0xaf
 80004de:	d90b      	bls.n	80004f8 <write_allowed+0x6c>
 80004e0:	88fb      	ldrh	r3, [r7, #6]
 80004e2:	2bcf      	cmp	r3, #207	; 0xcf
 80004e4:	d808      	bhi.n	80004f8 <write_allowed+0x6c>
 80004e6:	7bfb      	ldrb	r3, [r7, #15]
 80004e8:	f003 0301 	and.w	r3, r3, #1
 80004ec:	2b00      	cmp	r3, #0
 80004ee:	bf0c      	ite	eq
 80004f0:	2301      	moveq	r3, #1
 80004f2:	2300      	movne	r3, #0
 80004f4:	b2db      	uxtb	r3, r3
 80004f6:	e00d      	b.n	8000514 <write_allowed+0x88>
    if (data_id == 0x1F8U)                    return !(wp & 0x08U); /* REV */
 80004f8:	88fb      	ldrh	r3, [r7, #6]
 80004fa:	f5b3 7ffc 	cmp.w	r3, #504	; 0x1f8
 80004fe:	d108      	bne.n	8000512 <write_allowed+0x86>
 8000500:	7bfb      	ldrb	r3, [r7, #15]
 8000502:	f003 0308 	and.w	r3, r3, #8
 8000506:	2b00      	cmp	r3, #0
 8000508:	bf0c      	ite	eq
 800050a:	2301      	moveq	r3, #1
 800050c:	2300      	movne	r3, #0
 800050e:	b2db      	uxtb	r3, r3
 8000510:	e000      	b.n	8000514 <write_allowed+0x88>
    return 1; /* not protected */
 8000512:	2301      	movs	r3, #1
}
 8000514:	4618      	mov	r0, r3
 8000516:	3714      	adds	r7, #20
 8000518:	46bd      	mov	sp, r7
 800051a:	f85d 7b04 	ldr.w	r7, [sp], #4
 800051e:	4770      	bx	lr
 8000520:	1ffe89b0 	.word	0x1ffe89b0

08000524 <build_response>:
/* ============================================================
 * build_response() — pack g_regs fields into data[0..5]
 * data[6] and data[7] are the echoed packet counter (set by caller)
 * ============================================================ */
static void build_response(uint16_t data_id, uint8_t data[8])
{
 8000524:	b580      	push	{r7, lr}
 8000526:	b08e      	sub	sp, #56	; 0x38
 8000528:	af00      	add	r7, sp, #0
 800052a:	4603      	mov	r3, r0
 800052c:	6039      	str	r1, [r7, #0]
 800052e:	80fb      	strh	r3, [r7, #6]
    PMB_Telemetry_t  *t = &g_regs.telem;
 8000530:	4b02      	ldr	r3, [pc, #8]	; (800053c <build_response+0x18>)
 8000532:	637b      	str	r3, [r7, #52]	; 0x34
    PMB_Registers_t  *r = &g_regs;
 8000534:	4b01      	ldr	r3, [pc, #4]	; (800053c <build_response+0x18>)
 8000536:	633b      	str	r3, [r7, #48]	; 0x30

    switch (data_id) {
 8000538:	88fb      	ldrh	r3, [r7, #6]
 800053a:	e001      	b.n	8000540 <build_response+0x1c>
 800053c:	1ffe89b0 	.word	0x1ffe89b0
 8000540:	f5b3 7ffd 	cmp.w	r3, #506	; 0x1fa
 8000544:	f202 85a7 	bhi.w	8003096 <build_response+0x2b72>
 8000548:	a201      	add	r2, pc, #4	; (adr r2, 8000550 <build_response+0x2c>)
 800054a:	f852 f023 	ldr.w	pc, [r2, r3, lsl #2]
 800054e:	bf00      	nop
 8000550:	08000d3d 	.word	0x08000d3d
 8000554:	08000d7f 	.word	0x08000d7f
 8000558:	08000dc1 	.word	0x08000dc1
 800055c:	08000e03 	.word	0x08000e03
 8000560:	08000e45 	.word	0x08000e45
 8000564:	08000e87 	.word	0x08000e87
 8000568:	08000eb3 	.word	0x08000eb3
 800056c:	08000edf 	.word	0x08000edf
 8000570:	08000f0b 	.word	0x08000f0b
 8000574:	08000f37 	.word	0x08000f37
 8000578:	08000f63 	.word	0x08000f63
 800057c:	08000fa5 	.word	0x08000fa5
 8000580:	08000fe7 	.word	0x08000fe7
 8000584:	08001015 	.word	0x08001015
 8000588:	08001045 	.word	0x08001045
 800058c:	08001075 	.word	0x08001075
 8000590:	080010a5 	.word	0x080010a5
 8000594:	080010d5 	.word	0x080010d5
 8000598:	08001105 	.word	0x08001105
 800059c:	08001135 	.word	0x08001135
 80005a0:	08001165 	.word	0x08001165
 80005a4:	080011ad 	.word	0x080011ad
 80005a8:	080011f5 	.word	0x080011f5
 80005ac:	08001225 	.word	0x08001225
 80005b0:	08001255 	.word	0x08001255
 80005b4:	08001285 	.word	0x08001285
 80005b8:	080012b5 	.word	0x080012b5
 80005bc:	080012e5 	.word	0x080012e5
 80005c0:	08001309 	.word	0x08001309
 80005c4:	0800132d 	.word	0x0800132d
 80005c8:	08001347 	.word	0x08001347
 80005cc:	08001361 	.word	0x08001361
 80005d0:	08001371 	.word	0x08001371
 80005d4:	08001395 	.word	0x08001395
 80005d8:	080013c3 	.word	0x080013c3
 80005dc:	080013d3 	.word	0x080013d3
 80005e0:	08003097 	.word	0x08003097
 80005e4:	08003097 	.word	0x08003097
 80005e8:	08003097 	.word	0x08003097
 80005ec:	08003097 	.word	0x08003097
 80005f0:	08003097 	.word	0x08003097
 80005f4:	08003097 	.word	0x08003097
 80005f8:	08003097 	.word	0x08003097
 80005fc:	08003097 	.word	0x08003097
 8000600:	08003097 	.word	0x08003097
 8000604:	08003097 	.word	0x08003097
 8000608:	08003097 	.word	0x08003097
 800060c:	08003097 	.word	0x08003097
 8000610:	080013f7 	.word	0x080013f7
 8000614:	08001445 	.word	0x08001445
 8000618:	08001493 	.word	0x08001493
 800061c:	080014e1 	.word	0x080014e1
 8000620:	0800152f 	.word	0x0800152f
 8000624:	08001585 	.word	0x08001585
 8000628:	080015b9 	.word	0x080015b9
 800062c:	080015ed 	.word	0x080015ed
 8000630:	08001621 	.word	0x08001621
 8000634:	08001655 	.word	0x08001655
 8000638:	08001689 	.word	0x08001689
 800063c:	080016d7 	.word	0x080016d7
 8000640:	08001725 	.word	0x08001725
 8000644:	08001759 	.word	0x08001759
 8000648:	0800178d 	.word	0x0800178d
 800064c:	080017c1 	.word	0x080017c1
 8000650:	080017f5 	.word	0x080017f5
 8000654:	08001829 	.word	0x08001829
 8000658:	0800185d 	.word	0x0800185d
 800065c:	08001891 	.word	0x08001891
 8000660:	080018c5 	.word	0x080018c5
 8000664:	08001913 	.word	0x08001913
 8000668:	08001961 	.word	0x08001961
 800066c:	08001995 	.word	0x08001995
 8000670:	080019c9 	.word	0x080019c9
 8000674:	080019fd 	.word	0x080019fd
 8000678:	08001a31 	.word	0x08001a31
 800067c:	08003097 	.word	0x08003097
 8000680:	08003097 	.word	0x08003097
 8000684:	08003097 	.word	0x08003097
 8000688:	08003097 	.word	0x08003097
 800068c:	08003097 	.word	0x08003097
 8000690:	08001a65 	.word	0x08001a65
 8000694:	08001ab3 	.word	0x08001ab3
 8000698:	08001b01 	.word	0x08001b01
 800069c:	08001b4f 	.word	0x08001b4f
 80006a0:	08001b9d 	.word	0x08001b9d
 80006a4:	08001beb 	.word	0x08001beb
 80006a8:	08001c1f 	.word	0x08001c1f
 80006ac:	08001c53 	.word	0x08001c53
 80006b0:	08001c87 	.word	0x08001c87
 80006b4:	08001cbb 	.word	0x08001cbb
 80006b8:	08001cef 	.word	0x08001cef
 80006bc:	08001d3d 	.word	0x08001d3d
 80006c0:	08001d8b 	.word	0x08001d8b
 80006c4:	08001dbf 	.word	0x08001dbf
 80006c8:	08001df3 	.word	0x08001df3
 80006cc:	08001e27 	.word	0x08001e27
 80006d0:	08001e5b 	.word	0x08001e5b
 80006d4:	08001e8f 	.word	0x08001e8f
 80006d8:	08001ec3 	.word	0x08001ec3
 80006dc:	08001ef7 	.word	0x08001ef7
 80006e0:	08001f2b 	.word	0x08001f2b
 80006e4:	08001f79 	.word	0x08001f79
 80006e8:	08001fc7 	.word	0x08001fc7
 80006ec:	08001ffb 	.word	0x08001ffb
 80006f0:	0800202f 	.word	0x0800202f
 80006f4:	08002063 	.word	0x08002063
 80006f8:	08002097 	.word	0x08002097
 80006fc:	08003097 	.word	0x08003097
 8000700:	08003097 	.word	0x08003097
 8000704:	08003097 	.word	0x08003097
 8000708:	08003097 	.word	0x08003097
 800070c:	08003097 	.word	0x08003097
 8000710:	080020cb 	.word	0x080020cb
 8000714:	08002119 	.word	0x08002119
 8000718:	08002167 	.word	0x08002167
 800071c:	080021b5 	.word	0x080021b5
 8000720:	08002203 	.word	0x08002203
 8000724:	08002251 	.word	0x08002251
 8000728:	08002285 	.word	0x08002285
 800072c:	080022b9 	.word	0x080022b9
 8000730:	080022ed 	.word	0x080022ed
 8000734:	08002321 	.word	0x08002321
 8000738:	08002355 	.word	0x08002355
 800073c:	080023a3 	.word	0x080023a3
 8000740:	080023f1 	.word	0x080023f1
 8000744:	08002425 	.word	0x08002425
 8000748:	08002459 	.word	0x08002459
 800074c:	0800248d 	.word	0x0800248d
 8000750:	080024c1 	.word	0x080024c1
 8000754:	080024f5 	.word	0x080024f5
 8000758:	08002529 	.word	0x08002529
 800075c:	0800255d 	.word	0x0800255d
 8000760:	08002591 	.word	0x08002591
 8000764:	080025df 	.word	0x080025df
 8000768:	0800262d 	.word	0x0800262d
 800076c:	08002661 	.word	0x08002661
 8000770:	08002695 	.word	0x08002695
 8000774:	080026c9 	.word	0x080026c9
 8000778:	080026fd 	.word	0x080026fd
 800077c:	08003097 	.word	0x08003097
 8000780:	08003097 	.word	0x08003097
 8000784:	08003097 	.word	0x08003097
 8000788:	08003097 	.word	0x08003097
 800078c:	08003097 	.word	0x08003097
 8000790:	08002731 	.word	0x08002731
 8000794:	0800277f 	.word	0x0800277f
 8000798:	08003097 	.word	0x08003097
 800079c:	08003097 	.word	0x08003097
 80007a0:	08003097 	.word	0x08003097
 80007a4:	08003097 	.word	0x08003097
 80007a8:	08003097 	.word	0x08003097
 80007ac:	08003097 	.word	0x08003097
 80007b0:	08003097 	.word	0x08003097
 80007b4:	08003097 	.word	0x08003097
 80007b8:	08003097 	.word	0x08003097
 80007bc:	08003097 	.word	0x08003097
 80007c0:	08003097 	.word	0x08003097
 80007c4:	08003097 	.word	0x08003097
 80007c8:	08003097 	.word	0x08003097
 80007cc:	08003097 	.word	0x08003097
 80007d0:	08002799 	.word	0x08002799
 80007d4:	08003097 	.word	0x08003097
 80007d8:	08003097 	.word	0x08003097
 80007dc:	08003097 	.word	0x08003097
 80007e0:	08003097 	.word	0x08003097
 80007e4:	08003097 	.word	0x08003097
 80007e8:	08003097 	.word	0x08003097
 80007ec:	08003097 	.word	0x08003097
 80007f0:	080027d9 	.word	0x080027d9
 80007f4:	080027e7 	.word	0x080027e7
 80007f8:	0800280d 	.word	0x0800280d
 80007fc:	08003097 	.word	0x08003097
 8000800:	08003097 	.word	0x08003097
 8000804:	08003097 	.word	0x08003097
 8000808:	08003097 	.word	0x08003097
 800080c:	08003097 	.word	0x08003097
 8000810:	0800283f 	.word	0x0800283f
 8000814:	0800288d 	.word	0x0800288d
 8000818:	080028d9 	.word	0x080028d9
 800081c:	08002925 	.word	0x08002925
 8000820:	08002971 	.word	0x08002971
 8000824:	080029bd 	.word	0x080029bd
 8000828:	080029ef 	.word	0x080029ef
 800082c:	08002a21 	.word	0x08002a21
 8000830:	08002a53 	.word	0x08002a53
 8000834:	08002a89 	.word	0x08002a89
 8000838:	08002abb 	.word	0x08002abb
 800083c:	08002b07 	.word	0x08002b07
 8000840:	08002b53 	.word	0x08002b53
 8000844:	08002b85 	.word	0x08002b85
 8000848:	08002bb7 	.word	0x08002bb7
 800084c:	08002be9 	.word	0x08002be9
 8000850:	08002c1b 	.word	0x08002c1b
 8000854:	08002c4d 	.word	0x08002c4d
 8000858:	08002c7f 	.word	0x08002c7f
 800085c:	08002cb1 	.word	0x08002cb1
 8000860:	08002ce3 	.word	0x08002ce3
 8000864:	08002d2f 	.word	0x08002d2f
 8000868:	08002d7b 	.word	0x08002d7b
 800086c:	08002dad 	.word	0x08002dad
 8000870:	08002ddf 	.word	0x08002ddf
 8000874:	08002e11 	.word	0x08002e11
 8000878:	08002e43 	.word	0x08002e43
 800087c:	08002e75 	.word	0x08002e75
 8000880:	08002ec1 	.word	0x08002ec1
 8000884:	08002ef7 	.word	0x08002ef7
 8000888:	08002f43 	.word	0x08002f43
 800088c:	08002f8f 	.word	0x08002f8f
 8000890:	08002fc1 	.word	0x08002fc1
 8000894:	08002fd3 	.word	0x08002fd3
 8000898:	08003097 	.word	0x08003097
 800089c:	08003097 	.word	0x08003097
 80008a0:	08003097 	.word	0x08003097
 80008a4:	08003097 	.word	0x08003097
 80008a8:	08003097 	.word	0x08003097
 80008ac:	08003097 	.word	0x08003097
 80008b0:	08002ff7 	.word	0x08002ff7
 80008b4:	08003009 	.word	0x08003009
 80008b8:	08003097 	.word	0x08003097
 80008bc:	08003097 	.word	0x08003097
 80008c0:	08003097 	.word	0x08003097
 80008c4:	08003097 	.word	0x08003097
 80008c8:	08003097 	.word	0x08003097
 80008cc:	08003097 	.word	0x08003097
 80008d0:	08003097 	.word	0x08003097
 80008d4:	08003097 	.word	0x08003097
 80008d8:	08003097 	.word	0x08003097
 80008dc:	08003097 	.word	0x08003097
 80008e0:	08003097 	.word	0x08003097
 80008e4:	08003097 	.word	0x08003097
 80008e8:	08003097 	.word	0x08003097
 80008ec:	08003097 	.word	0x08003097
 80008f0:	08003097 	.word	0x08003097
 80008f4:	08003097 	.word	0x08003097
 80008f8:	08003097 	.word	0x08003097
 80008fc:	08003097 	.word	0x08003097
 8000900:	08003097 	.word	0x08003097
 8000904:	08003097 	.word	0x08003097
 8000908:	08003097 	.word	0x08003097
 800090c:	08003097 	.word	0x08003097
 8000910:	08003097 	.word	0x08003097
 8000914:	08003097 	.word	0x08003097
 8000918:	08003097 	.word	0x08003097
 800091c:	08003097 	.word	0x08003097
 8000920:	08003097 	.word	0x08003097
 8000924:	08003097 	.word	0x08003097
 8000928:	08003097 	.word	0x08003097
 800092c:	08003097 	.word	0x08003097
 8000930:	08003097 	.word	0x08003097
 8000934:	08003097 	.word	0x08003097
 8000938:	08003097 	.word	0x08003097
 800093c:	08003097 	.word	0x08003097
 8000940:	08003097 	.word	0x08003097
 8000944:	08003097 	.word	0x08003097
 8000948:	08003097 	.word	0x08003097
 800094c:	08003097 	.word	0x08003097
 8000950:	08003097 	.word	0x08003097
 8000954:	08003097 	.word	0x08003097
 8000958:	08003097 	.word	0x08003097
 800095c:	08003097 	.word	0x08003097
 8000960:	08003097 	.word	0x08003097
 8000964:	08003097 	.word	0x08003097
 8000968:	08003097 	.word	0x08003097
 800096c:	08003097 	.word	0x08003097
 8000970:	08003097 	.word	0x08003097
 8000974:	08003097 	.word	0x08003097
 8000978:	08003097 	.word	0x08003097
 800097c:	08003097 	.word	0x08003097
 8000980:	08003097 	.word	0x08003097
 8000984:	08003097 	.word	0x08003097
 8000988:	08003097 	.word	0x08003097
 800098c:	08003097 	.word	0x08003097
 8000990:	08003097 	.word	0x08003097
 8000994:	08003097 	.word	0x08003097
 8000998:	08003097 	.word	0x08003097
 800099c:	08003097 	.word	0x08003097
 80009a0:	08003097 	.word	0x08003097
 80009a4:	08003097 	.word	0x08003097
 80009a8:	08003097 	.word	0x08003097
 80009ac:	08003097 	.word	0x08003097
 80009b0:	08003097 	.word	0x08003097
 80009b4:	08003097 	.word	0x08003097
 80009b8:	08003097 	.word	0x08003097
 80009bc:	08003097 	.word	0x08003097
 80009c0:	08003097 	.word	0x08003097
 80009c4:	08003097 	.word	0x08003097
 80009c8:	08003097 	.word	0x08003097
 80009cc:	08003097 	.word	0x08003097
 80009d0:	08003097 	.word	0x08003097
 80009d4:	08003097 	.word	0x08003097
 80009d8:	08003097 	.word	0x08003097
 80009dc:	08003097 	.word	0x08003097
 80009e0:	08003097 	.word	0x08003097
 80009e4:	08003097 	.word	0x08003097
 80009e8:	08003097 	.word	0x08003097
 80009ec:	08003097 	.word	0x08003097
 80009f0:	08003097 	.word	0x08003097
 80009f4:	08003097 	.word	0x08003097
 80009f8:	08003097 	.word	0x08003097
 80009fc:	08003097 	.word	0x08003097
 8000a00:	08003097 	.word	0x08003097
 8000a04:	08003097 	.word	0x08003097
 8000a08:	08003097 	.word	0x08003097
 8000a0c:	08003097 	.word	0x08003097
 8000a10:	08003097 	.word	0x08003097
 8000a14:	08003097 	.word	0x08003097
 8000a18:	08003097 	.word	0x08003097
 8000a1c:	08003097 	.word	0x08003097
 8000a20:	08003097 	.word	0x08003097
 8000a24:	08003097 	.word	0x08003097
 8000a28:	08003097 	.word	0x08003097
 8000a2c:	08003097 	.word	0x08003097
 8000a30:	08003097 	.word	0x08003097
 8000a34:	08003097 	.word	0x08003097
 8000a38:	08003097 	.word	0x08003097
 8000a3c:	08003097 	.word	0x08003097
 8000a40:	08003097 	.word	0x08003097
 8000a44:	08003097 	.word	0x08003097
 8000a48:	08003097 	.word	0x08003097
 8000a4c:	08003097 	.word	0x08003097
 8000a50:	08003097 	.word	0x08003097
 8000a54:	08003097 	.word	0x08003097
 8000a58:	08003097 	.word	0x08003097
 8000a5c:	08003097 	.word	0x08003097
 8000a60:	08003097 	.word	0x08003097
 8000a64:	08003097 	.word	0x08003097
 8000a68:	08003097 	.word	0x08003097
 8000a6c:	08003097 	.word	0x08003097
 8000a70:	08003097 	.word	0x08003097
 8000a74:	08003097 	.word	0x08003097
 8000a78:	08003097 	.word	0x08003097
 8000a7c:	08003097 	.word	0x08003097
 8000a80:	08003097 	.word	0x08003097
 8000a84:	08003097 	.word	0x08003097
 8000a88:	08003097 	.word	0x08003097
 8000a8c:	08003097 	.word	0x08003097
 8000a90:	08003097 	.word	0x08003097
 8000a94:	08003097 	.word	0x08003097
 8000a98:	08003097 	.word	0x08003097
 8000a9c:	08003097 	.word	0x08003097
 8000aa0:	08003097 	.word	0x08003097
 8000aa4:	08003097 	.word	0x08003097
 8000aa8:	08003097 	.word	0x08003097
 8000aac:	08003097 	.word	0x08003097
 8000ab0:	08003097 	.word	0x08003097
 8000ab4:	08003097 	.word	0x08003097
 8000ab8:	08003097 	.word	0x08003097
 8000abc:	08003097 	.word	0x08003097
 8000ac0:	08003097 	.word	0x08003097
 8000ac4:	08003097 	.word	0x08003097
 8000ac8:	08003097 	.word	0x08003097
 8000acc:	08003097 	.word	0x08003097
 8000ad0:	08003097 	.word	0x08003097
 8000ad4:	08003097 	.word	0x08003097
 8000ad8:	08003097 	.word	0x08003097
 8000adc:	08003097 	.word	0x08003097
 8000ae0:	08003097 	.word	0x08003097
 8000ae4:	08003097 	.word	0x08003097
 8000ae8:	08003097 	.word	0x08003097
 8000aec:	08003097 	.word	0x08003097
 8000af0:	08003097 	.word	0x08003097
 8000af4:	08003097 	.word	0x08003097
 8000af8:	08003097 	.word	0x08003097
 8000afc:	08003097 	.word	0x08003097
 8000b00:	08003097 	.word	0x08003097
 8000b04:	08003097 	.word	0x08003097
 8000b08:	08003097 	.word	0x08003097
 8000b0c:	08003097 	.word	0x08003097
 8000b10:	08003097 	.word	0x08003097
 8000b14:	08003097 	.word	0x08003097
 8000b18:	08003097 	.word	0x08003097
 8000b1c:	08003097 	.word	0x08003097
 8000b20:	08003097 	.word	0x08003097
 8000b24:	08003097 	.word	0x08003097
 8000b28:	08003097 	.word	0x08003097
 8000b2c:	08003097 	.word	0x08003097
 8000b30:	08003097 	.word	0x08003097
 8000b34:	08003097 	.word	0x08003097
 8000b38:	08003097 	.word	0x08003097
 8000b3c:	08003097 	.word	0x08003097
 8000b40:	08003097 	.word	0x08003097
 8000b44:	08003097 	.word	0x08003097
 8000b48:	08003097 	.word	0x08003097
 8000b4c:	08003097 	.word	0x08003097
 8000b50:	08003097 	.word	0x08003097
 8000b54:	08003097 	.word	0x08003097
 8000b58:	08003097 	.word	0x08003097
 8000b5c:	08003097 	.word	0x08003097
 8000b60:	08003097 	.word	0x08003097
 8000b64:	08003097 	.word	0x08003097
 8000b68:	08003097 	.word	0x08003097
 8000b6c:	08003097 	.word	0x08003097
 8000b70:	08003097 	.word	0x08003097
 8000b74:	08003097 	.word	0x08003097
 8000b78:	08003097 	.word	0x08003097
 8000b7c:	08003097 	.word	0x08003097
 8000b80:	08003097 	.word	0x08003097
 8000b84:	08003097 	.word	0x08003097
 8000b88:	08003097 	.word	0x08003097
 8000b8c:	08003097 	.word	0x08003097
 8000b90:	08003097 	.word	0x08003097
 8000b94:	08003097 	.word	0x08003097
 8000b98:	08003097 	.word	0x08003097
 8000b9c:	08003097 	.word	0x08003097
 8000ba0:	08003097 	.word	0x08003097
 8000ba4:	08003097 	.word	0x08003097
 8000ba8:	08003097 	.word	0x08003097
 8000bac:	08003097 	.word	0x08003097
 8000bb0:	08003097 	.word	0x08003097
 8000bb4:	08003097 	.word	0x08003097
 8000bb8:	08003097 	.word	0x08003097
 8000bbc:	08003097 	.word	0x08003097
 8000bc0:	08003097 	.word	0x08003097
 8000bc4:	08003097 	.word	0x08003097
 8000bc8:	08003097 	.word	0x08003097
 8000bcc:	08003097 	.word	0x08003097
 8000bd0:	08003097 	.word	0x08003097
 8000bd4:	08003097 	.word	0x08003097
 8000bd8:	08003097 	.word	0x08003097
 8000bdc:	08003097 	.word	0x08003097
 8000be0:	08003097 	.word	0x08003097
 8000be4:	08003097 	.word	0x08003097
 8000be8:	08003097 	.word	0x08003097
 8000bec:	08003097 	.word	0x08003097
 8000bf0:	08003097 	.word	0x08003097
 8000bf4:	08003097 	.word	0x08003097
 8000bf8:	08003097 	.word	0x08003097
 8000bfc:	08003097 	.word	0x08003097
 8000c00:	08003097 	.word	0x08003097
 8000c04:	08003097 	.word	0x08003097
 8000c08:	08003097 	.word	0x08003097
 8000c0c:	08003097 	.word	0x08003097
 8000c10:	08003097 	.word	0x08003097
 8000c14:	08003097 	.word	0x08003097
 8000c18:	08003097 	.word	0x08003097
 8000c1c:	08003097 	.word	0x08003097
 8000c20:	08003097 	.word	0x08003097
 8000c24:	08003097 	.word	0x08003097
 8000c28:	08003097 	.word	0x08003097
 8000c2c:	08003097 	.word	0x08003097
 8000c30:	08003097 	.word	0x08003097
 8000c34:	08003097 	.word	0x08003097
 8000c38:	08003097 	.word	0x08003097
 8000c3c:	08003097 	.word	0x08003097
 8000c40:	08003097 	.word	0x08003097
 8000c44:	08003097 	.word	0x08003097
 8000c48:	08003097 	.word	0x08003097
 8000c4c:	08003097 	.word	0x08003097
 8000c50:	08003097 	.word	0x08003097
 8000c54:	08003097 	.word	0x08003097
 8000c58:	08003097 	.word	0x08003097
 8000c5c:	08003097 	.word	0x08003097
 8000c60:	08003097 	.word	0x08003097
 8000c64:	08003097 	.word	0x08003097
 8000c68:	08003097 	.word	0x08003097
 8000c6c:	08003097 	.word	0x08003097
 8000c70:	08003097 	.word	0x08003097
 8000c74:	08003097 	.word	0x08003097
 8000c78:	08003097 	.word	0x08003097
 8000c7c:	08003097 	.word	0x08003097
 8000c80:	08003097 	.word	0x08003097
 8000c84:	08003097 	.word	0x08003097
 8000c88:	08003097 	.word	0x08003097
 8000c8c:	08003097 	.word	0x08003097
 8000c90:	08003097 	.word	0x08003097
 8000c94:	08003097 	.word	0x08003097
 8000c98:	08003097 	.word	0x08003097
 8000c9c:	08003097 	.word	0x08003097
 8000ca0:	08003097 	.word	0x08003097
 8000ca4:	08003097 	.word	0x08003097
 8000ca8:	08003097 	.word	0x08003097
 8000cac:	08003097 	.word	0x08003097
 8000cb0:	08003097 	.word	0x08003097
 8000cb4:	08003097 	.word	0x08003097
 8000cb8:	08003097 	.word	0x08003097
 8000cbc:	08003097 	.word	0x08003097
 8000cc0:	08003097 	.word	0x08003097
 8000cc4:	08003097 	.word	0x08003097
 8000cc8:	08003097 	.word	0x08003097
 8000ccc:	08003097 	.word	0x08003097
 8000cd0:	08003097 	.word	0x08003097
 8000cd4:	08003097 	.word	0x08003097
 8000cd8:	08003097 	.word	0x08003097
 8000cdc:	08003097 	.word	0x08003097
 8000ce0:	08003097 	.word	0x08003097
 8000ce4:	08003097 	.word	0x08003097
 8000ce8:	08003097 	.word	0x08003097
 8000cec:	08003097 	.word	0x08003097
 8000cf0:	08003097 	.word	0x08003097
 8000cf4:	08003097 	.word	0x08003097
 8000cf8:	08003097 	.word	0x08003097
 8000cfc:	08003097 	.word	0x08003097
 8000d00:	08003097 	.word	0x08003097
 8000d04:	08003097 	.word	0x08003097
 8000d08:	08003097 	.word	0x08003097
 8000d0c:	08003097 	.word	0x08003097
 8000d10:	08003097 	.word	0x08003097
 8000d14:	08003097 	.word	0x08003097
 8000d18:	08003097 	.word	0x08003097
 8000d1c:	08003097 	.word	0x08003097
 8000d20:	08003097 	.word	0x08003097
 8000d24:	08003097 	.word	0x08003097
 8000d28:	08003097 	.word	0x08003097
 8000d2c:	08003097 	.word	0x08003097
 8000d30:	0800302d 	.word	0x0800302d
 8000d34:	08003097 	.word	0x08003097
 8000d38:	0800305b 	.word	0x0800305b

        /* === 12-BIT TELEMETRY (0x00-0x1A) === */
        case 0x00U: /* Telemetry Group 1 */
            pack12(&data[0], &data[1], t->chg_curr);
 8000d3c:	683b      	ldr	r3, [r7, #0]
 8000d3e:	1c5a      	adds	r2, r3, #1
 8000d40:	6b7b      	ldr	r3, [r7, #52]	; 0x34
 8000d42:	881b      	ldrh	r3, [r3, #0]
 8000d44:	6838      	ldr	r0, [r7, #0]
 8000d46:	4611      	mov	r1, r2
 8000d48:	461a      	mov	r2, r3
 8000d4a:	f7ff fb2f 	bl	80003ac <pack12>
            pack12(&data[2], &data[3], t->batt1_curr);
 8000d4e:	683b      	ldr	r3, [r7, #0]
 8000d50:	1c99      	adds	r1, r3, #2
 8000d52:	683b      	ldr	r3, [r7, #0]
 8000d54:	1cda      	adds	r2, r3, #3
 8000d56:	6b7b      	ldr	r3, [r7, #52]	; 0x34
 8000d58:	885b      	ldrh	r3, [r3, #2]
 8000d5a:	4608      	mov	r0, r1
 8000d5c:	4611      	mov	r1, r2
 8000d5e:	461a      	mov	r2, r3
 8000d60:	f7ff fb24 	bl	80003ac <pack12>
            pack12(&data[4], &data[5], t->batt2_curr);
 8000d64:	683b      	ldr	r3, [r7, #0]
 8000d66:	1d19      	adds	r1, r3, #4
 8000d68:	683b      	ldr	r3, [r7, #0]
 8000d6a:	1d5a      	adds	r2, r3, #5
 8000d6c:	6b7b      	ldr	r3, [r7, #52]	; 0x34
 8000d6e:	889b      	ldrh	r3, [r3, #4]
 8000d70:	4608      	mov	r0, r1
 8000d72:	4611      	mov	r1, r2
 8000d74:	461a      	mov	r2, r3
 8000d76:	f7ff fb19 	bl	80003ac <pack12>
            break;
 8000d7a:	f002 b98d 	b.w	8003098 <build_response+0x2b74>
        case 0x01U: /* Telemetry Group 2 */
            pack12(&data[0], &data[1], t->ll_imon);
 8000d7e:	683b      	ldr	r3, [r7, #0]
 8000d80:	1c5a      	adds	r2, r3, #1
 8000d82:	6b7b      	ldr	r3, [r7, #52]	; 0x34
 8000d84:	88db      	ldrh	r3, [r3, #6]
 8000d86:	6838      	ldr	r0, [r7, #0]
 8000d88:	4611      	mov	r1, r2
 8000d8a:	461a      	mov	r2, r3
 8000d8c:	f7ff fb0e 	bl	80003ac <pack12>
            pack12(&data[2], &data[3], t->rl_imon);
 8000d90:	683b      	ldr	r3, [r7, #0]
 8000d92:	1c99      	adds	r1, r3, #2
 8000d94:	683b      	ldr	r3, [r7, #0]
 8000d96:	1cda      	adds	r2, r3, #3
 8000d98:	6b7b      	ldr	r3, [r7, #52]	; 0x34
 8000d9a:	891b      	ldrh	r3, [r3, #8]
 8000d9c:	4608      	mov	r0, r1
 8000d9e:	4611      	mov	r1, r2
 8000da0:	461a      	mov	r2, r3
 8000da2:	f7ff fb03 	bl	80003ac <pack12>
            pack12(&data[4], &data[5], t->la_imon);
 8000da6:	683b      	ldr	r3, [r7, #0]
 8000da8:	1d19      	adds	r1, r3, #4
 8000daa:	683b      	ldr	r3, [r7, #0]
 8000dac:	1d5a      	adds	r2, r3, #5
 8000dae:	6b7b      	ldr	r3, [r7, #52]	; 0x34
 8000db0:	895b      	ldrh	r3, [r3, #10]
 8000db2:	4608      	mov	r0, r1
 8000db4:	4611      	mov	r1, r2
 8000db6:	461a      	mov	r2, r3
 8000db8:	f7ff faf8 	bl	80003ac <pack12>
            break;
 8000dbc:	f002 b96c 	b.w	8003098 <build_response+0x2b74>
        case 0x02U: /* Telemetry Group 3 */
            pack12(&data[0], &data[1], t->ra_imon);
 8000dc0:	683b      	ldr	r3, [r7, #0]
 8000dc2:	1c5a      	adds	r2, r3, #1
 8000dc4:	6b7b      	ldr	r3, [r7, #52]	; 0x34
 8000dc6:	899b      	ldrh	r3, [r3, #12]
 8000dc8:	6838      	ldr	r0, [r7, #0]
 8000dca:	4611      	mov	r1, r2
 8000dcc:	461a      	mov	r2, r3
 8000dce:	f7ff faed 	bl	80003ac <pack12>
            pack12(&data[2], &data[3], t->tr_imon);
 8000dd2:	683b      	ldr	r3, [r7, #0]
 8000dd4:	1c99      	adds	r1, r3, #2
 8000dd6:	683b      	ldr	r3, [r7, #0]
 8000dd8:	1cda      	adds	r2, r3, #3
 8000dda:	6b7b      	ldr	r3, [r7, #52]	; 0x34
 8000ddc:	89db      	ldrh	r3, [r3, #14]
 8000dde:	4608      	mov	r0, r1
 8000de0:	4611      	mov	r1, r2
 8000de2:	461a      	mov	r2, r3
 8000de4:	f7ff fae2 	bl	80003ac <pack12>
            pack12(&data[4], &data[5], t->chg_in);
 8000de8:	683b      	ldr	r3, [r7, #0]
 8000dea:	1d19      	adds	r1, r3, #4
 8000dec:	683b      	ldr	r3, [r7, #0]
 8000dee:	1d5a      	adds	r2, r3, #5
 8000df0:	6b7b      	ldr	r3, [r7, #52]	; 0x34
 8000df2:	8a1b      	ldrh	r3, [r3, #16]
 8000df4:	4608      	mov	r0, r1
 8000df6:	4611      	mov	r1, r2
 8000df8:	461a      	mov	r2, r3
 8000dfa:	f7ff fad7 	bl	80003ac <pack12>
            break;
 8000dfe:	f002 b94b 	b.w	8003098 <build_response+0x2b74>
        case 0x03U: /* Telemetry Group 4 */
            pack12(&data[0], &data[1], t->hv);
 8000e02:	683b      	ldr	r3, [r7, #0]
 8000e04:	1c5a      	adds	r2, r3, #1
 8000e06:	6b7b      	ldr	r3, [r7, #52]	; 0x34
 8000e08:	8a5b      	ldrh	r3, [r3, #18]
 8000e0a:	6838      	ldr	r0, [r7, #0]
 8000e0c:	4611      	mov	r1, r2
 8000e0e:	461a      	mov	r2, r3
 8000e10:	f7ff facc 	bl	80003ac <pack12>
            pack12(&data[2], &data[3], t->batt1_in);
 8000e14:	683b      	ldr	r3, [r7, #0]
 8000e16:	1c99      	adds	r1, r3, #2
 8000e18:	683b      	ldr	r3, [r7, #0]
 8000e1a:	1cda      	adds	r2, r3, #3
 8000e1c:	6b7b      	ldr	r3, [r7, #52]	; 0x34
 8000e1e:	8a9b      	ldrh	r3, [r3, #20]
 8000e20:	4608      	mov	r0, r1
 8000e22:	4611      	mov	r1, r2
 8000e24:	461a      	mov	r2, r3
 8000e26:	f7ff fac1 	bl	80003ac <pack12>
            pack12(&data[4], &data[5], t->batt2_in);
 8000e2a:	683b      	ldr	r3, [r7, #0]
 8000e2c:	1d19      	adds	r1, r3, #4
 8000e2e:	683b      	ldr	r3, [r7, #0]
 8000e30:	1d5a      	adds	r2, r3, #5
 8000e32:	6b7b      	ldr	r3, [r7, #52]	; 0x34
 8000e34:	8adb      	ldrh	r3, [r3, #22]
 8000e36:	4608      	mov	r0, r1
 8000e38:	4611      	mov	r1, r2
 8000e3a:	461a      	mov	r2, r3
 8000e3c:	f7ff fab6 	bl	80003ac <pack12>
            break;
 8000e40:	f002 b92a 	b.w	8003098 <build_response+0x2b74>
        case 0x04U: /* Telemetry Group 5 */
            pack12(&data[0], &data[1], t->nk_imon);
 8000e44:	683b      	ldr	r3, [r7, #0]
 8000e46:	1c5a      	adds	r2, r3, #1
 8000e48:	6b7b      	ldr	r3, [r7, #52]	; 0x34
 8000e4a:	8b1b      	ldrh	r3, [r3, #24]
 8000e4c:	6838      	ldr	r0, [r7, #0]
 8000e4e:	4611      	mov	r1, r2
 8000e50:	461a      	mov	r2, r3
 8000e52:	f7ff faab 	bl	80003ac <pack12>
            pack12(&data[2], &data[3], t->mot_bus);
 8000e56:	683b      	ldr	r3, [r7, #0]
 8000e58:	1c99      	adds	r1, r3, #2
 8000e5a:	683b      	ldr	r3, [r7, #0]
 8000e5c:	1cda      	adds	r2, r3, #3
 8000e5e:	6b7b      	ldr	r3, [r7, #52]	; 0x34
 8000e60:	8b5b      	ldrh	r3, [r3, #26]
 8000e62:	4608      	mov	r0, r1
 8000e64:	4611      	mov	r1, r2
 8000e66:	461a      	mov	r2, r3
 8000e68:	f7ff faa0 	bl	80003ac <pack12>
            pack12(&data[4], &data[5], t->chg_hv);
 8000e6c:	683b      	ldr	r3, [r7, #0]
 8000e6e:	1d19      	adds	r1, r3, #4
 8000e70:	683b      	ldr	r3, [r7, #0]
 8000e72:	1d5a      	adds	r2, r3, #5
 8000e74:	6b7b      	ldr	r3, [r7, #52]	; 0x34
 8000e76:	8b9b      	ldrh	r3, [r3, #28]
 8000e78:	4608      	mov	r0, r1
 8000e7a:	4611      	mov	r1, r2
 8000e7c:	461a      	mov	r2, r3
 8000e7e:	f7ff fa95 	bl	80003ac <pack12>
            break;
 8000e82:	f002 b909 	b.w	8003098 <build_response+0x2b74>
        case 0x05U: /* Telemetry Group 6 */
            pack12(&data[0], &data[1], t->user_hv);
 8000e86:	683b      	ldr	r3, [r7, #0]
 8000e88:	1c5a      	adds	r2, r3, #1
 8000e8a:	6b7b      	ldr	r3, [r7, #52]	; 0x34
 8000e8c:	8bdb      	ldrh	r3, [r3, #30]
 8000e8e:	6838      	ldr	r0, [r7, #0]
 8000e90:	4611      	mov	r1, r2
 8000e92:	461a      	mov	r2, r3
 8000e94:	f7ff fa8a 	bl	80003ac <pack12>
            pack12(&data[2], &data[3], t->user_hv_curr);
 8000e98:	683b      	ldr	r3, [r7, #0]
 8000e9a:	1c99      	adds	r1, r3, #2
 8000e9c:	683b      	ldr	r3, [r7, #0]
 8000e9e:	1cda      	adds	r2, r3, #3
 8000ea0:	6b7b      	ldr	r3, [r7, #52]	; 0x34
 8000ea2:	8c1b      	ldrh	r3, [r3, #32]
 8000ea4:	4608      	mov	r0, r1
 8000ea6:	4611      	mov	r1, r2
 8000ea8:	461a      	mov	r2, r3
 8000eaa:	f7ff fa7f 	bl	80003ac <pack12>
            break;
 8000eae:	f002 b8f3 	b.w	8003098 <build_response+0x2b74>
        case 0x06U: /* Telemetry Group 7 */
            pack12(&data[0], &data[1], t->pc_24v);
 8000eb2:	683b      	ldr	r3, [r7, #0]
 8000eb4:	1c5a      	adds	r2, r3, #1
 8000eb6:	6b7b      	ldr	r3, [r7, #52]	; 0x34
 8000eb8:	8c5b      	ldrh	r3, [r3, #34]	; 0x22
 8000eba:	6838      	ldr	r0, [r7, #0]
 8000ebc:	4611      	mov	r1, r2
 8000ebe:	461a      	mov	r2, r3
 8000ec0:	f7ff fa74 	bl	80003ac <pack12>
            pack12(&data[2], &data[3], t->pc_24v_imon);
 8000ec4:	683b      	ldr	r3, [r7, #0]
 8000ec6:	1c99      	adds	r1, r3, #2
 8000ec8:	683b      	ldr	r3, [r7, #0]
 8000eca:	1cda      	adds	r2, r3, #3
 8000ecc:	6b7b      	ldr	r3, [r7, #52]	; 0x34
 8000ece:	8c9b      	ldrh	r3, [r3, #36]	; 0x24
 8000ed0:	4608      	mov	r0, r1
 8000ed2:	4611      	mov	r1, r2
 8000ed4:	461a      	mov	r2, r3
 8000ed6:	f7ff fa69 	bl	80003ac <pack12>
            break;
 8000eda:	f002 b8dd 	b.w	8003098 <build_response+0x2b74>
        case 0x07U: /* Telemetry Group 8 */
            pack12(&data[0], &data[1], t->user_24v);
 8000ede:	683b      	ldr	r3, [r7, #0]
 8000ee0:	1c5a      	adds	r2, r3, #1
 8000ee2:	6b7b      	ldr	r3, [r7, #52]	; 0x34
 8000ee4:	8cdb      	ldrh	r3, [r3, #38]	; 0x26
 8000ee6:	6838      	ldr	r0, [r7, #0]
 8000ee8:	4611      	mov	r1, r2
 8000eea:	461a      	mov	r2, r3
 8000eec:	f7ff fa5e 	bl	80003ac <pack12>
            pack12(&data[2], &data[3], t->user_24v_imon);
 8000ef0:	683b      	ldr	r3, [r7, #0]
 8000ef2:	1c99      	adds	r1, r3, #2
 8000ef4:	683b      	ldr	r3, [r7, #0]
 8000ef6:	1cda      	adds	r2, r3, #3
 8000ef8:	6b7b      	ldr	r3, [r7, #52]	; 0x34
 8000efa:	8d1b      	ldrh	r3, [r3, #40]	; 0x28
 8000efc:	4608      	mov	r0, r1
 8000efe:	4611      	mov	r1, r2
 8000f00:	461a      	mov	r2, r3
 8000f02:	f7ff fa53 	bl	80003ac <pack12>
            break;
 8000f06:	f002 b8c7 	b.w	8003098 <build_response+0x2b74>
        case 0x08U: /* Telemetry Group 9 */
            pack12(&data[0], &data[1], t->pc_a_12v);
 8000f0a:	683b      	ldr	r3, [r7, #0]
 8000f0c:	1c5a      	adds	r2, r3, #1
 8000f0e:	6b7b      	ldr	r3, [r7, #52]	; 0x34
 8000f10:	8d5b      	ldrh	r3, [r3, #42]	; 0x2a
 8000f12:	6838      	ldr	r0, [r7, #0]
 8000f14:	4611      	mov	r1, r2
 8000f16:	461a      	mov	r2, r3
 8000f18:	f7ff fa48 	bl	80003ac <pack12>
            pack12(&data[2], &data[3], t->pc_a_12v_imon);
 8000f1c:	683b      	ldr	r3, [r7, #0]
 8000f1e:	1c99      	adds	r1, r3, #2
 8000f20:	683b      	ldr	r3, [r7, #0]
 8000f22:	1cda      	adds	r2, r3, #3
 8000f24:	6b7b      	ldr	r3, [r7, #52]	; 0x34
 8000f26:	8d9b      	ldrh	r3, [r3, #44]	; 0x2c
 8000f28:	4608      	mov	r0, r1
 8000f2a:	4611      	mov	r1, r2
 8000f2c:	461a      	mov	r2, r3
 8000f2e:	f7ff fa3d 	bl	80003ac <pack12>
            break;
 8000f32:	f002 b8b1 	b.w	8003098 <build_response+0x2b74>
        case 0x09U: /* Telemetry Group 10 */
            pack12(&data[0], &data[1], t->pc_b_12v);
 8000f36:	683b      	ldr	r3, [r7, #0]
 8000f38:	1c5a      	adds	r2, r3, #1
 8000f3a:	6b7b      	ldr	r3, [r7, #52]	; 0x34
 8000f3c:	8ddb      	ldrh	r3, [r3, #46]	; 0x2e
 8000f3e:	6838      	ldr	r0, [r7, #0]
 8000f40:	4611      	mov	r1, r2
 8000f42:	461a      	mov	r2, r3
 8000f44:	f7ff fa32 	bl	80003ac <pack12>
            pack12(&data[2], &data[3], t->pc_b_12v_imon);
 8000f48:	683b      	ldr	r3, [r7, #0]
 8000f4a:	1c99      	adds	r1, r3, #2
 8000f4c:	683b      	ldr	r3, [r7, #0]
 8000f4e:	1cda      	adds	r2, r3, #3
 8000f50:	6b7b      	ldr	r3, [r7, #52]	; 0x34
 8000f52:	8e1b      	ldrh	r3, [r3, #48]	; 0x30
 8000f54:	4608      	mov	r0, r1
 8000f56:	4611      	mov	r1, r2
 8000f58:	461a      	mov	r2, r3
 8000f5a:	f7ff fa27 	bl	80003ac <pack12>
            break;
 8000f5e:	f002 b89b 	b.w	8003098 <build_response+0x2b74>
        case 0x0AU: /* Telemetry Group 11 */
            pack12(&data[0], &data[1], t->v24_imon0);
 8000f62:	683b      	ldr	r3, [r7, #0]
 8000f64:	1c5a      	adds	r2, r3, #1
 8000f66:	6b7b      	ldr	r3, [r7, #52]	; 0x34
 8000f68:	8e5b      	ldrh	r3, [r3, #50]	; 0x32
 8000f6a:	6838      	ldr	r0, [r7, #0]
 8000f6c:	4611      	mov	r1, r2
 8000f6e:	461a      	mov	r2, r3
 8000f70:	f7ff fa1c 	bl	80003ac <pack12>
            pack12(&data[2], &data[3], t->v24_imon1);
 8000f74:	683b      	ldr	r3, [r7, #0]
 8000f76:	1c99      	adds	r1, r3, #2
 8000f78:	683b      	ldr	r3, [r7, #0]
 8000f7a:	1cda      	adds	r2, r3, #3
 8000f7c:	6b7b      	ldr	r3, [r7, #52]	; 0x34
 8000f7e:	8e9b      	ldrh	r3, [r3, #52]	; 0x34
 8000f80:	4608      	mov	r0, r1
 8000f82:	4611      	mov	r1, r2
 8000f84:	461a      	mov	r2, r3
 8000f86:	f7ff fa11 	bl	80003ac <pack12>
            pack12(&data[4], &data[5], t->v24_imon2);
 8000f8a:	683b      	ldr	r3, [r7, #0]
 8000f8c:	1d19      	adds	r1, r3, #4
 8000f8e:	683b      	ldr	r3, [r7, #0]
 8000f90:	1d5a      	adds	r2, r3, #5
 8000f92:	6b7b      	ldr	r3, [r7, #52]	; 0x34
 8000f94:	8edb      	ldrh	r3, [r3, #54]	; 0x36
 8000f96:	4608      	mov	r0, r1
 8000f98:	4611      	mov	r1, r2
 8000f9a:	461a      	mov	r2, r3
 8000f9c:	f7ff fa06 	bl	80003ac <pack12>
            break;
 8000fa0:	f002 b87a 	b.w	8003098 <build_response+0x2b74>
        case 0x0BU: /* Telemetry Group 12 */
            pack12(&data[0], &data[1], t->v12_imon0);
 8000fa4:	683b      	ldr	r3, [r7, #0]
 8000fa6:	1c5a      	adds	r2, r3, #1
 8000fa8:	6b7b      	ldr	r3, [r7, #52]	; 0x34
 8000faa:	8f1b      	ldrh	r3, [r3, #56]	; 0x38
 8000fac:	6838      	ldr	r0, [r7, #0]
 8000fae:	4611      	mov	r1, r2
 8000fb0:	461a      	mov	r2, r3
 8000fb2:	f7ff f9fb 	bl	80003ac <pack12>
            pack12(&data[2], &data[3], t->v12_imon1);
 8000fb6:	683b      	ldr	r3, [r7, #0]
 8000fb8:	1c99      	adds	r1, r3, #2
 8000fba:	683b      	ldr	r3, [r7, #0]
 8000fbc:	1cda      	adds	r2, r3, #3
 8000fbe:	6b7b      	ldr	r3, [r7, #52]	; 0x34
 8000fc0:	8f5b      	ldrh	r3, [r3, #58]	; 0x3a
 8000fc2:	4608      	mov	r0, r1
 8000fc4:	4611      	mov	r1, r2
 8000fc6:	461a      	mov	r2, r3
 8000fc8:	f7ff f9f0 	bl	80003ac <pack12>
            pack12(&data[4], &data[5], t->v12_imon2);
 8000fcc:	683b      	ldr	r3, [r7, #0]
 8000fce:	1d19      	adds	r1, r3, #4
 8000fd0:	683b      	ldr	r3, [r7, #0]
 8000fd2:	1d5a      	adds	r2, r3, #5
 8000fd4:	6b7b      	ldr	r3, [r7, #52]	; 0x34
 8000fd6:	8f9b      	ldrh	r3, [r3, #60]	; 0x3c
 8000fd8:	4608      	mov	r0, r1
 8000fda:	4611      	mov	r1, r2
 8000fdc:	461a      	mov	r2, r3
 8000fde:	f7ff f9e5 	bl	80003ac <pack12>
            break;
 8000fe2:	f002 b859 	b.w	8003098 <build_response+0x2b74>
        case 0x0CU: /* Telemetry Group 13 */
            pack12(&data[0], &data[1], t->v24_bus_voltage);
 8000fe6:	683b      	ldr	r3, [r7, #0]
 8000fe8:	1c5a      	adds	r2, r3, #1
 8000fea:	6b7b      	ldr	r3, [r7, #52]	; 0x34
 8000fec:	8fdb      	ldrh	r3, [r3, #62]	; 0x3e
 8000fee:	6838      	ldr	r0, [r7, #0]
 8000ff0:	4611      	mov	r1, r2
 8000ff2:	461a      	mov	r2, r3
 8000ff4:	f7ff f9da 	bl	80003ac <pack12>
            pack12(&data[2], &data[3], t->v12_bus_a_voltage);
 8000ff8:	683b      	ldr	r3, [r7, #0]
 8000ffa:	1c99      	adds	r1, r3, #2
 8000ffc:	683b      	ldr	r3, [r7, #0]
 8000ffe:	1cda      	adds	r2, r3, #3
 8001000:	6b7b      	ldr	r3, [r7, #52]	; 0x34
 8001002:	f8b3 3040 	ldrh.w	r3, [r3, #64]	; 0x40
 8001006:	4608      	mov	r0, r1
 8001008:	4611      	mov	r1, r2
 800100a:	461a      	mov	r2, r3
 800100c:	f7ff f9ce 	bl	80003ac <pack12>
            break;
 8001010:	f002 b842 	b.w	8003098 <build_response+0x2b74>
        case 0x0DU: /* Telemetry Group 14 */
            pack12(&data[0], &data[1], t->v5);
 8001014:	683b      	ldr	r3, [r7, #0]
 8001016:	1c5a      	adds	r2, r3, #1
 8001018:	6b7b      	ldr	r3, [r7, #52]	; 0x34
 800101a:	f8b3 3042 	ldrh.w	r3, [r3, #66]	; 0x42
 800101e:	6838      	ldr	r0, [r7, #0]
 8001020:	4611      	mov	r1, r2
 8001022:	461a      	mov	r2, r3
 8001024:	f7ff f9c2 	bl	80003ac <pack12>
            pack12(&data[2], &data[3], t->v5_curr);
 8001028:	683b      	ldr	r3, [r7, #0]
 800102a:	1c99      	adds	r1, r3, #2
 800102c:	683b      	ldr	r3, [r7, #0]
 800102e:	1cda      	adds	r2, r3, #3
 8001030:	6b7b      	ldr	r3, [r7, #52]	; 0x34
 8001032:	f8b3 3044 	ldrh.w	r3, [r3, #68]	; 0x44
 8001036:	4608      	mov	r0, r1
 8001038:	4611      	mov	r1, r2
 800103a:	461a      	mov	r2, r3
 800103c:	f7ff f9b6 	bl	80003ac <pack12>
            break;
 8001040:	f002 b82a 	b.w	8003098 <build_response+0x2b74>
        case 0x0EU: /* Telemetry Group 15 */
            pack12(&data[0], &data[1], t->v3v3);
 8001044:	683b      	ldr	r3, [r7, #0]
 8001046:	1c5a      	adds	r2, r3, #1
 8001048:	6b7b      	ldr	r3, [r7, #52]	; 0x34
 800104a:	f8b3 3046 	ldrh.w	r3, [r3, #70]	; 0x46
 800104e:	6838      	ldr	r0, [r7, #0]
 8001050:	4611      	mov	r1, r2
 8001052:	461a      	mov	r2, r3
 8001054:	f7ff f9aa 	bl	80003ac <pack12>
            pack12(&data[2], &data[3], t->v3v3_curr);
 8001058:	683b      	ldr	r3, [r7, #0]
 800105a:	1c99      	adds	r1, r3, #2
 800105c:	683b      	ldr	r3, [r7, #0]
 800105e:	1cda      	adds	r2, r3, #3
 8001060:	6b7b      	ldr	r3, [r7, #52]	; 0x34
 8001062:	f8b3 3048 	ldrh.w	r3, [r3, #72]	; 0x48
 8001066:	4608      	mov	r0, r1
 8001068:	4611      	mov	r1, r2
 800106a:	461a      	mov	r2, r3
 800106c:	f7ff f99e 	bl	80003ac <pack12>
            break;
 8001070:	f002 b812 	b.w	8003098 <build_response+0x2b74>
        case 0x0FU: /* Telemetry Group 16 */
            pack12(&data[0], &data[1], t->aux_24v);
 8001074:	683b      	ldr	r3, [r7, #0]
 8001076:	1c5a      	adds	r2, r3, #1
 8001078:	6b7b      	ldr	r3, [r7, #52]	; 0x34
 800107a:	f8b3 304a 	ldrh.w	r3, [r3, #74]	; 0x4a
 800107e:	6838      	ldr	r0, [r7, #0]
 8001080:	4611      	mov	r1, r2
 8001082:	461a      	mov	r2, r3
 8001084:	f7ff f992 	bl	80003ac <pack12>
            pack12(&data[2], &data[3], t->aux_24v_curr);
 8001088:	683b      	ldr	r3, [r7, #0]
 800108a:	1c99      	adds	r1, r3, #2
 800108c:	683b      	ldr	r3, [r7, #0]
 800108e:	1cda      	adds	r2, r3, #3
 8001090:	6b7b      	ldr	r3, [r7, #52]	; 0x34
 8001092:	f8b3 304c 	ldrh.w	r3, [r3, #76]	; 0x4c
 8001096:	4608      	mov	r0, r1
 8001098:	4611      	mov	r1, r2
 800109a:	461a      	mov	r2, r3
 800109c:	f7ff f986 	bl	80003ac <pack12>
            break;
 80010a0:	f001 bffa 	b.w	8003098 <build_response+0x2b74>
        case 0x10U: /* Telemetry Group 17 */
            pack12(&data[0], &data[1], t->aux_12v);
 80010a4:	683b      	ldr	r3, [r7, #0]
 80010a6:	1c5a      	adds	r2, r3, #1
 80010a8:	6b7b      	ldr	r3, [r7, #52]	; 0x34
 80010aa:	f8b3 304e 	ldrh.w	r3, [r3, #78]	; 0x4e
 80010ae:	6838      	ldr	r0, [r7, #0]
 80010b0:	4611      	mov	r1, r2
 80010b2:	461a      	mov	r2, r3
 80010b4:	f7ff f97a 	bl	80003ac <pack12>
            pack12(&data[2], &data[3], t->aux_12v_curr);
 80010b8:	683b      	ldr	r3, [r7, #0]
 80010ba:	1c99      	adds	r1, r3, #2
 80010bc:	683b      	ldr	r3, [r7, #0]
 80010be:	1cda      	adds	r2, r3, #3
 80010c0:	6b7b      	ldr	r3, [r7, #52]	; 0x34
 80010c2:	f8b3 3050 	ldrh.w	r3, [r3, #80]	; 0x50
 80010c6:	4608      	mov	r0, r1
 80010c8:	4611      	mov	r1, r2
 80010ca:	461a      	mov	r2, r3
 80010cc:	f7ff f96e 	bl	80003ac <pack12>
            break;
 80010d0:	f001 bfe2 	b.w	8003098 <build_response+0x2b74>
        case 0x11U: /* Telemetry Group 18 */
            pack12(&data[0], &data[1], t->estop_rec_a_12v);
 80010d4:	683b      	ldr	r3, [r7, #0]
 80010d6:	1c5a      	adds	r2, r3, #1
 80010d8:	6b7b      	ldr	r3, [r7, #52]	; 0x34
 80010da:	f8b3 3052 	ldrh.w	r3, [r3, #82]	; 0x52
 80010de:	6838      	ldr	r0, [r7, #0]
 80010e0:	4611      	mov	r1, r2
 80010e2:	461a      	mov	r2, r3
 80010e4:	f7ff f962 	bl	80003ac <pack12>
            pack12(&data[2], &data[3], t->estop_rec_b_12v);
 80010e8:	683b      	ldr	r3, [r7, #0]
 80010ea:	1c99      	adds	r1, r3, #2
 80010ec:	683b      	ldr	r3, [r7, #0]
 80010ee:	1cda      	adds	r2, r3, #3
 80010f0:	6b7b      	ldr	r3, [r7, #52]	; 0x34
 80010f2:	f8b3 3054 	ldrh.w	r3, [r3, #84]	; 0x54
 80010f6:	4608      	mov	r0, r1
 80010f8:	4611      	mov	r1, r2
 80010fa:	461a      	mov	r2, r3
 80010fc:	f7ff f956 	bl	80003ac <pack12>
            break;
 8001100:	f001 bfca 	b.w	8003098 <build_response+0x2b74>
        case 0x12U: /* Telemetry Group 19 */
            pack12(&data[0], &data[1], t->v12_b_imon3);
 8001104:	683b      	ldr	r3, [r7, #0]
 8001106:	1c5a      	adds	r2, r3, #1
 8001108:	6b7b      	ldr	r3, [r7, #52]	; 0x34
 800110a:	f8b3 3056 	ldrh.w	r3, [r3, #86]	; 0x56
 800110e:	6838      	ldr	r0, [r7, #0]
 8001110:	4611      	mov	r1, r2
 8001112:	461a      	mov	r2, r3
 8001114:	f7ff f94a 	bl	80003ac <pack12>
            pack12(&data[2], &data[3], t->v12_b_imon4);
 8001118:	683b      	ldr	r3, [r7, #0]
 800111a:	1c99      	adds	r1, r3, #2
 800111c:	683b      	ldr	r3, [r7, #0]
 800111e:	1cda      	adds	r2, r3, #3
 8001120:	6b7b      	ldr	r3, [r7, #52]	; 0x34
 8001122:	f8b3 3058 	ldrh.w	r3, [r3, #88]	; 0x58
 8001126:	4608      	mov	r0, r1
 8001128:	4611      	mov	r1, r2
 800112a:	461a      	mov	r2, r3
 800112c:	f7ff f93e 	bl	80003ac <pack12>
            break;
 8001130:	f001 bfb2 	b.w	8003098 <build_response+0x2b74>
        case 0x13U: /* Telemetry Group 20 */
            pack12(&data[0], &data[1], t->hv_or);
 8001134:	683b      	ldr	r3, [r7, #0]
 8001136:	1c5a      	adds	r2, r3, #1
 8001138:	6b7b      	ldr	r3, [r7, #52]	; 0x34
 800113a:	f8b3 305a 	ldrh.w	r3, [r3, #90]	; 0x5a
 800113e:	6838      	ldr	r0, [r7, #0]
 8001140:	4611      	mov	r1, r2
 8001142:	461a      	mov	r2, r3
 8001144:	f7ff f932 	bl	80003ac <pack12>
            pack12(&data[2], &data[3], t->mb_sp_imon);
 8001148:	683b      	ldr	r3, [r7, #0]
 800114a:	1c99      	adds	r1, r3, #2
 800114c:	683b      	ldr	r3, [r7, #0]
 800114e:	1cda      	adds	r2, r3, #3
 8001150:	6b7b      	ldr	r3, [r7, #52]	; 0x34
 8001152:	f8b3 305c 	ldrh.w	r3, [r3, #92]	; 0x5c
 8001156:	4608      	mov	r0, r1
 8001158:	4611      	mov	r1, r2
 800115a:	461a      	mov	r2, r3
 800115c:	f7ff f926 	bl	80003ac <pack12>
            break;
 8001160:	f001 bf9a 	b.w	8003098 <build_response+0x2b74>
        case 0x14U: /* Telemetry Group 21 */
            pack12(&data[0], &data[1], t->temp0);
 8001164:	683b      	ldr	r3, [r7, #0]
 8001166:	1c5a      	adds	r2, r3, #1
 8001168:	6b7b      	ldr	r3, [r7, #52]	; 0x34
 800116a:	f8b3 305e 	ldrh.w	r3, [r3, #94]	; 0x5e
 800116e:	6838      	ldr	r0, [r7, #0]
 8001170:	4611      	mov	r1, r2
 8001172:	461a      	mov	r2, r3
 8001174:	f7ff f91a 	bl	80003ac <pack12>
            pack12(&data[2], &data[3], t->temp1);
 8001178:	683b      	ldr	r3, [r7, #0]
 800117a:	1c99      	adds	r1, r3, #2
 800117c:	683b      	ldr	r3, [r7, #0]
 800117e:	1cda      	adds	r2, r3, #3
 8001180:	6b7b      	ldr	r3, [r7, #52]	; 0x34
 8001182:	f8b3 3060 	ldrh.w	r3, [r3, #96]	; 0x60
 8001186:	4608      	mov	r0, r1
 8001188:	4611      	mov	r1, r2
 800118a:	461a      	mov	r2, r3
 800118c:	f7ff f90e 	bl	80003ac <pack12>
            pack12(&data[4], &data[5], t->temp2);
 8001190:	683b      	ldr	r3, [r7, #0]
 8001192:	1d19      	adds	r1, r3, #4
 8001194:	683b      	ldr	r3, [r7, #0]
 8001196:	1d5a      	adds	r2, r3, #5
 8001198:	6b7b      	ldr	r3, [r7, #52]	; 0x34
 800119a:	f8b3 3062 	ldrh.w	r3, [r3, #98]	; 0x62
 800119e:	4608      	mov	r0, r1
 80011a0:	4611      	mov	r1, r2
 80011a2:	461a      	mov	r2, r3
 80011a4:	f7ff f902 	bl	80003ac <pack12>
            break;
 80011a8:	f001 bf76 	b.w	8003098 <build_response+0x2b74>
        case 0x15U: /* Telemetry Group 22 */
            pack12(&data[0], &data[1], t->temp3);
 80011ac:	683b      	ldr	r3, [r7, #0]
 80011ae:	1c5a      	adds	r2, r3, #1
 80011b0:	6b7b      	ldr	r3, [r7, #52]	; 0x34
 80011b2:	f8b3 3064 	ldrh.w	r3, [r3, #100]	; 0x64
 80011b6:	6838      	ldr	r0, [r7, #0]
 80011b8:	4611      	mov	r1, r2
 80011ba:	461a      	mov	r2, r3
 80011bc:	f7ff f8f6 	bl	80003ac <pack12>
            pack12(&data[2], &data[3], t->temp4);
 80011c0:	683b      	ldr	r3, [r7, #0]
 80011c2:	1c99      	adds	r1, r3, #2
 80011c4:	683b      	ldr	r3, [r7, #0]
 80011c6:	1cda      	adds	r2, r3, #3
 80011c8:	6b7b      	ldr	r3, [r7, #52]	; 0x34
 80011ca:	f8b3 3066 	ldrh.w	r3, [r3, #102]	; 0x66
 80011ce:	4608      	mov	r0, r1
 80011d0:	4611      	mov	r1, r2
 80011d2:	461a      	mov	r2, r3
 80011d4:	f7ff f8ea 	bl	80003ac <pack12>
            pack12(&data[4], &data[5], t->temp5);
 80011d8:	683b      	ldr	r3, [r7, #0]
 80011da:	1d19      	adds	r1, r3, #4
 80011dc:	683b      	ldr	r3, [r7, #0]
 80011de:	1d5a      	adds	r2, r3, #5
 80011e0:	6b7b      	ldr	r3, [r7, #52]	; 0x34
 80011e2:	f8b3 3068 	ldrh.w	r3, [r3, #104]	; 0x68
 80011e6:	4608      	mov	r0, r1
 80011e8:	4611      	mov	r1, r2
 80011ea:	461a      	mov	r2, r3
 80011ec:	f7ff f8de 	bl	80003ac <pack12>
            break;
 80011f0:	f001 bf52 	b.w	8003098 <build_response+0x2b74>
        case 0x16U: /* Telemetry Group 23 */
            pack12(&data[0], &data[1], t->ex_temp0);
 80011f4:	683b      	ldr	r3, [r7, #0]
 80011f6:	1c5a      	adds	r2, r3, #1
 80011f8:	6b7b      	ldr	r3, [r7, #52]	; 0x34
 80011fa:	f8b3 306a 	ldrh.w	r3, [r3, #106]	; 0x6a
 80011fe:	6838      	ldr	r0, [r7, #0]
 8001200:	4611      	mov	r1, r2
 8001202:	461a      	mov	r2, r3
 8001204:	f7ff f8d2 	bl	80003ac <pack12>
            pack12(&data[2], &data[3], t->ex_temp1);
 8001208:	683b      	ldr	r3, [r7, #0]
 800120a:	1c99      	adds	r1, r3, #2
 800120c:	683b      	ldr	r3, [r7, #0]
 800120e:	1cda      	adds	r2, r3, #3
 8001210:	6b7b      	ldr	r3, [r7, #52]	; 0x34
 8001212:	f8b3 306c 	ldrh.w	r3, [r3, #108]	; 0x6c
 8001216:	4608      	mov	r0, r1
 8001218:	4611      	mov	r1, r2
 800121a:	461a      	mov	r2, r3
 800121c:	f7ff f8c6 	bl	80003ac <pack12>
            break;
 8001220:	f001 bf3a 	b.w	8003098 <build_response+0x2b74>
        case 0x17U: /* Telemetry Group 24 */
            pack12(&data[0], &data[1], t->lidar_a_12v);
 8001224:	683b      	ldr	r3, [r7, #0]
 8001226:	1c5a      	adds	r2, r3, #1
 8001228:	6b7b      	ldr	r3, [r7, #52]	; 0x34
 800122a:	f8b3 306e 	ldrh.w	r3, [r3, #110]	; 0x6e
 800122e:	6838      	ldr	r0, [r7, #0]
 8001230:	4611      	mov	r1, r2
 8001232:	461a      	mov	r2, r3
 8001234:	f7ff f8ba 	bl	80003ac <pack12>
            pack12(&data[2], &data[3], t->lidar_b_12v);
 8001238:	683b      	ldr	r3, [r7, #0]
 800123a:	1c99      	adds	r1, r3, #2
 800123c:	683b      	ldr	r3, [r7, #0]
 800123e:	1cda      	adds	r2, r3, #3
 8001240:	6b7b      	ldr	r3, [r7, #52]	; 0x34
 8001242:	f8b3 3070 	ldrh.w	r3, [r3, #112]	; 0x70
 8001246:	4608      	mov	r0, r1
 8001248:	4611      	mov	r1, r2
 800124a:	461a      	mov	r2, r3
 800124c:	f7ff f8ae 	bl	80003ac <pack12>
            break;
 8001250:	f001 bf22 	b.w	8003098 <build_response+0x2b74>
        case 0x18U: /* Telemetry Group 25 */
            pack12(&data[0], &data[1], t->sto_24v);
 8001254:	683b      	ldr	r3, [r7, #0]
 8001256:	1c5a      	adds	r2, r3, #1
 8001258:	6b7b      	ldr	r3, [r7, #52]	; 0x34
 800125a:	f8b3 3072 	ldrh.w	r3, [r3, #114]	; 0x72
 800125e:	6838      	ldr	r0, [r7, #0]
 8001260:	4611      	mov	r1, r2
 8001262:	461a      	mov	r2, r3
 8001264:	f7ff f8a2 	bl	80003ac <pack12>
            pack12(&data[2], &data[3], t->chg_hvil_out);
 8001268:	683b      	ldr	r3, [r7, #0]
 800126a:	1c99      	adds	r1, r3, #2
 800126c:	683b      	ldr	r3, [r7, #0]
 800126e:	1cda      	adds	r2, r3, #3
 8001270:	6b7b      	ldr	r3, [r7, #52]	; 0x34
 8001272:	f8b3 3074 	ldrh.w	r3, [r3, #116]	; 0x74
 8001276:	4608      	mov	r0, r1
 8001278:	4611      	mov	r1, r2
 800127a:	461a      	mov	r2, r3
 800127c:	f7ff f896 	bl	80003ac <pack12>
            break;
 8001280:	f001 bf0a 	b.w	8003098 <build_response+0x2b74>
        case 0x19U: /* Telemetry Group 26 */
            pack12(&data[0], &data[1], t->eth_2v5);
 8001284:	683b      	ldr	r3, [r7, #0]
 8001286:	1c5a      	adds	r2, r3, #1
 8001288:	6b7b      	ldr	r3, [r7, #52]	; 0x34
 800128a:	f8b3 3076 	ldrh.w	r3, [r3, #118]	; 0x76
 800128e:	6838      	ldr	r0, [r7, #0]
 8001290:	4611      	mov	r1, r2
 8001292:	461a      	mov	r2, r3
 8001294:	f7ff f88a 	bl	80003ac <pack12>
            pack12(&data[2], &data[3], t->eth_1v2);
 8001298:	683b      	ldr	r3, [r7, #0]
 800129a:	1c99      	adds	r1, r3, #2
 800129c:	683b      	ldr	r3, [r7, #0]
 800129e:	1cda      	adds	r2, r3, #3
 80012a0:	6b7b      	ldr	r3, [r7, #52]	; 0x34
 80012a2:	f8b3 3078 	ldrh.w	r3, [r3, #120]	; 0x78
 80012a6:	4608      	mov	r0, r1
 80012a8:	4611      	mov	r1, r2
 80012aa:	461a      	mov	r2, r3
 80012ac:	f7ff f87e 	bl	80003ac <pack12>
            break;
 80012b0:	f001 bef2 	b.w	8003098 <build_response+0x2b74>
        case 0x1AU: /* Telemetry Group 27 */
            pack12(&data[0], &data[1], t->ecat_3v3);
 80012b4:	683b      	ldr	r3, [r7, #0]
 80012b6:	1c5a      	adds	r2, r3, #1
 80012b8:	6b7b      	ldr	r3, [r7, #52]	; 0x34
 80012ba:	f8b3 307a 	ldrh.w	r3, [r3, #122]	; 0x7a
 80012be:	6838      	ldr	r0, [r7, #0]
 80012c0:	4611      	mov	r1, r2
 80012c2:	461a      	mov	r2, r3
 80012c4:	f7ff f872 	bl	80003ac <pack12>
            pack12(&data[2], &data[3], t->ecat_1v2);
 80012c8:	683b      	ldr	r3, [r7, #0]
 80012ca:	1c99      	adds	r1, r3, #2
 80012cc:	683b      	ldr	r3, [r7, #0]
 80012ce:	1cda      	adds	r2, r3, #3
 80012d0:	6b7b      	ldr	r3, [r7, #52]	; 0x34
 80012d2:	f8b3 307c 	ldrh.w	r3, [r3, #124]	; 0x7c
 80012d6:	4608      	mov	r0, r1
 80012d8:	4611      	mov	r1, r2
 80012da:	461a      	mov	r2, r3
 80012dc:	f7ff f866 	bl	80003ac <pack12>
            break;
 80012e0:	f001 beda 	b.w	8003098 <build_response+0x2b74>

        /* === STATUS BIT-MAPPED (0x1B-0x1E) === */
        case 0x1BU: /* COMP_PDG */
            { PMB_Status_t *st = &g_regs.status;
 80012e4:	4ba5      	ldr	r3, [pc, #660]	; (800157c <build_response+0x1058>)
 80012e6:	62fb      	str	r3, [r7, #44]	; 0x2c
              data[0] = st->comp_pdg[0];
 80012e8:	6afb      	ldr	r3, [r7, #44]	; 0x2c
 80012ea:	781a      	ldrb	r2, [r3, #0]
 80012ec:	683b      	ldr	r3, [r7, #0]
 80012ee:	701a      	strb	r2, [r3, #0]
              data[1] = st->comp_pdg[1];
 80012f0:	683b      	ldr	r3, [r7, #0]
 80012f2:	3301      	adds	r3, #1
 80012f4:	6afa      	ldr	r2, [r7, #44]	; 0x2c
 80012f6:	7852      	ldrb	r2, [r2, #1]
 80012f8:	701a      	strb	r2, [r3, #0]
              data[2] = st->comp_pdg[2];
 80012fa:	683b      	ldr	r3, [r7, #0]
 80012fc:	3302      	adds	r3, #2
 80012fe:	6afa      	ldr	r2, [r7, #44]	; 0x2c
 8001300:	7892      	ldrb	r2, [r2, #2]
 8001302:	701a      	strb	r2, [r3, #0]
            } break;
 8001304:	f001 bec8 	b.w	8003098 <build_response+0x2b74>
        case 0x1CU: /* PDG_FAULT_GRP1 */
            { PMB_Status_t *st = &g_regs.status;
 8001308:	4b9c      	ldr	r3, [pc, #624]	; (800157c <build_response+0x1058>)
 800130a:	62bb      	str	r3, [r7, #40]	; 0x28
              data[0] = st->pdg_fault_grp1[0];
 800130c:	6abb      	ldr	r3, [r7, #40]	; 0x28
 800130e:	78da      	ldrb	r2, [r3, #3]
 8001310:	683b      	ldr	r3, [r7, #0]
 8001312:	701a      	strb	r2, [r3, #0]
              data[1] = st->pdg_fault_grp1[1];
 8001314:	683b      	ldr	r3, [r7, #0]
 8001316:	3301      	adds	r3, #1
 8001318:	6aba      	ldr	r2, [r7, #40]	; 0x28
 800131a:	7912      	ldrb	r2, [r2, #4]
 800131c:	701a      	strb	r2, [r3, #0]
              data[2] = st->pdg_fault_grp1[2];
 800131e:	683b      	ldr	r3, [r7, #0]
 8001320:	3302      	adds	r3, #2
 8001322:	6aba      	ldr	r2, [r7, #40]	; 0x28
 8001324:	7952      	ldrb	r2, [r2, #5]
 8001326:	701a      	strb	r2, [r3, #0]
            } break;
 8001328:	f001 beb6 	b.w	8003098 <build_response+0x2b74>
        case 0x1DU: /* PDG_FAULT_GRP2 */
            { PMB_Status_t *st = &g_regs.status;
 800132c:	4b93      	ldr	r3, [pc, #588]	; (800157c <build_response+0x1058>)
 800132e:	627b      	str	r3, [r7, #36]	; 0x24
              data[0] = st->pdg_fault_grp2[0];
 8001330:	6a7b      	ldr	r3, [r7, #36]	; 0x24
 8001332:	799a      	ldrb	r2, [r3, #6]
 8001334:	683b      	ldr	r3, [r7, #0]
 8001336:	701a      	strb	r2, [r3, #0]
              data[1] = st->pdg_fault_grp2[1];
 8001338:	683b      	ldr	r3, [r7, #0]
 800133a:	3301      	adds	r3, #1
 800133c:	6a7a      	ldr	r2, [r7, #36]	; 0x24
 800133e:	79d2      	ldrb	r2, [r2, #7]
 8001340:	701a      	strb	r2, [r3, #0]
            } break;
 8001342:	f001 bea9 	b.w	8003098 <build_response+0x2b74>
        case 0x1EU: /* PDG_FAULT_GRP3 */
            { PMB_Status_t *st = &g_regs.status;
 8001346:	4b8d      	ldr	r3, [pc, #564]	; (800157c <build_response+0x1058>)
 8001348:	623b      	str	r3, [r7, #32]
              data[0] = st->pdg_fault_grp3[0];
 800134a:	6a3b      	ldr	r3, [r7, #32]
 800134c:	7a1a      	ldrb	r2, [r3, #8]
 800134e:	683b      	ldr	r3, [r7, #0]
 8001350:	701a      	strb	r2, [r3, #0]
              data[1] = st->pdg_fault_grp3[1];
 8001352:	683b      	ldr	r3, [r7, #0]
 8001354:	3301      	adds	r3, #1
 8001356:	6a3a      	ldr	r2, [r7, #32]
 8001358:	7a52      	ldrb	r2, [r2, #9]
 800135a:	701a      	strb	r2, [r3, #0]
            } break;
 800135c:	f001 be9c 	b.w	8003098 <build_response+0x2b74>

        /* === POWER ENABLE (0x1F-0x23) === */
        case 0x1FU:
            { PMB_PowerEnable_t *pe = &g_regs.pwr_enable;
 8001360:	4b87      	ldr	r3, [pc, #540]	; (8001580 <build_response+0x105c>)
 8001362:	61fb      	str	r3, [r7, #28]
              data[0] = pe->grp1;
 8001364:	69fb      	ldr	r3, [r7, #28]
 8001366:	781a      	ldrb	r2, [r3, #0]
 8001368:	683b      	ldr	r3, [r7, #0]
 800136a:	701a      	strb	r2, [r3, #0]
            } break;
 800136c:	f001 be94 	b.w	8003098 <build_response+0x2b74>
        case 0x20U:
            { PMB_PowerEnable_t *pe = &g_regs.pwr_enable;
 8001370:	4b83      	ldr	r3, [pc, #524]	; (8001580 <build_response+0x105c>)
 8001372:	61bb      	str	r3, [r7, #24]
              data[0] = pe->grp2[0];
 8001374:	69bb      	ldr	r3, [r7, #24]
 8001376:	785a      	ldrb	r2, [r3, #1]
 8001378:	683b      	ldr	r3, [r7, #0]
 800137a:	701a      	strb	r2, [r3, #0]
              data[1] = pe->grp2[1];
 800137c:	683b      	ldr	r3, [r7, #0]
 800137e:	3301      	adds	r3, #1
 8001380:	69ba      	ldr	r2, [r7, #24]
 8001382:	7892      	ldrb	r2, [r2, #2]
 8001384:	701a      	strb	r2, [r3, #0]
              data[2] = pe->grp2[2];
 8001386:	683b      	ldr	r3, [r7, #0]
 8001388:	3302      	adds	r3, #2
 800138a:	69ba      	ldr	r2, [r7, #24]
 800138c:	78d2      	ldrb	r2, [r2, #3]
 800138e:	701a      	strb	r2, [r3, #0]
            } break;
 8001390:	f001 be82 	b.w	8003098 <build_response+0x2b74>
        case 0x21U:
            { PMB_PowerEnable_t *pe = &g_regs.pwr_enable;
 8001394:	4b7a      	ldr	r3, [pc, #488]	; (8001580 <build_response+0x105c>)
 8001396:	617b      	str	r3, [r7, #20]
              data[0] = pe->grp3[0];
 8001398:	697b      	ldr	r3, [r7, #20]
 800139a:	791a      	ldrb	r2, [r3, #4]
 800139c:	683b      	ldr	r3, [r7, #0]
 800139e:	701a      	strb	r2, [r3, #0]
              data[1] = pe->grp3[1];
 80013a0:	683b      	ldr	r3, [r7, #0]
 80013a2:	3301      	adds	r3, #1
 80013a4:	697a      	ldr	r2, [r7, #20]
 80013a6:	7952      	ldrb	r2, [r2, #5]
 80013a8:	701a      	strb	r2, [r3, #0]
              data[2] = pe->grp3[2];
 80013aa:	683b      	ldr	r3, [r7, #0]
 80013ac:	3302      	adds	r3, #2
 80013ae:	697a      	ldr	r2, [r7, #20]
 80013b0:	7992      	ldrb	r2, [r2, #6]
 80013b2:	701a      	strb	r2, [r3, #0]
              data[3] = pe->grp3[3];
 80013b4:	683b      	ldr	r3, [r7, #0]
 80013b6:	3303      	adds	r3, #3
 80013b8:	697a      	ldr	r2, [r7, #20]
 80013ba:	79d2      	ldrb	r2, [r2, #7]
 80013bc:	701a      	strb	r2, [r3, #0]
            } break;
 80013be:	f001 be6b 	b.w	8003098 <build_response+0x2b74>
        case 0x22U:
            { PMB_PowerEnable_t *pe = &g_regs.pwr_enable;
 80013c2:	4b6f      	ldr	r3, [pc, #444]	; (8001580 <build_response+0x105c>)
 80013c4:	613b      	str	r3, [r7, #16]
              data[0] = pe->periph_inputs;
 80013c6:	693b      	ldr	r3, [r7, #16]
 80013c8:	7a1a      	ldrb	r2, [r3, #8]
 80013ca:	683b      	ldr	r3, [r7, #0]
 80013cc:	701a      	strb	r2, [r3, #0]
            } break;
 80013ce:	f001 be63 	b.w	8003098 <build_response+0x2b74>
        case 0x23U:
            { PMB_PowerEnable_t *pe = &g_regs.pwr_enable;
 80013d2:	4b6b      	ldr	r3, [pc, #428]	; (8001580 <build_response+0x105c>)
 80013d4:	60fb      	str	r3, [r7, #12]
              data[0] = pe->grp4[0];
 80013d6:	68fb      	ldr	r3, [r7, #12]
 80013d8:	7a5a      	ldrb	r2, [r3, #9]
 80013da:	683b      	ldr	r3, [r7, #0]
 80013dc:	701a      	strb	r2, [r3, #0]
              data[1] = pe->grp4[1];
 80013de:	683b      	ldr	r3, [r7, #0]
 80013e0:	3301      	adds	r3, #1
 80013e2:	68fa      	ldr	r2, [r7, #12]
 80013e4:	7a92      	ldrb	r2, [r2, #10]
 80013e6:	701a      	strb	r2, [r3, #0]
              data[2] = pe->grp4[2];
 80013e8:	683b      	ldr	r3, [r7, #0]
 80013ea:	3302      	adds	r3, #2
 80013ec:	68fa      	ldr	r2, [r7, #12]
 80013ee:	7ad2      	ldrb	r2, [r2, #11]
 80013f0:	701a      	strb	r2, [r3, #0]
            } break;
 80013f2:	f001 be51 	b.w	8003098 <build_response+0x2b74>

        /* === 16-BIT OFFSETS (0x30-0x4A) === */
        case 0x30U: pack16(&data[0],&data[1],(uint16_t)r->calib_offset.chg_curr_ofs);   pack16(&data[2],&data[3],(uint16_t)r->calib_offset.batt1_curr_ofs);   pack16(&data[4],&data[5],(uint16_t)r->calib_offset.batt2_curr_ofs);   break;
 80013f6:	683b      	ldr	r3, [r7, #0]
 80013f8:	1c5a      	adds	r2, r3, #1
 80013fa:	6b3b      	ldr	r3, [r7, #48]	; 0x30
 80013fc:	f8b3 3094 	ldrh.w	r3, [r3, #148]	; 0x94
 8001400:	b29b      	uxth	r3, r3
 8001402:	6838      	ldr	r0, [r7, #0]
 8001404:	4611      	mov	r1, r2
 8001406:	461a      	mov	r2, r3
 8001408:	f7fe ffea 	bl	80003e0 <pack16>
 800140c:	683b      	ldr	r3, [r7, #0]
 800140e:	1c99      	adds	r1, r3, #2
 8001410:	683b      	ldr	r3, [r7, #0]
 8001412:	1cda      	adds	r2, r3, #3
 8001414:	6b3b      	ldr	r3, [r7, #48]	; 0x30
 8001416:	f8b3 3096 	ldrh.w	r3, [r3, #150]	; 0x96
 800141a:	b29b      	uxth	r3, r3
 800141c:	4608      	mov	r0, r1
 800141e:	4611      	mov	r1, r2
 8001420:	461a      	mov	r2, r3
 8001422:	f7fe ffdd 	bl	80003e0 <pack16>
 8001426:	683b      	ldr	r3, [r7, #0]
 8001428:	1d19      	adds	r1, r3, #4
 800142a:	683b      	ldr	r3, [r7, #0]
 800142c:	1d5a      	adds	r2, r3, #5
 800142e:	6b3b      	ldr	r3, [r7, #48]	; 0x30
 8001430:	f8b3 3098 	ldrh.w	r3, [r3, #152]	; 0x98
 8001434:	b29b      	uxth	r3, r3
 8001436:	4608      	mov	r0, r1
 8001438:	4611      	mov	r1, r2
 800143a:	461a      	mov	r2, r3
 800143c:	f7fe ffd0 	bl	80003e0 <pack16>
 8001440:	f001 be2a 	b.w	8003098 <build_response+0x2b74>
        case 0x31U: pack16(&data[0],&data[1],(uint16_t)r->calib_offset.ll_imon_ofs);    pack16(&data[2],&data[3],(uint16_t)r->calib_offset.rl_imon_ofs);    pack16(&data[4],&data[5],(uint16_t)r->calib_offset.la_imon_ofs);    break;
 8001444:	683b      	ldr	r3, [r7, #0]
 8001446:	1c5a      	adds	r2, r3, #1
 8001448:	6b3b      	ldr	r3, [r7, #48]	; 0x30
 800144a:	f8b3 309a 	ldrh.w	r3, [r3, #154]	; 0x9a
 800144e:	b29b      	uxth	r3, r3
 8001450:	6838      	ldr	r0, [r7, #0]
 8001452:	4611      	mov	r1, r2
 8001454:	461a      	mov	r2, r3
 8001456:	f7fe ffc3 	bl	80003e0 <pack16>
 800145a:	683b      	ldr	r3, [r7, #0]
 800145c:	1c99      	adds	r1, r3, #2
 800145e:	683b      	ldr	r3, [r7, #0]
 8001460:	1cda      	adds	r2, r3, #3
 8001462:	6b3b      	ldr	r3, [r7, #48]	; 0x30
 8001464:	f8b3 309c 	ldrh.w	r3, [r3, #156]	; 0x9c
 8001468:	b29b      	uxth	r3, r3
 800146a:	4608      	mov	r0, r1
 800146c:	4611      	mov	r1, r2
 800146e:	461a      	mov	r2, r3
 8001470:	f7fe ffb6 	bl	80003e0 <pack16>
 8001474:	683b      	ldr	r3, [r7, #0]
 8001476:	1d19      	adds	r1, r3, #4
 8001478:	683b      	ldr	r3, [r7, #0]
 800147a:	1d5a      	adds	r2, r3, #5
 800147c:	6b3b      	ldr	r3, [r7, #48]	; 0x30
 800147e:	f8b3 309e 	ldrh.w	r3, [r3, #158]	; 0x9e
 8001482:	b29b      	uxth	r3, r3
 8001484:	4608      	mov	r0, r1
 8001486:	4611      	mov	r1, r2
 8001488:	461a      	mov	r2, r3
 800148a:	f7fe ffa9 	bl	80003e0 <pack16>
 800148e:	f001 be03 	b.w	8003098 <build_response+0x2b74>
        case 0x32U: pack16(&data[0],&data[1],(uint16_t)r->calib_offset.ra_imon_ofs);    pack16(&data[2],&data[3],(uint16_t)r->calib_offset.tr_imon_ofs);    pack16(&data[4],&data[5],(uint16_t)r->calib_offset.chg_in_ofs);    break;
 8001492:	683b      	ldr	r3, [r7, #0]
 8001494:	1c5a      	adds	r2, r3, #1
 8001496:	6b3b      	ldr	r3, [r7, #48]	; 0x30
 8001498:	f8b3 30a0 	ldrh.w	r3, [r3, #160]	; 0xa0
 800149c:	b29b      	uxth	r3, r3
 800149e:	6838      	ldr	r0, [r7, #0]
 80014a0:	4611      	mov	r1, r2
 80014a2:	461a      	mov	r2, r3
 80014a4:	f7fe ff9c 	bl	80003e0 <pack16>
 80014a8:	683b      	ldr	r3, [r7, #0]
 80014aa:	1c99      	adds	r1, r3, #2
 80014ac:	683b      	ldr	r3, [r7, #0]
 80014ae:	1cda      	adds	r2, r3, #3
 80014b0:	6b3b      	ldr	r3, [r7, #48]	; 0x30
 80014b2:	f8b3 30a2 	ldrh.w	r3, [r3, #162]	; 0xa2
 80014b6:	b29b      	uxth	r3, r3
 80014b8:	4608      	mov	r0, r1
 80014ba:	4611      	mov	r1, r2
 80014bc:	461a      	mov	r2, r3
 80014be:	f7fe ff8f 	bl	80003e0 <pack16>
 80014c2:	683b      	ldr	r3, [r7, #0]
 80014c4:	1d19      	adds	r1, r3, #4
 80014c6:	683b      	ldr	r3, [r7, #0]
 80014c8:	1d5a      	adds	r2, r3, #5
 80014ca:	6b3b      	ldr	r3, [r7, #48]	; 0x30
 80014cc:	f8b3 30a4 	ldrh.w	r3, [r3, #164]	; 0xa4
 80014d0:	b29b      	uxth	r3, r3
 80014d2:	4608      	mov	r0, r1
 80014d4:	4611      	mov	r1, r2
 80014d6:	461a      	mov	r2, r3
 80014d8:	f7fe ff82 	bl	80003e0 <pack16>
 80014dc:	f001 bddc 	b.w	8003098 <build_response+0x2b74>
        case 0x33U: pack16(&data[0],&data[1],(uint16_t)r->calib_offset.hv_ofs);         pack16(&data[2],&data[3],(uint16_t)r->calib_offset.batt1_in_ofs);   pack16(&data[4],&data[5],(uint16_t)r->calib_offset.batt2_in_ofs);   break;
 80014e0:	683b      	ldr	r3, [r7, #0]
 80014e2:	1c5a      	adds	r2, r3, #1
 80014e4:	6b3b      	ldr	r3, [r7, #48]	; 0x30
 80014e6:	f8b3 30a6 	ldrh.w	r3, [r3, #166]	; 0xa6
 80014ea:	b29b      	uxth	r3, r3
 80014ec:	6838      	ldr	r0, [r7, #0]
 80014ee:	4611      	mov	r1, r2
 80014f0:	461a      	mov	r2, r3
 80014f2:	f7fe ff75 	bl	80003e0 <pack16>
 80014f6:	683b      	ldr	r3, [r7, #0]
 80014f8:	1c99      	adds	r1, r3, #2
 80014fa:	683b      	ldr	r3, [r7, #0]
 80014fc:	1cda      	adds	r2, r3, #3
 80014fe:	6b3b      	ldr	r3, [r7, #48]	; 0x30
 8001500:	f8b3 30a8 	ldrh.w	r3, [r3, #168]	; 0xa8
 8001504:	b29b      	uxth	r3, r3
 8001506:	4608      	mov	r0, r1
 8001508:	4611      	mov	r1, r2
 800150a:	461a      	mov	r2, r3
 800150c:	f7fe ff68 	bl	80003e0 <pack16>
 8001510:	683b      	ldr	r3, [r7, #0]
 8001512:	1d19      	adds	r1, r3, #4
 8001514:	683b      	ldr	r3, [r7, #0]
 8001516:	1d5a      	adds	r2, r3, #5
 8001518:	6b3b      	ldr	r3, [r7, #48]	; 0x30
 800151a:	f8b3 30aa 	ldrh.w	r3, [r3, #170]	; 0xaa
 800151e:	b29b      	uxth	r3, r3
 8001520:	4608      	mov	r0, r1
 8001522:	4611      	mov	r1, r2
 8001524:	461a      	mov	r2, r3
 8001526:	f7fe ff5b 	bl	80003e0 <pack16>
 800152a:	f001 bdb5 	b.w	8003098 <build_response+0x2b74>
        case 0x34U: pack16(&data[0],&data[1],(uint16_t)r->calib_offset.nk_imon_ofs);    pack16(&data[2],&data[3],(uint16_t)r->calib_offset.mot_bus_ofs);    pack16(&data[4],&data[5],(uint16_t)r->calib_offset.chg_hv_ofs);    break;
 800152e:	683b      	ldr	r3, [r7, #0]
 8001530:	1c5a      	adds	r2, r3, #1
 8001532:	6b3b      	ldr	r3, [r7, #48]	; 0x30
 8001534:	f8b3 30ac 	ldrh.w	r3, [r3, #172]	; 0xac
 8001538:	b29b      	uxth	r3, r3
 800153a:	6838      	ldr	r0, [r7, #0]
 800153c:	4611      	mov	r1, r2
 800153e:	461a      	mov	r2, r3
 8001540:	f7fe ff4e 	bl	80003e0 <pack16>
 8001544:	683b      	ldr	r3, [r7, #0]
 8001546:	1c99      	adds	r1, r3, #2
 8001548:	683b      	ldr	r3, [r7, #0]
 800154a:	1cda      	adds	r2, r3, #3
 800154c:	6b3b      	ldr	r3, [r7, #48]	; 0x30
 800154e:	f8b3 30ae 	ldrh.w	r3, [r3, #174]	; 0xae
 8001552:	b29b      	uxth	r3, r3
 8001554:	4608      	mov	r0, r1
 8001556:	4611      	mov	r1, r2
 8001558:	461a      	mov	r2, r3
 800155a:	f7fe ff41 	bl	80003e0 <pack16>
 800155e:	683b      	ldr	r3, [r7, #0]
 8001560:	1d19      	adds	r1, r3, #4
 8001562:	683b      	ldr	r3, [r7, #0]
 8001564:	1d5a      	adds	r2, r3, #5
 8001566:	6b3b      	ldr	r3, [r7, #48]	; 0x30
 8001568:	f8b3 30b0 	ldrh.w	r3, [r3, #176]	; 0xb0
 800156c:	b29b      	uxth	r3, r3
 800156e:	4608      	mov	r0, r1
 8001570:	4611      	mov	r1, r2
 8001572:	461a      	mov	r2, r3
 8001574:	f7fe ff34 	bl	80003e0 <pack16>
 8001578:	f001 bd8e 	b.w	8003098 <build_response+0x2b74>
 800157c:	1ffe8a2e 	.word	0x1ffe8a2e
 8001580:	1ffe8a38 	.word	0x1ffe8a38
        case 0x35U: pack16(&data[0],&data[1],(uint16_t)r->calib_offset.user_hv_ofs);    pack16(&data[2],&data[3],(uint16_t)r->calib_offset.user_hv_curr_ofs); break;
 8001584:	683b      	ldr	r3, [r7, #0]
 8001586:	1c5a      	adds	r2, r3, #1
 8001588:	6b3b      	ldr	r3, [r7, #48]	; 0x30
 800158a:	f8b3 30b2 	ldrh.w	r3, [r3, #178]	; 0xb2
 800158e:	b29b      	uxth	r3, r3
 8001590:	6838      	ldr	r0, [r7, #0]
 8001592:	4611      	mov	r1, r2
 8001594:	461a      	mov	r2, r3
 8001596:	f7fe ff23 	bl	80003e0 <pack16>
 800159a:	683b      	ldr	r3, [r7, #0]
 800159c:	1c99      	adds	r1, r3, #2
 800159e:	683b      	ldr	r3, [r7, #0]
 80015a0:	1cda      	adds	r2, r3, #3
 80015a2:	6b3b      	ldr	r3, [r7, #48]	; 0x30
 80015a4:	f8b3 30b4 	ldrh.w	r3, [r3, #180]	; 0xb4
 80015a8:	b29b      	uxth	r3, r3
 80015aa:	4608      	mov	r0, r1
 80015ac:	4611      	mov	r1, r2
 80015ae:	461a      	mov	r2, r3
 80015b0:	f7fe ff16 	bl	80003e0 <pack16>
 80015b4:	f001 bd70 	b.w	8003098 <build_response+0x2b74>
        case 0x36U: pack16(&data[0],&data[1],(uint16_t)r->calib_offset.pc_24v_ofs);     pack16(&data[2],&data[3],(uint16_t)r->calib_offset.pc_24v_imon_ofs); break;
 80015b8:	683b      	ldr	r3, [r7, #0]
 80015ba:	1c5a      	adds	r2, r3, #1
 80015bc:	6b3b      	ldr	r3, [r7, #48]	; 0x30
 80015be:	f8b3 30b6 	ldrh.w	r3, [r3, #182]	; 0xb6
 80015c2:	b29b      	uxth	r3, r3
 80015c4:	6838      	ldr	r0, [r7, #0]
 80015c6:	4611      	mov	r1, r2
 80015c8:	461a      	mov	r2, r3
 80015ca:	f7fe ff09 	bl	80003e0 <pack16>
 80015ce:	683b      	ldr	r3, [r7, #0]
 80015d0:	1c99      	adds	r1, r3, #2
 80015d2:	683b      	ldr	r3, [r7, #0]
 80015d4:	1cda      	adds	r2, r3, #3
 80015d6:	6b3b      	ldr	r3, [r7, #48]	; 0x30
 80015d8:	f8b3 30b8 	ldrh.w	r3, [r3, #184]	; 0xb8
 80015dc:	b29b      	uxth	r3, r3
 80015de:	4608      	mov	r0, r1
 80015e0:	4611      	mov	r1, r2
 80015e2:	461a      	mov	r2, r3
 80015e4:	f7fe fefc 	bl	80003e0 <pack16>
 80015e8:	f001 bd56 	b.w	8003098 <build_response+0x2b74>
        case 0x37U: pack16(&data[0],&data[1],(uint16_t)r->calib_offset.user_24v_ofs);   pack16(&data[2],&data[3],(uint16_t)r->calib_offset.user_24v_imon_ofs); break;
 80015ec:	683b      	ldr	r3, [r7, #0]
 80015ee:	1c5a      	adds	r2, r3, #1
 80015f0:	6b3b      	ldr	r3, [r7, #48]	; 0x30
 80015f2:	f8b3 30ba 	ldrh.w	r3, [r3, #186]	; 0xba
 80015f6:	b29b      	uxth	r3, r3
 80015f8:	6838      	ldr	r0, [r7, #0]
 80015fa:	4611      	mov	r1, r2
 80015fc:	461a      	mov	r2, r3
 80015fe:	f7fe feef 	bl	80003e0 <pack16>
 8001602:	683b      	ldr	r3, [r7, #0]
 8001604:	1c99      	adds	r1, r3, #2
 8001606:	683b      	ldr	r3, [r7, #0]
 8001608:	1cda      	adds	r2, r3, #3
 800160a:	6b3b      	ldr	r3, [r7, #48]	; 0x30
 800160c:	f8b3 30bc 	ldrh.w	r3, [r3, #188]	; 0xbc
 8001610:	b29b      	uxth	r3, r3
 8001612:	4608      	mov	r0, r1
 8001614:	4611      	mov	r1, r2
 8001616:	461a      	mov	r2, r3
 8001618:	f7fe fee2 	bl	80003e0 <pack16>
 800161c:	f001 bd3c 	b.w	8003098 <build_response+0x2b74>
        case 0x38U: pack16(&data[0],&data[1],(uint16_t)r->calib_offset.pc_a_12v_ofs);   pack16(&data[2],&data[3],(uint16_t)r->calib_offset.pc_a_12v_imon_ofs); break;
 8001620:	683b      	ldr	r3, [r7, #0]
 8001622:	1c5a      	adds	r2, r3, #1
 8001624:	6b3b      	ldr	r3, [r7, #48]	; 0x30
 8001626:	f8b3 30be 	ldrh.w	r3, [r3, #190]	; 0xbe
 800162a:	b29b      	uxth	r3, r3
 800162c:	6838      	ldr	r0, [r7, #0]
 800162e:	4611      	mov	r1, r2
 8001630:	461a      	mov	r2, r3
 8001632:	f7fe fed5 	bl	80003e0 <pack16>
 8001636:	683b      	ldr	r3, [r7, #0]
 8001638:	1c99      	adds	r1, r3, #2
 800163a:	683b      	ldr	r3, [r7, #0]
 800163c:	1cda      	adds	r2, r3, #3
 800163e:	6b3b      	ldr	r3, [r7, #48]	; 0x30
 8001640:	f8b3 30c0 	ldrh.w	r3, [r3, #192]	; 0xc0
 8001644:	b29b      	uxth	r3, r3
 8001646:	4608      	mov	r0, r1
 8001648:	4611      	mov	r1, r2
 800164a:	461a      	mov	r2, r3
 800164c:	f7fe fec8 	bl	80003e0 <pack16>
 8001650:	f001 bd22 	b.w	8003098 <build_response+0x2b74>
        case 0x39U: pack16(&data[0],&data[1],(uint16_t)r->calib_offset.pc_b_12v_ofs);   pack16(&data[2],&data[3],(uint16_t)r->calib_offset.pc_b_12v_imon_ofs); break;
 8001654:	683b      	ldr	r3, [r7, #0]
 8001656:	1c5a      	adds	r2, r3, #1
 8001658:	6b3b      	ldr	r3, [r7, #48]	; 0x30
 800165a:	f8b3 30c2 	ldrh.w	r3, [r3, #194]	; 0xc2
 800165e:	b29b      	uxth	r3, r3
 8001660:	6838      	ldr	r0, [r7, #0]
 8001662:	4611      	mov	r1, r2
 8001664:	461a      	mov	r2, r3
 8001666:	f7fe febb 	bl	80003e0 <pack16>
 800166a:	683b      	ldr	r3, [r7, #0]
 800166c:	1c99      	adds	r1, r3, #2
 800166e:	683b      	ldr	r3, [r7, #0]
 8001670:	1cda      	adds	r2, r3, #3
 8001672:	6b3b      	ldr	r3, [r7, #48]	; 0x30
 8001674:	f8b3 30c4 	ldrh.w	r3, [r3, #196]	; 0xc4
 8001678:	b29b      	uxth	r3, r3
 800167a:	4608      	mov	r0, r1
 800167c:	4611      	mov	r1, r2
 800167e:	461a      	mov	r2, r3
 8001680:	f7fe feae 	bl	80003e0 <pack16>
 8001684:	f001 bd08 	b.w	8003098 <build_response+0x2b74>
        case 0x3AU: pack16(&data[0],&data[1],(uint16_t)r->calib_offset.v24_imon0_ofs);  pack16(&data[2],&data[3],(uint16_t)r->calib_offset.v24_imon1_ofs);  pack16(&data[4],&data[5],(uint16_t)r->calib_offset.v24_imon2_ofs);  break;
 8001688:	683b      	ldr	r3, [r7, #0]
 800168a:	1c5a      	adds	r2, r3, #1
 800168c:	6b3b      	ldr	r3, [r7, #48]	; 0x30
 800168e:	f8b3 30c6 	ldrh.w	r3, [r3, #198]	; 0xc6
 8001692:	b29b      	uxth	r3, r3
 8001694:	6838      	ldr	r0, [r7, #0]
 8001696:	4611      	mov	r1, r2
 8001698:	461a      	mov	r2, r3
 800169a:	f7fe fea1 	bl	80003e0 <pack16>
 800169e:	683b      	ldr	r3, [r7, #0]
 80016a0:	1c99      	adds	r1, r3, #2
 80016a2:	683b      	ldr	r3, [r7, #0]
 80016a4:	1cda      	adds	r2, r3, #3
 80016a6:	6b3b      	ldr	r3, [r7, #48]	; 0x30
 80016a8:	f8b3 30c8 	ldrh.w	r3, [r3, #200]	; 0xc8
 80016ac:	b29b      	uxth	r3, r3
 80016ae:	4608      	mov	r0, r1
 80016b0:	4611      	mov	r1, r2
 80016b2:	461a      	mov	r2, r3
 80016b4:	f7fe fe94 	bl	80003e0 <pack16>
 80016b8:	683b      	ldr	r3, [r7, #0]
 80016ba:	1d19      	adds	r1, r3, #4
 80016bc:	683b      	ldr	r3, [r7, #0]
 80016be:	1d5a      	adds	r2, r3, #5
 80016c0:	6b3b      	ldr	r3, [r7, #48]	; 0x30
 80016c2:	f8b3 30ca 	ldrh.w	r3, [r3, #202]	; 0xca
 80016c6:	b29b      	uxth	r3, r3
 80016c8:	4608      	mov	r0, r1
 80016ca:	4611      	mov	r1, r2
 80016cc:	461a      	mov	r2, r3
 80016ce:	f7fe fe87 	bl	80003e0 <pack16>
 80016d2:	f001 bce1 	b.w	8003098 <build_response+0x2b74>
        case 0x3BU: pack16(&data[0],&data[1],(uint16_t)r->calib_offset.v12_imon0_ofs);  pack16(&data[2],&data[3],(uint16_t)r->calib_offset.v12_imon1_ofs);  pack16(&data[4],&data[5],(uint16_t)r->calib_offset.v12_imon2_ofs);  break;
 80016d6:	683b      	ldr	r3, [r7, #0]
 80016d8:	1c5a      	adds	r2, r3, #1
 80016da:	6b3b      	ldr	r3, [r7, #48]	; 0x30
 80016dc:	f8b3 30cc 	ldrh.w	r3, [r3, #204]	; 0xcc
 80016e0:	b29b      	uxth	r3, r3
 80016e2:	6838      	ldr	r0, [r7, #0]
 80016e4:	4611      	mov	r1, r2
 80016e6:	461a      	mov	r2, r3
 80016e8:	f7fe fe7a 	bl	80003e0 <pack16>
 80016ec:	683b      	ldr	r3, [r7, #0]
 80016ee:	1c99      	adds	r1, r3, #2
 80016f0:	683b      	ldr	r3, [r7, #0]
 80016f2:	1cda      	adds	r2, r3, #3
 80016f4:	6b3b      	ldr	r3, [r7, #48]	; 0x30
 80016f6:	f8b3 30ce 	ldrh.w	r3, [r3, #206]	; 0xce
 80016fa:	b29b      	uxth	r3, r3
 80016fc:	4608      	mov	r0, r1
 80016fe:	4611      	mov	r1, r2
 8001700:	461a      	mov	r2, r3
 8001702:	f7fe fe6d 	bl	80003e0 <pack16>
 8001706:	683b      	ldr	r3, [r7, #0]
 8001708:	1d19      	adds	r1, r3, #4
 800170a:	683b      	ldr	r3, [r7, #0]
 800170c:	1d5a      	adds	r2, r3, #5
 800170e:	6b3b      	ldr	r3, [r7, #48]	; 0x30
 8001710:	f8b3 30d0 	ldrh.w	r3, [r3, #208]	; 0xd0
 8001714:	b29b      	uxth	r3, r3
 8001716:	4608      	mov	r0, r1
 8001718:	4611      	mov	r1, r2
 800171a:	461a      	mov	r2, r3
 800171c:	f7fe fe60 	bl	80003e0 <pack16>
 8001720:	f001 bcba 	b.w	8003098 <build_response+0x2b74>
        case 0x3CU: pack16(&data[0],&data[1],(uint16_t)r->calib_offset.v24_ofs);        pack16(&data[2],&data[3],(uint16_t)r->calib_offset.v12_ofs);        break;
 8001724:	683b      	ldr	r3, [r7, #0]
 8001726:	1c5a      	adds	r2, r3, #1
 8001728:	6b3b      	ldr	r3, [r7, #48]	; 0x30
 800172a:	f8b3 30d2 	ldrh.w	r3, [r3, #210]	; 0xd2
 800172e:	b29b      	uxth	r3, r3
 8001730:	6838      	ldr	r0, [r7, #0]
 8001732:	4611      	mov	r1, r2
 8001734:	461a      	mov	r2, r3
 8001736:	f7fe fe53 	bl	80003e0 <pack16>
 800173a:	683b      	ldr	r3, [r7, #0]
 800173c:	1c99      	adds	r1, r3, #2
 800173e:	683b      	ldr	r3, [r7, #0]
 8001740:	1cda      	adds	r2, r3, #3
 8001742:	6b3b      	ldr	r3, [r7, #48]	; 0x30
 8001744:	f8b3 30d4 	ldrh.w	r3, [r3, #212]	; 0xd4
 8001748:	b29b      	uxth	r3, r3
 800174a:	4608      	mov	r0, r1
 800174c:	4611      	mov	r1, r2
 800174e:	461a      	mov	r2, r3
 8001750:	f7fe fe46 	bl	80003e0 <pack16>
 8001754:	f001 bca0 	b.w	8003098 <build_response+0x2b74>
        case 0x3DU: pack16(&data[0],&data[1],(uint16_t)r->calib_offset.v5_ofs);         pack16(&data[2],&data[3],(uint16_t)r->calib_offset.v5_curr_ofs);    break;
 8001758:	683b      	ldr	r3, [r7, #0]
 800175a:	1c5a      	adds	r2, r3, #1
 800175c:	6b3b      	ldr	r3, [r7, #48]	; 0x30
 800175e:	f8b3 30d6 	ldrh.w	r3, [r3, #214]	; 0xd6
 8001762:	b29b      	uxth	r3, r3
 8001764:	6838      	ldr	r0, [r7, #0]
 8001766:	4611      	mov	r1, r2
 8001768:	461a      	mov	r2, r3
 800176a:	f7fe fe39 	bl	80003e0 <pack16>
 800176e:	683b      	ldr	r3, [r7, #0]
 8001770:	1c99      	adds	r1, r3, #2
 8001772:	683b      	ldr	r3, [r7, #0]
 8001774:	1cda      	adds	r2, r3, #3
 8001776:	6b3b      	ldr	r3, [r7, #48]	; 0x30
 8001778:	f8b3 30d8 	ldrh.w	r3, [r3, #216]	; 0xd8
 800177c:	b29b      	uxth	r3, r3
 800177e:	4608      	mov	r0, r1
 8001780:	4611      	mov	r1, r2
 8001782:	461a      	mov	r2, r3
 8001784:	f7fe fe2c 	bl	80003e0 <pack16>
 8001788:	f001 bc86 	b.w	8003098 <build_response+0x2b74>
        case 0x3EU: pack16(&data[0],&data[1],(uint16_t)r->calib_offset.v3v3_ofs);       pack16(&data[2],&data[3],(uint16_t)r->calib_offset.v3v3_curr_ofs);  break;
 800178c:	683b      	ldr	r3, [r7, #0]
 800178e:	1c5a      	adds	r2, r3, #1
 8001790:	6b3b      	ldr	r3, [r7, #48]	; 0x30
 8001792:	f8b3 30da 	ldrh.w	r3, [r3, #218]	; 0xda
 8001796:	b29b      	uxth	r3, r3
 8001798:	6838      	ldr	r0, [r7, #0]
 800179a:	4611      	mov	r1, r2
 800179c:	461a      	mov	r2, r3
 800179e:	f7fe fe1f 	bl	80003e0 <pack16>
 80017a2:	683b      	ldr	r3, [r7, #0]
 80017a4:	1c99      	adds	r1, r3, #2
 80017a6:	683b      	ldr	r3, [r7, #0]
 80017a8:	1cda      	adds	r2, r3, #3
 80017aa:	6b3b      	ldr	r3, [r7, #48]	; 0x30
 80017ac:	f8b3 30dc 	ldrh.w	r3, [r3, #220]	; 0xdc
 80017b0:	b29b      	uxth	r3, r3
 80017b2:	4608      	mov	r0, r1
 80017b4:	4611      	mov	r1, r2
 80017b6:	461a      	mov	r2, r3
 80017b8:	f7fe fe12 	bl	80003e0 <pack16>
 80017bc:	f001 bc6c 	b.w	8003098 <build_response+0x2b74>
        case 0x3FU: pack16(&data[0],&data[1],(uint16_t)r->calib_offset.aux_24v_ofs);    pack16(&data[2],&data[3],(uint16_t)r->calib_offset.aux_24v_curr_ofs); break;
 80017c0:	683b      	ldr	r3, [r7, #0]
 80017c2:	1c5a      	adds	r2, r3, #1
 80017c4:	6b3b      	ldr	r3, [r7, #48]	; 0x30
 80017c6:	f8b3 30de 	ldrh.w	r3, [r3, #222]	; 0xde
 80017ca:	b29b      	uxth	r3, r3
 80017cc:	6838      	ldr	r0, [r7, #0]
 80017ce:	4611      	mov	r1, r2
 80017d0:	461a      	mov	r2, r3
 80017d2:	f7fe fe05 	bl	80003e0 <pack16>
 80017d6:	683b      	ldr	r3, [r7, #0]
 80017d8:	1c99      	adds	r1, r3, #2
 80017da:	683b      	ldr	r3, [r7, #0]
 80017dc:	1cda      	adds	r2, r3, #3
 80017de:	6b3b      	ldr	r3, [r7, #48]	; 0x30
 80017e0:	f8b3 30e0 	ldrh.w	r3, [r3, #224]	; 0xe0
 80017e4:	b29b      	uxth	r3, r3
 80017e6:	4608      	mov	r0, r1
 80017e8:	4611      	mov	r1, r2
 80017ea:	461a      	mov	r2, r3
 80017ec:	f7fe fdf8 	bl	80003e0 <pack16>
 80017f0:	f001 bc52 	b.w	8003098 <build_response+0x2b74>
        case 0x40U: pack16(&data[0],&data[1],(uint16_t)r->calib_offset.aux_12v_ofs);    pack16(&data[2],&data[3],(uint16_t)r->calib_offset.aux_12v_curr_ofs); break;
 80017f4:	683b      	ldr	r3, [r7, #0]
 80017f6:	1c5a      	adds	r2, r3, #1
 80017f8:	6b3b      	ldr	r3, [r7, #48]	; 0x30
 80017fa:	f8b3 30e2 	ldrh.w	r3, [r3, #226]	; 0xe2
 80017fe:	b29b      	uxth	r3, r3
 8001800:	6838      	ldr	r0, [r7, #0]
 8001802:	4611      	mov	r1, r2
 8001804:	461a      	mov	r2, r3
 8001806:	f7fe fdeb 	bl	80003e0 <pack16>
 800180a:	683b      	ldr	r3, [r7, #0]
 800180c:	1c99      	adds	r1, r3, #2
 800180e:	683b      	ldr	r3, [r7, #0]
 8001810:	1cda      	adds	r2, r3, #3
 8001812:	6b3b      	ldr	r3, [r7, #48]	; 0x30
 8001814:	f8b3 30e4 	ldrh.w	r3, [r3, #228]	; 0xe4
 8001818:	b29b      	uxth	r3, r3
 800181a:	4608      	mov	r0, r1
 800181c:	4611      	mov	r1, r2
 800181e:	461a      	mov	r2, r3
 8001820:	f7fe fdde 	bl	80003e0 <pack16>
 8001824:	f001 bc38 	b.w	8003098 <build_response+0x2b74>
        case 0x41U: pack16(&data[0],&data[1],(uint16_t)r->calib_offset.estop_rec_a_12v_ofs); pack16(&data[2],&data[3],(uint16_t)r->calib_offset.estop_rec_b_12v_ofs); break;
 8001828:	683b      	ldr	r3, [r7, #0]
 800182a:	1c5a      	adds	r2, r3, #1
 800182c:	6b3b      	ldr	r3, [r7, #48]	; 0x30
 800182e:	f8b3 30e6 	ldrh.w	r3, [r3, #230]	; 0xe6
 8001832:	b29b      	uxth	r3, r3
 8001834:	6838      	ldr	r0, [r7, #0]
 8001836:	4611      	mov	r1, r2
 8001838:	461a      	mov	r2, r3
 800183a:	f7fe fdd1 	bl	80003e0 <pack16>
 800183e:	683b      	ldr	r3, [r7, #0]
 8001840:	1c99      	adds	r1, r3, #2
 8001842:	683b      	ldr	r3, [r7, #0]
 8001844:	1cda      	adds	r2, r3, #3
 8001846:	6b3b      	ldr	r3, [r7, #48]	; 0x30
 8001848:	f8b3 30e8 	ldrh.w	r3, [r3, #232]	; 0xe8
 800184c:	b29b      	uxth	r3, r3
 800184e:	4608      	mov	r0, r1
 8001850:	4611      	mov	r1, r2
 8001852:	461a      	mov	r2, r3
 8001854:	f7fe fdc4 	bl	80003e0 <pack16>
 8001858:	f001 bc1e 	b.w	8003098 <build_response+0x2b74>
        case 0x42U: pack16(&data[0],&data[1],(uint16_t)r->calib_offset.v12_b_imon3_ofs); pack16(&data[2],&data[3],(uint16_t)r->calib_offset.v12_b_imon4_ofs); break;
 800185c:	683b      	ldr	r3, [r7, #0]
 800185e:	1c5a      	adds	r2, r3, #1
 8001860:	6b3b      	ldr	r3, [r7, #48]	; 0x30
 8001862:	f8b3 30ea 	ldrh.w	r3, [r3, #234]	; 0xea
 8001866:	b29b      	uxth	r3, r3
 8001868:	6838      	ldr	r0, [r7, #0]
 800186a:	4611      	mov	r1, r2
 800186c:	461a      	mov	r2, r3
 800186e:	f7fe fdb7 	bl	80003e0 <pack16>
 8001872:	683b      	ldr	r3, [r7, #0]
 8001874:	1c99      	adds	r1, r3, #2
 8001876:	683b      	ldr	r3, [r7, #0]
 8001878:	1cda      	adds	r2, r3, #3
 800187a:	6b3b      	ldr	r3, [r7, #48]	; 0x30
 800187c:	f8b3 30ec 	ldrh.w	r3, [r3, #236]	; 0xec
 8001880:	b29b      	uxth	r3, r3
 8001882:	4608      	mov	r0, r1
 8001884:	4611      	mov	r1, r2
 8001886:	461a      	mov	r2, r3
 8001888:	f7fe fdaa 	bl	80003e0 <pack16>
 800188c:	f001 bc04 	b.w	8003098 <build_response+0x2b74>
        case 0x43U: pack16(&data[0],&data[1],(uint16_t)r->calib_offset.hv_or_ofs);      pack16(&data[2],&data[3],(uint16_t)r->calib_offset.mb_sp_imon_ofs); break;
 8001890:	683b      	ldr	r3, [r7, #0]
 8001892:	1c5a      	adds	r2, r3, #1
 8001894:	6b3b      	ldr	r3, [r7, #48]	; 0x30
 8001896:	f8b3 30ee 	ldrh.w	r3, [r3, #238]	; 0xee
 800189a:	b29b      	uxth	r3, r3
 800189c:	6838      	ldr	r0, [r7, #0]
 800189e:	4611      	mov	r1, r2
 80018a0:	461a      	mov	r2, r3
 80018a2:	f7fe fd9d 	bl	80003e0 <pack16>
 80018a6:	683b      	ldr	r3, [r7, #0]
 80018a8:	1c99      	adds	r1, r3, #2
 80018aa:	683b      	ldr	r3, [r7, #0]
 80018ac:	1cda      	adds	r2, r3, #3
 80018ae:	6b3b      	ldr	r3, [r7, #48]	; 0x30
 80018b0:	f8b3 30f0 	ldrh.w	r3, [r3, #240]	; 0xf0
 80018b4:	b29b      	uxth	r3, r3
 80018b6:	4608      	mov	r0, r1
 80018b8:	4611      	mov	r1, r2
 80018ba:	461a      	mov	r2, r3
 80018bc:	f7fe fd90 	bl	80003e0 <pack16>
 80018c0:	f001 bbea 	b.w	8003098 <build_response+0x2b74>
        case 0x44U: pack16(&data[0],&data[1],(uint16_t)r->calib_offset.temp0_ofs);      pack16(&data[2],&data[3],(uint16_t)r->calib_offset.temp1_ofs);      pack16(&data[4],&data[5],(uint16_t)r->calib_offset.temp2_ofs);      break;
 80018c4:	683b      	ldr	r3, [r7, #0]
 80018c6:	1c5a      	adds	r2, r3, #1
 80018c8:	6b3b      	ldr	r3, [r7, #48]	; 0x30
 80018ca:	f8b3 30f2 	ldrh.w	r3, [r3, #242]	; 0xf2
 80018ce:	b29b      	uxth	r3, r3
 80018d0:	6838      	ldr	r0, [r7, #0]
 80018d2:	4611      	mov	r1, r2
 80018d4:	461a      	mov	r2, r3
 80018d6:	f7fe fd83 	bl	80003e0 <pack16>
 80018da:	683b      	ldr	r3, [r7, #0]
 80018dc:	1c99      	adds	r1, r3, #2
 80018de:	683b      	ldr	r3, [r7, #0]
 80018e0:	1cda      	adds	r2, r3, #3
 80018e2:	6b3b      	ldr	r3, [r7, #48]	; 0x30
 80018e4:	f8b3 30f4 	ldrh.w	r3, [r3, #244]	; 0xf4
 80018e8:	b29b      	uxth	r3, r3
 80018ea:	4608      	mov	r0, r1
 80018ec:	4611      	mov	r1, r2
 80018ee:	461a      	mov	r2, r3
 80018f0:	f7fe fd76 	bl	80003e0 <pack16>
 80018f4:	683b      	ldr	r3, [r7, #0]
 80018f6:	1d19      	adds	r1, r3, #4
 80018f8:	683b      	ldr	r3, [r7, #0]
 80018fa:	1d5a      	adds	r2, r3, #5
 80018fc:	6b3b      	ldr	r3, [r7, #48]	; 0x30
 80018fe:	f8b3 30f6 	ldrh.w	r3, [r3, #246]	; 0xf6
 8001902:	b29b      	uxth	r3, r3
 8001904:	4608      	mov	r0, r1
 8001906:	4611      	mov	r1, r2
 8001908:	461a      	mov	r2, r3
 800190a:	f7fe fd69 	bl	80003e0 <pack16>
 800190e:	f001 bbc3 	b.w	8003098 <build_response+0x2b74>
        case 0x45U: pack16(&data[0],&data[1],(uint16_t)r->calib_offset.temp3_ofs);      pack16(&data[2],&data[3],(uint16_t)r->calib_offset.temp4_ofs);      pack16(&data[4],&data[5],(uint16_t)r->calib_offset.temp5_ofs);      break;
 8001912:	683b      	ldr	r3, [r7, #0]
 8001914:	1c5a      	adds	r2, r3, #1
 8001916:	6b3b      	ldr	r3, [r7, #48]	; 0x30
 8001918:	f8b3 30f8 	ldrh.w	r3, [r3, #248]	; 0xf8
 800191c:	b29b      	uxth	r3, r3
 800191e:	6838      	ldr	r0, [r7, #0]
 8001920:	4611      	mov	r1, r2
 8001922:	461a      	mov	r2, r3
 8001924:	f7fe fd5c 	bl	80003e0 <pack16>
 8001928:	683b      	ldr	r3, [r7, #0]
 800192a:	1c99      	adds	r1, r3, #2
 800192c:	683b      	ldr	r3, [r7, #0]
 800192e:	1cda      	adds	r2, r3, #3
 8001930:	6b3b      	ldr	r3, [r7, #48]	; 0x30
 8001932:	f8b3 30fa 	ldrh.w	r3, [r3, #250]	; 0xfa
 8001936:	b29b      	uxth	r3, r3
 8001938:	4608      	mov	r0, r1
 800193a:	4611      	mov	r1, r2
 800193c:	461a      	mov	r2, r3
 800193e:	f7fe fd4f 	bl	80003e0 <pack16>
 8001942:	683b      	ldr	r3, [r7, #0]
 8001944:	1d19      	adds	r1, r3, #4
 8001946:	683b      	ldr	r3, [r7, #0]
 8001948:	1d5a      	adds	r2, r3, #5
 800194a:	6b3b      	ldr	r3, [r7, #48]	; 0x30
 800194c:	f8b3 30fc 	ldrh.w	r3, [r3, #252]	; 0xfc
 8001950:	b29b      	uxth	r3, r3
 8001952:	4608      	mov	r0, r1
 8001954:	4611      	mov	r1, r2
 8001956:	461a      	mov	r2, r3
 8001958:	f7fe fd42 	bl	80003e0 <pack16>
 800195c:	f001 bb9c 	b.w	8003098 <build_response+0x2b74>
        case 0x46U: pack16(&data[0],&data[1],(uint16_t)r->calib_offset.ex_temp0_ofs);   pack16(&data[2],&data[3],(uint16_t)r->calib_offset.ex_temp1_ofs);   break;
 8001960:	683b      	ldr	r3, [r7, #0]
 8001962:	1c5a      	adds	r2, r3, #1
 8001964:	6b3b      	ldr	r3, [r7, #48]	; 0x30
 8001966:	f8b3 30fe 	ldrh.w	r3, [r3, #254]	; 0xfe
 800196a:	b29b      	uxth	r3, r3
 800196c:	6838      	ldr	r0, [r7, #0]
 800196e:	4611      	mov	r1, r2
 8001970:	461a      	mov	r2, r3
 8001972:	f7fe fd35 	bl	80003e0 <pack16>
 8001976:	683b      	ldr	r3, [r7, #0]
 8001978:	1c99      	adds	r1, r3, #2
 800197a:	683b      	ldr	r3, [r7, #0]
 800197c:	1cda      	adds	r2, r3, #3
 800197e:	6b3b      	ldr	r3, [r7, #48]	; 0x30
 8001980:	f8b3 3100 	ldrh.w	r3, [r3, #256]	; 0x100
 8001984:	b29b      	uxth	r3, r3
 8001986:	4608      	mov	r0, r1
 8001988:	4611      	mov	r1, r2
 800198a:	461a      	mov	r2, r3
 800198c:	f7fe fd28 	bl	80003e0 <pack16>
 8001990:	f001 bb82 	b.w	8003098 <build_response+0x2b74>
        case 0x47U: pack16(&data[0],&data[1],(uint16_t)r->calib_offset.lidar_a_12v_ofs); pack16(&data[2],&data[3],(uint16_t)r->calib_offset.lidar_b_12v_ofs); break;
 8001994:	683b      	ldr	r3, [r7, #0]
 8001996:	1c5a      	adds	r2, r3, #1
 8001998:	6b3b      	ldr	r3, [r7, #48]	; 0x30
 800199a:	f8b3 3102 	ldrh.w	r3, [r3, #258]	; 0x102
 800199e:	b29b      	uxth	r3, r3
 80019a0:	6838      	ldr	r0, [r7, #0]
 80019a2:	4611      	mov	r1, r2
 80019a4:	461a      	mov	r2, r3
 80019a6:	f7fe fd1b 	bl	80003e0 <pack16>
 80019aa:	683b      	ldr	r3, [r7, #0]
 80019ac:	1c99      	adds	r1, r3, #2
 80019ae:	683b      	ldr	r3, [r7, #0]
 80019b0:	1cda      	adds	r2, r3, #3
 80019b2:	6b3b      	ldr	r3, [r7, #48]	; 0x30
 80019b4:	f8b3 3104 	ldrh.w	r3, [r3, #260]	; 0x104
 80019b8:	b29b      	uxth	r3, r3
 80019ba:	4608      	mov	r0, r1
 80019bc:	4611      	mov	r1, r2
 80019be:	461a      	mov	r2, r3
 80019c0:	f7fe fd0e 	bl	80003e0 <pack16>
 80019c4:	f001 bb68 	b.w	8003098 <build_response+0x2b74>
        case 0x48U: pack16(&data[0],&data[1],(uint16_t)r->calib_offset.sto_24v_ofs);    pack16(&data[2],&data[3],(uint16_t)r->calib_offset.chg_hvil_out_ofs); break;
 80019c8:	683b      	ldr	r3, [r7, #0]
 80019ca:	1c5a      	adds	r2, r3, #1
 80019cc:	6b3b      	ldr	r3, [r7, #48]	; 0x30
 80019ce:	f8b3 3106 	ldrh.w	r3, [r3, #262]	; 0x106
 80019d2:	b29b      	uxth	r3, r3
 80019d4:	6838      	ldr	r0, [r7, #0]
 80019d6:	4611      	mov	r1, r2
 80019d8:	461a      	mov	r2, r3
 80019da:	f7fe fd01 	bl	80003e0 <pack16>
 80019de:	683b      	ldr	r3, [r7, #0]
 80019e0:	1c99      	adds	r1, r3, #2
 80019e2:	683b      	ldr	r3, [r7, #0]
 80019e4:	1cda      	adds	r2, r3, #3
 80019e6:	6b3b      	ldr	r3, [r7, #48]	; 0x30
 80019e8:	f8b3 3108 	ldrh.w	r3, [r3, #264]	; 0x108
 80019ec:	b29b      	uxth	r3, r3
 80019ee:	4608      	mov	r0, r1
 80019f0:	4611      	mov	r1, r2
 80019f2:	461a      	mov	r2, r3
 80019f4:	f7fe fcf4 	bl	80003e0 <pack16>
 80019f8:	f001 bb4e 	b.w	8003098 <build_response+0x2b74>
        case 0x49U: pack16(&data[0],&data[1],(uint16_t)r->calib_offset.eth_2v5_ofs);    pack16(&data[2],&data[3],(uint16_t)r->calib_offset.eth_1v2_ofs);    break;
 80019fc:	683b      	ldr	r3, [r7, #0]
 80019fe:	1c5a      	adds	r2, r3, #1
 8001a00:	6b3b      	ldr	r3, [r7, #48]	; 0x30
 8001a02:	f8b3 310a 	ldrh.w	r3, [r3, #266]	; 0x10a
 8001a06:	b29b      	uxth	r3, r3
 8001a08:	6838      	ldr	r0, [r7, #0]
 8001a0a:	4611      	mov	r1, r2
 8001a0c:	461a      	mov	r2, r3
 8001a0e:	f7fe fce7 	bl	80003e0 <pack16>
 8001a12:	683b      	ldr	r3, [r7, #0]
 8001a14:	1c99      	adds	r1, r3, #2
 8001a16:	683b      	ldr	r3, [r7, #0]
 8001a18:	1cda      	adds	r2, r3, #3
 8001a1a:	6b3b      	ldr	r3, [r7, #48]	; 0x30
 8001a1c:	f8b3 310c 	ldrh.w	r3, [r3, #268]	; 0x10c
 8001a20:	b29b      	uxth	r3, r3
 8001a22:	4608      	mov	r0, r1
 8001a24:	4611      	mov	r1, r2
 8001a26:	461a      	mov	r2, r3
 8001a28:	f7fe fcda 	bl	80003e0 <pack16>
 8001a2c:	f001 bb34 	b.w	8003098 <build_response+0x2b74>
        case 0x4AU: pack16(&data[0],&data[1],(uint16_t)r->calib_offset.ecat_3v3_ofs);   pack16(&data[2],&data[3],(uint16_t)r->calib_offset.ecat_1v2_ofs);   break;
 8001a30:	683b      	ldr	r3, [r7, #0]
 8001a32:	1c5a      	adds	r2, r3, #1
 8001a34:	6b3b      	ldr	r3, [r7, #48]	; 0x30
 8001a36:	f8b3 310e 	ldrh.w	r3, [r3, #270]	; 0x10e
 8001a3a:	b29b      	uxth	r3, r3
 8001a3c:	6838      	ldr	r0, [r7, #0]
 8001a3e:	4611      	mov	r1, r2
 8001a40:	461a      	mov	r2, r3
 8001a42:	f7fe fccd 	bl	80003e0 <pack16>
 8001a46:	683b      	ldr	r3, [r7, #0]
 8001a48:	1c99      	adds	r1, r3, #2
 8001a4a:	683b      	ldr	r3, [r7, #0]
 8001a4c:	1cda      	adds	r2, r3, #3
 8001a4e:	6b3b      	ldr	r3, [r7, #48]	; 0x30
 8001a50:	f8b3 3110 	ldrh.w	r3, [r3, #272]	; 0x110
 8001a54:	b29b      	uxth	r3, r3
 8001a56:	4608      	mov	r0, r1
 8001a58:	4611      	mov	r1, r2
 8001a5a:	461a      	mov	r2, r3
 8001a5c:	f7fe fcc0 	bl	80003e0 <pack16>
 8001a60:	f001 bb1a 	b.w	8003098 <build_response+0x2b74>

        /* === 16-BIT SCALES (0x50-0x6A) === */
        case 0x50U: pack16(&data[0],&data[1],(uint16_t)r->calib_scale.chg_curr_scl);   pack16(&data[2],&data[3],(uint16_t)r->calib_scale.batt1_curr_scl);   pack16(&data[4],&data[5],(uint16_t)r->calib_scale.batt2_curr_scl);   break;
 8001a64:	683b      	ldr	r3, [r7, #0]
 8001a66:	1c5a      	adds	r2, r3, #1
 8001a68:	6b3b      	ldr	r3, [r7, #48]	; 0x30
 8001a6a:	f8b3 3112 	ldrh.w	r3, [r3, #274]	; 0x112
 8001a6e:	b29b      	uxth	r3, r3
 8001a70:	6838      	ldr	r0, [r7, #0]
 8001a72:	4611      	mov	r1, r2
 8001a74:	461a      	mov	r2, r3
 8001a76:	f7fe fcb3 	bl	80003e0 <pack16>
 8001a7a:	683b      	ldr	r3, [r7, #0]
 8001a7c:	1c99      	adds	r1, r3, #2
 8001a7e:	683b      	ldr	r3, [r7, #0]
 8001a80:	1cda      	adds	r2, r3, #3
 8001a82:	6b3b      	ldr	r3, [r7, #48]	; 0x30
 8001a84:	f8b3 3114 	ldrh.w	r3, [r3, #276]	; 0x114
 8001a88:	b29b      	uxth	r3, r3
 8001a8a:	4608      	mov	r0, r1
 8001a8c:	4611      	mov	r1, r2
 8001a8e:	461a      	mov	r2, r3
 8001a90:	f7fe fca6 	bl	80003e0 <pack16>
 8001a94:	683b      	ldr	r3, [r7, #0]
 8001a96:	1d19      	adds	r1, r3, #4
 8001a98:	683b      	ldr	r3, [r7, #0]
 8001a9a:	1d5a      	adds	r2, r3, #5
 8001a9c:	6b3b      	ldr	r3, [r7, #48]	; 0x30
 8001a9e:	f8b3 3116 	ldrh.w	r3, [r3, #278]	; 0x116
 8001aa2:	b29b      	uxth	r3, r3
 8001aa4:	4608      	mov	r0, r1
 8001aa6:	4611      	mov	r1, r2
 8001aa8:	461a      	mov	r2, r3
 8001aaa:	f7fe fc99 	bl	80003e0 <pack16>
 8001aae:	f001 baf3 	b.w	8003098 <build_response+0x2b74>
        case 0x51U: pack16(&data[0],&data[1],(uint16_t)r->calib_scale.ll_imon_scl);    pack16(&data[2],&data[3],(uint16_t)r->calib_scale.rl_imon_scl);    pack16(&data[4],&data[5],(uint16_t)r->calib_scale.la_imon_scl);    break;
 8001ab2:	683b      	ldr	r3, [r7, #0]
 8001ab4:	1c5a      	adds	r2, r3, #1
 8001ab6:	6b3b      	ldr	r3, [r7, #48]	; 0x30
 8001ab8:	f8b3 3118 	ldrh.w	r3, [r3, #280]	; 0x118
 8001abc:	b29b      	uxth	r3, r3
 8001abe:	6838      	ldr	r0, [r7, #0]
 8001ac0:	4611      	mov	r1, r2
 8001ac2:	461a      	mov	r2, r3
 8001ac4:	f7fe fc8c 	bl	80003e0 <pack16>
 8001ac8:	683b      	ldr	r3, [r7, #0]
 8001aca:	1c99      	adds	r1, r3, #2
 8001acc:	683b      	ldr	r3, [r7, #0]
 8001ace:	1cda      	adds	r2, r3, #3
 8001ad0:	6b3b      	ldr	r3, [r7, #48]	; 0x30
 8001ad2:	f8b3 311a 	ldrh.w	r3, [r3, #282]	; 0x11a
 8001ad6:	b29b      	uxth	r3, r3
 8001ad8:	4608      	mov	r0, r1
 8001ada:	4611      	mov	r1, r2
 8001adc:	461a      	mov	r2, r3
 8001ade:	f7fe fc7f 	bl	80003e0 <pack16>
 8001ae2:	683b      	ldr	r3, [r7, #0]
 8001ae4:	1d19      	adds	r1, r3, #4
 8001ae6:	683b      	ldr	r3, [r7, #0]
 8001ae8:	1d5a      	adds	r2, r3, #5
 8001aea:	6b3b      	ldr	r3, [r7, #48]	; 0x30
 8001aec:	f8b3 311c 	ldrh.w	r3, [r3, #284]	; 0x11c
 8001af0:	b29b      	uxth	r3, r3
 8001af2:	4608      	mov	r0, r1
 8001af4:	4611      	mov	r1, r2
 8001af6:	461a      	mov	r2, r3
 8001af8:	f7fe fc72 	bl	80003e0 <pack16>
 8001afc:	f001 bacc 	b.w	8003098 <build_response+0x2b74>
        case 0x52U: pack16(&data[0],&data[1],(uint16_t)r->calib_scale.ra_imon_scl);    pack16(&data[2],&data[3],(uint16_t)r->calib_scale.tr_imon_scl);    pack16(&data[4],&data[5],(uint16_t)r->calib_scale.chg_in_scl);    break;
 8001b00:	683b      	ldr	r3, [r7, #0]
 8001b02:	1c5a      	adds	r2, r3, #1
 8001b04:	6b3b      	ldr	r3, [r7, #48]	; 0x30
 8001b06:	f8b3 311e 	ldrh.w	r3, [r3, #286]	; 0x11e
 8001b0a:	b29b      	uxth	r3, r3
 8001b0c:	6838      	ldr	r0, [r7, #0]
 8001b0e:	4611      	mov	r1, r2
 8001b10:	461a      	mov	r2, r3
 8001b12:	f7fe fc65 	bl	80003e0 <pack16>
 8001b16:	683b      	ldr	r3, [r7, #0]
 8001b18:	1c99      	adds	r1, r3, #2
 8001b1a:	683b      	ldr	r3, [r7, #0]
 8001b1c:	1cda      	adds	r2, r3, #3
 8001b1e:	6b3b      	ldr	r3, [r7, #48]	; 0x30
 8001b20:	f8b3 3120 	ldrh.w	r3, [r3, #288]	; 0x120
 8001b24:	b29b      	uxth	r3, r3
 8001b26:	4608      	mov	r0, r1
 8001b28:	4611      	mov	r1, r2
 8001b2a:	461a      	mov	r2, r3
 8001b2c:	f7fe fc58 	bl	80003e0 <pack16>
 8001b30:	683b      	ldr	r3, [r7, #0]
 8001b32:	1d19      	adds	r1, r3, #4
 8001b34:	683b      	ldr	r3, [r7, #0]
 8001b36:	1d5a      	adds	r2, r3, #5
 8001b38:	6b3b      	ldr	r3, [r7, #48]	; 0x30
 8001b3a:	f8b3 3122 	ldrh.w	r3, [r3, #290]	; 0x122
 8001b3e:	b29b      	uxth	r3, r3
 8001b40:	4608      	mov	r0, r1
 8001b42:	4611      	mov	r1, r2
 8001b44:	461a      	mov	r2, r3
 8001b46:	f7fe fc4b 	bl	80003e0 <pack16>
 8001b4a:	f001 baa5 	b.w	8003098 <build_response+0x2b74>
        case 0x53U: pack16(&data[0],&data[1],(uint16_t)r->calib_scale.hv_scl);         pack16(&data[2],&data[3],(uint16_t)r->calib_scale.batt1_in_scl);   pack16(&data[4],&data[5],(uint16_t)r->calib_scale.batt2_in_scl);   break;
 8001b4e:	683b      	ldr	r3, [r7, #0]
 8001b50:	1c5a      	adds	r2, r3, #1
 8001b52:	6b3b      	ldr	r3, [r7, #48]	; 0x30
 8001b54:	f8b3 3124 	ldrh.w	r3, [r3, #292]	; 0x124
 8001b58:	b29b      	uxth	r3, r3
 8001b5a:	6838      	ldr	r0, [r7, #0]
 8001b5c:	4611      	mov	r1, r2
 8001b5e:	461a      	mov	r2, r3
 8001b60:	f7fe fc3e 	bl	80003e0 <pack16>
 8001b64:	683b      	ldr	r3, [r7, #0]
 8001b66:	1c99      	adds	r1, r3, #2
 8001b68:	683b      	ldr	r3, [r7, #0]
 8001b6a:	1cda      	adds	r2, r3, #3
 8001b6c:	6b3b      	ldr	r3, [r7, #48]	; 0x30
 8001b6e:	f8b3 3126 	ldrh.w	r3, [r3, #294]	; 0x126
 8001b72:	b29b      	uxth	r3, r3
 8001b74:	4608      	mov	r0, r1
 8001b76:	4611      	mov	r1, r2
 8001b78:	461a      	mov	r2, r3
 8001b7a:	f7fe fc31 	bl	80003e0 <pack16>
 8001b7e:	683b      	ldr	r3, [r7, #0]
 8001b80:	1d19      	adds	r1, r3, #4
 8001b82:	683b      	ldr	r3, [r7, #0]
 8001b84:	1d5a      	adds	r2, r3, #5
 8001b86:	6b3b      	ldr	r3, [r7, #48]	; 0x30
 8001b88:	f8b3 3128 	ldrh.w	r3, [r3, #296]	; 0x128
 8001b8c:	b29b      	uxth	r3, r3
 8001b8e:	4608      	mov	r0, r1
 8001b90:	4611      	mov	r1, r2
 8001b92:	461a      	mov	r2, r3
 8001b94:	f7fe fc24 	bl	80003e0 <pack16>
 8001b98:	f001 ba7e 	b.w	8003098 <build_response+0x2b74>
        case 0x54U: pack16(&data[0],&data[1],(uint16_t)r->calib_scale.nk_imon_scl);    pack16(&data[2],&data[3],(uint16_t)r->calib_scale.mot_bus_scl);    pack16(&data[4],&data[5],(uint16_t)r->calib_scale.chg_hv_scl);    break;
 8001b9c:	683b      	ldr	r3, [r7, #0]
 8001b9e:	1c5a      	adds	r2, r3, #1
 8001ba0:	6b3b      	ldr	r3, [r7, #48]	; 0x30
 8001ba2:	f8b3 312a 	ldrh.w	r3, [r3, #298]	; 0x12a
 8001ba6:	b29b      	uxth	r3, r3
 8001ba8:	6838      	ldr	r0, [r7, #0]
 8001baa:	4611      	mov	r1, r2
 8001bac:	461a      	mov	r2, r3
 8001bae:	f7fe fc17 	bl	80003e0 <pack16>
 8001bb2:	683b      	ldr	r3, [r7, #0]
 8001bb4:	1c99      	adds	r1, r3, #2
 8001bb6:	683b      	ldr	r3, [r7, #0]
 8001bb8:	1cda      	adds	r2, r3, #3
 8001bba:	6b3b      	ldr	r3, [r7, #48]	; 0x30
 8001bbc:	f8b3 312c 	ldrh.w	r3, [r3, #300]	; 0x12c
 8001bc0:	b29b      	uxth	r3, r3
 8001bc2:	4608      	mov	r0, r1
 8001bc4:	4611      	mov	r1, r2
 8001bc6:	461a      	mov	r2, r3
 8001bc8:	f7fe fc0a 	bl	80003e0 <pack16>
 8001bcc:	683b      	ldr	r3, [r7, #0]
 8001bce:	1d19      	adds	r1, r3, #4
 8001bd0:	683b      	ldr	r3, [r7, #0]
 8001bd2:	1d5a      	adds	r2, r3, #5
 8001bd4:	6b3b      	ldr	r3, [r7, #48]	; 0x30
 8001bd6:	f8b3 312e 	ldrh.w	r3, [r3, #302]	; 0x12e
 8001bda:	b29b      	uxth	r3, r3
 8001bdc:	4608      	mov	r0, r1
 8001bde:	4611      	mov	r1, r2
 8001be0:	461a      	mov	r2, r3
 8001be2:	f7fe fbfd 	bl	80003e0 <pack16>
 8001be6:	f001 ba57 	b.w	8003098 <build_response+0x2b74>
        case 0x55U: pack16(&data[0],&data[1],(uint16_t)r->calib_scale.user_hv_scl);    pack16(&data[2],&data[3],(uint16_t)r->calib_scale.user_hv_curr_scl); break;
 8001bea:	683b      	ldr	r3, [r7, #0]
 8001bec:	1c5a      	adds	r2, r3, #1
 8001bee:	6b3b      	ldr	r3, [r7, #48]	; 0x30
 8001bf0:	f8b3 3130 	ldrh.w	r3, [r3, #304]	; 0x130
 8001bf4:	b29b      	uxth	r3, r3
 8001bf6:	6838      	ldr	r0, [r7, #0]
 8001bf8:	4611      	mov	r1, r2
 8001bfa:	461a      	mov	r2, r3
 8001bfc:	f7fe fbf0 	bl	80003e0 <pack16>
 8001c00:	683b      	ldr	r3, [r7, #0]
 8001c02:	1c99      	adds	r1, r3, #2
 8001c04:	683b      	ldr	r3, [r7, #0]
 8001c06:	1cda      	adds	r2, r3, #3
 8001c08:	6b3b      	ldr	r3, [r7, #48]	; 0x30
 8001c0a:	f8b3 3132 	ldrh.w	r3, [r3, #306]	; 0x132
 8001c0e:	b29b      	uxth	r3, r3
 8001c10:	4608      	mov	r0, r1
 8001c12:	4611      	mov	r1, r2
 8001c14:	461a      	mov	r2, r3
 8001c16:	f7fe fbe3 	bl	80003e0 <pack16>
 8001c1a:	f001 ba3d 	b.w	8003098 <build_response+0x2b74>
        case 0x56U: pack16(&data[0],&data[1],(uint16_t)r->calib_scale.pc_24v_scl);     pack16(&data[2],&data[3],(uint16_t)r->calib_scale.pc_24v_imon_scl); break;
 8001c1e:	683b      	ldr	r3, [r7, #0]
 8001c20:	1c5a      	adds	r2, r3, #1
 8001c22:	6b3b      	ldr	r3, [r7, #48]	; 0x30
 8001c24:	f8b3 3134 	ldrh.w	r3, [r3, #308]	; 0x134
 8001c28:	b29b      	uxth	r3, r3
 8001c2a:	6838      	ldr	r0, [r7, #0]
 8001c2c:	4611      	mov	r1, r2
 8001c2e:	461a      	mov	r2, r3
 8001c30:	f7fe fbd6 	bl	80003e0 <pack16>
 8001c34:	683b      	ldr	r3, [r7, #0]
 8001c36:	1c99      	adds	r1, r3, #2
 8001c38:	683b      	ldr	r3, [r7, #0]
 8001c3a:	1cda      	adds	r2, r3, #3
 8001c3c:	6b3b      	ldr	r3, [r7, #48]	; 0x30
 8001c3e:	f8b3 3136 	ldrh.w	r3, [r3, #310]	; 0x136
 8001c42:	b29b      	uxth	r3, r3
 8001c44:	4608      	mov	r0, r1
 8001c46:	4611      	mov	r1, r2
 8001c48:	461a      	mov	r2, r3
 8001c4a:	f7fe fbc9 	bl	80003e0 <pack16>
 8001c4e:	f001 ba23 	b.w	8003098 <build_response+0x2b74>
        case 0x57U: pack16(&data[0],&data[1],(uint16_t)r->calib_scale.user_24v_scl);   pack16(&data[2],&data[3],(uint16_t)r->calib_scale.user_24v_imon_scl); break;
 8001c52:	683b      	ldr	r3, [r7, #0]
 8001c54:	1c5a      	adds	r2, r3, #1
 8001c56:	6b3b      	ldr	r3, [r7, #48]	; 0x30
 8001c58:	f8b3 3138 	ldrh.w	r3, [r3, #312]	; 0x138
 8001c5c:	b29b      	uxth	r3, r3
 8001c5e:	6838      	ldr	r0, [r7, #0]
 8001c60:	4611      	mov	r1, r2
 8001c62:	461a      	mov	r2, r3
 8001c64:	f7fe fbbc 	bl	80003e0 <pack16>
 8001c68:	683b      	ldr	r3, [r7, #0]
 8001c6a:	1c99      	adds	r1, r3, #2
 8001c6c:	683b      	ldr	r3, [r7, #0]
 8001c6e:	1cda      	adds	r2, r3, #3
 8001c70:	6b3b      	ldr	r3, [r7, #48]	; 0x30
 8001c72:	f8b3 313a 	ldrh.w	r3, [r3, #314]	; 0x13a
 8001c76:	b29b      	uxth	r3, r3
 8001c78:	4608      	mov	r0, r1
 8001c7a:	4611      	mov	r1, r2
 8001c7c:	461a      	mov	r2, r3
 8001c7e:	f7fe fbaf 	bl	80003e0 <pack16>
 8001c82:	f001 ba09 	b.w	8003098 <build_response+0x2b74>
        case 0x58U: pack16(&data[0],&data[1],(uint16_t)r->calib_scale.pc_a_12v_scl);   pack16(&data[2],&data[3],(uint16_t)r->calib_scale.pc_a_12v_imon_scl); break;
 8001c86:	683b      	ldr	r3, [r7, #0]
 8001c88:	1c5a      	adds	r2, r3, #1
 8001c8a:	6b3b      	ldr	r3, [r7, #48]	; 0x30
 8001c8c:	f8b3 313c 	ldrh.w	r3, [r3, #316]	; 0x13c
 8001c90:	b29b      	uxth	r3, r3
 8001c92:	6838      	ldr	r0, [r7, #0]
 8001c94:	4611      	mov	r1, r2
 8001c96:	461a      	mov	r2, r3
 8001c98:	f7fe fba2 	bl	80003e0 <pack16>
 8001c9c:	683b      	ldr	r3, [r7, #0]
 8001c9e:	1c99      	adds	r1, r3, #2
 8001ca0:	683b      	ldr	r3, [r7, #0]
 8001ca2:	1cda      	adds	r2, r3, #3
 8001ca4:	6b3b      	ldr	r3, [r7, #48]	; 0x30
 8001ca6:	f8b3 313e 	ldrh.w	r3, [r3, #318]	; 0x13e
 8001caa:	b29b      	uxth	r3, r3
 8001cac:	4608      	mov	r0, r1
 8001cae:	4611      	mov	r1, r2
 8001cb0:	461a      	mov	r2, r3
 8001cb2:	f7fe fb95 	bl	80003e0 <pack16>
 8001cb6:	f001 b9ef 	b.w	8003098 <build_response+0x2b74>
        case 0x59U: pack16(&data[0],&data[1],(uint16_t)r->calib_scale.pc_b_12v_scl);   pack16(&data[2],&data[3],(uint16_t)r->calib_scale.pc_b_12v_imon_scl); break;
 8001cba:	683b      	ldr	r3, [r7, #0]
 8001cbc:	1c5a      	adds	r2, r3, #1
 8001cbe:	6b3b      	ldr	r3, [r7, #48]	; 0x30
 8001cc0:	f8b3 3140 	ldrh.w	r3, [r3, #320]	; 0x140
 8001cc4:	b29b      	uxth	r3, r3
 8001cc6:	6838      	ldr	r0, [r7, #0]
 8001cc8:	4611      	mov	r1, r2
 8001cca:	461a      	mov	r2, r3
 8001ccc:	f7fe fb88 	bl	80003e0 <pack16>
 8001cd0:	683b      	ldr	r3, [r7, #0]
 8001cd2:	1c99      	adds	r1, r3, #2
 8001cd4:	683b      	ldr	r3, [r7, #0]
 8001cd6:	1cda      	adds	r2, r3, #3
 8001cd8:	6b3b      	ldr	r3, [r7, #48]	; 0x30
 8001cda:	f8b3 3142 	ldrh.w	r3, [r3, #322]	; 0x142
 8001cde:	b29b      	uxth	r3, r3
 8001ce0:	4608      	mov	r0, r1
 8001ce2:	4611      	mov	r1, r2
 8001ce4:	461a      	mov	r2, r3
 8001ce6:	f7fe fb7b 	bl	80003e0 <pack16>
 8001cea:	f001 b9d5 	b.w	8003098 <build_response+0x2b74>
        case 0x5AU: pack16(&data[0],&data[1],(uint16_t)r->calib_scale.v24_imon0_scl);  pack16(&data[2],&data[3],(uint16_t)r->calib_scale.v24_imon1_scl);  pack16(&data[4],&data[5],(uint16_t)r->calib_scale.v24_imon2_scl);  break;
 8001cee:	683b      	ldr	r3, [r7, #0]
 8001cf0:	1c5a      	adds	r2, r3, #1
 8001cf2:	6b3b      	ldr	r3, [r7, #48]	; 0x30
 8001cf4:	f8b3 3144 	ldrh.w	r3, [r3, #324]	; 0x144
 8001cf8:	b29b      	uxth	r3, r3
 8001cfa:	6838      	ldr	r0, [r7, #0]
 8001cfc:	4611      	mov	r1, r2
 8001cfe:	461a      	mov	r2, r3
 8001d00:	f7fe fb6e 	bl	80003e0 <pack16>
 8001d04:	683b      	ldr	r3, [r7, #0]
 8001d06:	1c99      	adds	r1, r3, #2
 8001d08:	683b      	ldr	r3, [r7, #0]
 8001d0a:	1cda      	adds	r2, r3, #3
 8001d0c:	6b3b      	ldr	r3, [r7, #48]	; 0x30
 8001d0e:	f8b3 3146 	ldrh.w	r3, [r3, #326]	; 0x146
 8001d12:	b29b      	uxth	r3, r3
 8001d14:	4608      	mov	r0, r1
 8001d16:	4611      	mov	r1, r2
 8001d18:	461a      	mov	r2, r3
 8001d1a:	f7fe fb61 	bl	80003e0 <pack16>
 8001d1e:	683b      	ldr	r3, [r7, #0]
 8001d20:	1d19      	adds	r1, r3, #4
 8001d22:	683b      	ldr	r3, [r7, #0]
 8001d24:	1d5a      	adds	r2, r3, #5
 8001d26:	6b3b      	ldr	r3, [r7, #48]	; 0x30
 8001d28:	f8b3 3148 	ldrh.w	r3, [r3, #328]	; 0x148
 8001d2c:	b29b      	uxth	r3, r3
 8001d2e:	4608      	mov	r0, r1
 8001d30:	4611      	mov	r1, r2
 8001d32:	461a      	mov	r2, r3
 8001d34:	f7fe fb54 	bl	80003e0 <pack16>
 8001d38:	f001 b9ae 	b.w	8003098 <build_response+0x2b74>
        case 0x5BU: pack16(&data[0],&data[1],(uint16_t)r->calib_scale.v12_imon0_scl);  pack16(&data[2],&data[3],(uint16_t)r->calib_scale.v12_imon1_scl);  pack16(&data[4],&data[5],(uint16_t)r->calib_scale.v12_imon2_scl);  break;
 8001d3c:	683b      	ldr	r3, [r7, #0]
 8001d3e:	1c5a      	adds	r2, r3, #1
 8001d40:	6b3b      	ldr	r3, [r7, #48]	; 0x30
 8001d42:	f8b3 314a 	ldrh.w	r3, [r3, #330]	; 0x14a
 8001d46:	b29b      	uxth	r3, r3
 8001d48:	6838      	ldr	r0, [r7, #0]
 8001d4a:	4611      	mov	r1, r2
 8001d4c:	461a      	mov	r2, r3
 8001d4e:	f7fe fb47 	bl	80003e0 <pack16>
 8001d52:	683b      	ldr	r3, [r7, #0]
 8001d54:	1c99      	adds	r1, r3, #2
 8001d56:	683b      	ldr	r3, [r7, #0]
 8001d58:	1cda      	adds	r2, r3, #3
 8001d5a:	6b3b      	ldr	r3, [r7, #48]	; 0x30
 8001d5c:	f8b3 314c 	ldrh.w	r3, [r3, #332]	; 0x14c
 8001d60:	b29b      	uxth	r3, r3
 8001d62:	4608      	mov	r0, r1
 8001d64:	4611      	mov	r1, r2
 8001d66:	461a      	mov	r2, r3
 8001d68:	f7fe fb3a 	bl	80003e0 <pack16>
 8001d6c:	683b      	ldr	r3, [r7, #0]
 8001d6e:	1d19      	adds	r1, r3, #4
 8001d70:	683b      	ldr	r3, [r7, #0]
 8001d72:	1d5a      	adds	r2, r3, #5
 8001d74:	6b3b      	ldr	r3, [r7, #48]	; 0x30
 8001d76:	f8b3 314e 	ldrh.w	r3, [r3, #334]	; 0x14e
 8001d7a:	b29b      	uxth	r3, r3
 8001d7c:	4608      	mov	r0, r1
 8001d7e:	4611      	mov	r1, r2
 8001d80:	461a      	mov	r2, r3
 8001d82:	f7fe fb2d 	bl	80003e0 <pack16>
 8001d86:	f001 b987 	b.w	8003098 <build_response+0x2b74>
        case 0x5CU: pack16(&data[0],&data[1],(uint16_t)r->calib_scale.v24_scl);        pack16(&data[2],&data[3],(uint16_t)r->calib_scale.v12_scl);        break;
 8001d8a:	683b      	ldr	r3, [r7, #0]
 8001d8c:	1c5a      	adds	r2, r3, #1
 8001d8e:	6b3b      	ldr	r3, [r7, #48]	; 0x30
 8001d90:	f8b3 3150 	ldrh.w	r3, [r3, #336]	; 0x150
 8001d94:	b29b      	uxth	r3, r3
 8001d96:	6838      	ldr	r0, [r7, #0]
 8001d98:	4611      	mov	r1, r2
 8001d9a:	461a      	mov	r2, r3
 8001d9c:	f7fe fb20 	bl	80003e0 <pack16>
 8001da0:	683b      	ldr	r3, [r7, #0]
 8001da2:	1c99      	adds	r1, r3, #2
 8001da4:	683b      	ldr	r3, [r7, #0]
 8001da6:	1cda      	adds	r2, r3, #3
 8001da8:	6b3b      	ldr	r3, [r7, #48]	; 0x30
 8001daa:	f8b3 3152 	ldrh.w	r3, [r3, #338]	; 0x152
 8001dae:	b29b      	uxth	r3, r3
 8001db0:	4608      	mov	r0, r1
 8001db2:	4611      	mov	r1, r2
 8001db4:	461a      	mov	r2, r3
 8001db6:	f7fe fb13 	bl	80003e0 <pack16>
 8001dba:	f001 b96d 	b.w	8003098 <build_response+0x2b74>
        case 0x5DU: pack16(&data[0],&data[1],(uint16_t)r->calib_scale.v5_scl);         pack16(&data[2],&data[3],(uint16_t)r->calib_scale.v5_curr_scl);    break;
 8001dbe:	683b      	ldr	r3, [r7, #0]
 8001dc0:	1c5a      	adds	r2, r3, #1
 8001dc2:	6b3b      	ldr	r3, [r7, #48]	; 0x30
 8001dc4:	f8b3 3154 	ldrh.w	r3, [r3, #340]	; 0x154
 8001dc8:	b29b      	uxth	r3, r3
 8001dca:	6838      	ldr	r0, [r7, #0]
 8001dcc:	4611      	mov	r1, r2
 8001dce:	461a      	mov	r2, r3
 8001dd0:	f7fe fb06 	bl	80003e0 <pack16>
 8001dd4:	683b      	ldr	r3, [r7, #0]
 8001dd6:	1c99      	adds	r1, r3, #2
 8001dd8:	683b      	ldr	r3, [r7, #0]
 8001dda:	1cda      	adds	r2, r3, #3
 8001ddc:	6b3b      	ldr	r3, [r7, #48]	; 0x30
 8001dde:	f8b3 3156 	ldrh.w	r3, [r3, #342]	; 0x156
 8001de2:	b29b      	uxth	r3, r3
 8001de4:	4608      	mov	r0, r1
 8001de6:	4611      	mov	r1, r2
 8001de8:	461a      	mov	r2, r3
 8001dea:	f7fe faf9 	bl	80003e0 <pack16>
 8001dee:	f001 b953 	b.w	8003098 <build_response+0x2b74>
        case 0x5EU: pack16(&data[0],&data[1],(uint16_t)r->calib_scale.v3v3_scl);       pack16(&data[2],&data[3],(uint16_t)r->calib_scale.v3v3_curr_scl);  break;
 8001df2:	683b      	ldr	r3, [r7, #0]
 8001df4:	1c5a      	adds	r2, r3, #1
 8001df6:	6b3b      	ldr	r3, [r7, #48]	; 0x30
 8001df8:	f8b3 3158 	ldrh.w	r3, [r3, #344]	; 0x158
 8001dfc:	b29b      	uxth	r3, r3
 8001dfe:	6838      	ldr	r0, [r7, #0]
 8001e00:	4611      	mov	r1, r2
 8001e02:	461a      	mov	r2, r3
 8001e04:	f7fe faec 	bl	80003e0 <pack16>
 8001e08:	683b      	ldr	r3, [r7, #0]
 8001e0a:	1c99      	adds	r1, r3, #2
 8001e0c:	683b      	ldr	r3, [r7, #0]
 8001e0e:	1cda      	adds	r2, r3, #3
 8001e10:	6b3b      	ldr	r3, [r7, #48]	; 0x30
 8001e12:	f8b3 315a 	ldrh.w	r3, [r3, #346]	; 0x15a
 8001e16:	b29b      	uxth	r3, r3
 8001e18:	4608      	mov	r0, r1
 8001e1a:	4611      	mov	r1, r2
 8001e1c:	461a      	mov	r2, r3
 8001e1e:	f7fe fadf 	bl	80003e0 <pack16>
 8001e22:	f001 b939 	b.w	8003098 <build_response+0x2b74>
        case 0x5FU: pack16(&data[0],&data[1],(uint16_t)r->calib_scale.aux_24v_scl);    pack16(&data[2],&data[3],(uint16_t)r->calib_scale.aux_24v_curr_scl); break;
 8001e26:	683b      	ldr	r3, [r7, #0]
 8001e28:	1c5a      	adds	r2, r3, #1
 8001e2a:	6b3b      	ldr	r3, [r7, #48]	; 0x30
 8001e2c:	f8b3 315c 	ldrh.w	r3, [r3, #348]	; 0x15c
 8001e30:	b29b      	uxth	r3, r3
 8001e32:	6838      	ldr	r0, [r7, #0]
 8001e34:	4611      	mov	r1, r2
 8001e36:	461a      	mov	r2, r3
 8001e38:	f7fe fad2 	bl	80003e0 <pack16>
 8001e3c:	683b      	ldr	r3, [r7, #0]
 8001e3e:	1c99      	adds	r1, r3, #2
 8001e40:	683b      	ldr	r3, [r7, #0]
 8001e42:	1cda      	adds	r2, r3, #3
 8001e44:	6b3b      	ldr	r3, [r7, #48]	; 0x30
 8001e46:	f8b3 315e 	ldrh.w	r3, [r3, #350]	; 0x15e
 8001e4a:	b29b      	uxth	r3, r3
 8001e4c:	4608      	mov	r0, r1
 8001e4e:	4611      	mov	r1, r2
 8001e50:	461a      	mov	r2, r3
 8001e52:	f7fe fac5 	bl	80003e0 <pack16>
 8001e56:	f001 b91f 	b.w	8003098 <build_response+0x2b74>
        case 0x60U: pack16(&data[0],&data[1],(uint16_t)r->calib_scale.aux_12v_scl);    pack16(&data[2],&data[3],(uint16_t)r->calib_scale.aux_12v_curr_scl); break;
 8001e5a:	683b      	ldr	r3, [r7, #0]
 8001e5c:	1c5a      	adds	r2, r3, #1
 8001e5e:	6b3b      	ldr	r3, [r7, #48]	; 0x30
 8001e60:	f8b3 3160 	ldrh.w	r3, [r3, #352]	; 0x160
 8001e64:	b29b      	uxth	r3, r3
 8001e66:	6838      	ldr	r0, [r7, #0]
 8001e68:	4611      	mov	r1, r2
 8001e6a:	461a      	mov	r2, r3
 8001e6c:	f7fe fab8 	bl	80003e0 <pack16>
 8001e70:	683b      	ldr	r3, [r7, #0]
 8001e72:	1c99      	adds	r1, r3, #2
 8001e74:	683b      	ldr	r3, [r7, #0]
 8001e76:	1cda      	adds	r2, r3, #3
 8001e78:	6b3b      	ldr	r3, [r7, #48]	; 0x30
 8001e7a:	f8b3 3162 	ldrh.w	r3, [r3, #354]	; 0x162
 8001e7e:	b29b      	uxth	r3, r3
 8001e80:	4608      	mov	r0, r1
 8001e82:	4611      	mov	r1, r2
 8001e84:	461a      	mov	r2, r3
 8001e86:	f7fe faab 	bl	80003e0 <pack16>
 8001e8a:	f001 b905 	b.w	8003098 <build_response+0x2b74>
        case 0x61U: pack16(&data[0],&data[1],(uint16_t)r->calib_scale.estop_rec_a_12v_scl); pack16(&data[2],&data[3],(uint16_t)r->calib_scale.estop_rec_b_12v_scl); break;
 8001e8e:	683b      	ldr	r3, [r7, #0]
 8001e90:	1c5a      	adds	r2, r3, #1
 8001e92:	6b3b      	ldr	r3, [r7, #48]	; 0x30
 8001e94:	f8b3 3164 	ldrh.w	r3, [r3, #356]	; 0x164
 8001e98:	b29b      	uxth	r3, r3
 8001e9a:	6838      	ldr	r0, [r7, #0]
 8001e9c:	4611      	mov	r1, r2
 8001e9e:	461a      	mov	r2, r3
 8001ea0:	f7fe fa9e 	bl	80003e0 <pack16>
 8001ea4:	683b      	ldr	r3, [r7, #0]
 8001ea6:	1c99      	adds	r1, r3, #2
 8001ea8:	683b      	ldr	r3, [r7, #0]
 8001eaa:	1cda      	adds	r2, r3, #3
 8001eac:	6b3b      	ldr	r3, [r7, #48]	; 0x30
 8001eae:	f8b3 3166 	ldrh.w	r3, [r3, #358]	; 0x166
 8001eb2:	b29b      	uxth	r3, r3
 8001eb4:	4608      	mov	r0, r1
 8001eb6:	4611      	mov	r1, r2
 8001eb8:	461a      	mov	r2, r3
 8001eba:	f7fe fa91 	bl	80003e0 <pack16>
 8001ebe:	f001 b8eb 	b.w	8003098 <build_response+0x2b74>
        case 0x62U: pack16(&data[0],&data[1],(uint16_t)r->calib_scale.v12_b_imon3_scl); pack16(&data[2],&data[3],(uint16_t)r->calib_scale.v12_b_imon4_scl); break;
 8001ec2:	683b      	ldr	r3, [r7, #0]
 8001ec4:	1c5a      	adds	r2, r3, #1
 8001ec6:	6b3b      	ldr	r3, [r7, #48]	; 0x30
 8001ec8:	f8b3 3168 	ldrh.w	r3, [r3, #360]	; 0x168
 8001ecc:	b29b      	uxth	r3, r3
 8001ece:	6838      	ldr	r0, [r7, #0]
 8001ed0:	4611      	mov	r1, r2
 8001ed2:	461a      	mov	r2, r3
 8001ed4:	f7fe fa84 	bl	80003e0 <pack16>
 8001ed8:	683b      	ldr	r3, [r7, #0]
 8001eda:	1c99      	adds	r1, r3, #2
 8001edc:	683b      	ldr	r3, [r7, #0]
 8001ede:	1cda      	adds	r2, r3, #3
 8001ee0:	6b3b      	ldr	r3, [r7, #48]	; 0x30
 8001ee2:	f8b3 316a 	ldrh.w	r3, [r3, #362]	; 0x16a
 8001ee6:	b29b      	uxth	r3, r3
 8001ee8:	4608      	mov	r0, r1
 8001eea:	4611      	mov	r1, r2
 8001eec:	461a      	mov	r2, r3
 8001eee:	f7fe fa77 	bl	80003e0 <pack16>
 8001ef2:	f001 b8d1 	b.w	8003098 <build_response+0x2b74>
        case 0x63U: pack16(&data[0],&data[1],(uint16_t)r->calib_scale.hv_or_scl);      pack16(&data[2],&data[3],(uint16_t)r->calib_scale.mb_sp_imon_scl); break;
 8001ef6:	683b      	ldr	r3, [r7, #0]
 8001ef8:	1c5a      	adds	r2, r3, #1
 8001efa:	6b3b      	ldr	r3, [r7, #48]	; 0x30
 8001efc:	f8b3 316c 	ldrh.w	r3, [r3, #364]	; 0x16c
 8001f00:	b29b      	uxth	r3, r3
 8001f02:	6838      	ldr	r0, [r7, #0]
 8001f04:	4611      	mov	r1, r2
 8001f06:	461a      	mov	r2, r3
 8001f08:	f7fe fa6a 	bl	80003e0 <pack16>
 8001f0c:	683b      	ldr	r3, [r7, #0]
 8001f0e:	1c99      	adds	r1, r3, #2
 8001f10:	683b      	ldr	r3, [r7, #0]
 8001f12:	1cda      	adds	r2, r3, #3
 8001f14:	6b3b      	ldr	r3, [r7, #48]	; 0x30
 8001f16:	f8b3 316e 	ldrh.w	r3, [r3, #366]	; 0x16e
 8001f1a:	b29b      	uxth	r3, r3
 8001f1c:	4608      	mov	r0, r1
 8001f1e:	4611      	mov	r1, r2
 8001f20:	461a      	mov	r2, r3
 8001f22:	f7fe fa5d 	bl	80003e0 <pack16>
 8001f26:	f001 b8b7 	b.w	8003098 <build_response+0x2b74>
        case 0x64U: pack16(&data[0],&data[1],(uint16_t)r->calib_scale.temp0_scl);      pack16(&data[2],&data[3],(uint16_t)r->calib_scale.temp1_scl);      pack16(&data[4],&data[5],(uint16_t)r->calib_scale.temp2_scl);      break;
 8001f2a:	683b      	ldr	r3, [r7, #0]
 8001f2c:	1c5a      	adds	r2, r3, #1
 8001f2e:	6b3b      	ldr	r3, [r7, #48]	; 0x30
 8001f30:	f8b3 3170 	ldrh.w	r3, [r3, #368]	; 0x170
 8001f34:	b29b      	uxth	r3, r3
 8001f36:	6838      	ldr	r0, [r7, #0]
 8001f38:	4611      	mov	r1, r2
 8001f3a:	461a      	mov	r2, r3
 8001f3c:	f7fe fa50 	bl	80003e0 <pack16>
 8001f40:	683b      	ldr	r3, [r7, #0]
 8001f42:	1c99      	adds	r1, r3, #2
 8001f44:	683b      	ldr	r3, [r7, #0]
 8001f46:	1cda      	adds	r2, r3, #3
 8001f48:	6b3b      	ldr	r3, [r7, #48]	; 0x30
 8001f4a:	f8b3 3172 	ldrh.w	r3, [r3, #370]	; 0x172
 8001f4e:	b29b      	uxth	r3, r3
 8001f50:	4608      	mov	r0, r1
 8001f52:	4611      	mov	r1, r2
 8001f54:	461a      	mov	r2, r3
 8001f56:	f7fe fa43 	bl	80003e0 <pack16>
 8001f5a:	683b      	ldr	r3, [r7, #0]
 8001f5c:	1d19      	adds	r1, r3, #4
 8001f5e:	683b      	ldr	r3, [r7, #0]
 8001f60:	1d5a      	adds	r2, r3, #5
 8001f62:	6b3b      	ldr	r3, [r7, #48]	; 0x30
 8001f64:	f8b3 3174 	ldrh.w	r3, [r3, #372]	; 0x174
 8001f68:	b29b      	uxth	r3, r3
 8001f6a:	4608      	mov	r0, r1
 8001f6c:	4611      	mov	r1, r2
 8001f6e:	461a      	mov	r2, r3
 8001f70:	f7fe fa36 	bl	80003e0 <pack16>
 8001f74:	f001 b890 	b.w	8003098 <build_response+0x2b74>
        case 0x65U: pack16(&data[0],&data[1],(uint16_t)r->calib_scale.temp3_scl);      pack16(&data[2],&data[3],(uint16_t)r->calib_scale.temp4_scl);      pack16(&data[4],&data[5],(uint16_t)r->calib_scale.temp5_scl);      break;
 8001f78:	683b      	ldr	r3, [r7, #0]
 8001f7a:	1c5a      	adds	r2, r3, #1
 8001f7c:	6b3b      	ldr	r3, [r7, #48]	; 0x30
 8001f7e:	f8b3 3176 	ldrh.w	r3, [r3, #374]	; 0x176
 8001f82:	b29b      	uxth	r3, r3
 8001f84:	6838      	ldr	r0, [r7, #0]
 8001f86:	4611      	mov	r1, r2
 8001f88:	461a      	mov	r2, r3
 8001f8a:	f7fe fa29 	bl	80003e0 <pack16>
 8001f8e:	683b      	ldr	r3, [r7, #0]
 8001f90:	1c99      	adds	r1, r3, #2
 8001f92:	683b      	ldr	r3, [r7, #0]
 8001f94:	1cda      	adds	r2, r3, #3
 8001f96:	6b3b      	ldr	r3, [r7, #48]	; 0x30
 8001f98:	f8b3 3178 	ldrh.w	r3, [r3, #376]	; 0x178
 8001f9c:	b29b      	uxth	r3, r3
 8001f9e:	4608      	mov	r0, r1
 8001fa0:	4611      	mov	r1, r2
 8001fa2:	461a      	mov	r2, r3
 8001fa4:	f7fe fa1c 	bl	80003e0 <pack16>
 8001fa8:	683b      	ldr	r3, [r7, #0]
 8001faa:	1d19      	adds	r1, r3, #4
 8001fac:	683b      	ldr	r3, [r7, #0]
 8001fae:	1d5a      	adds	r2, r3, #5
 8001fb0:	6b3b      	ldr	r3, [r7, #48]	; 0x30
 8001fb2:	f8b3 317a 	ldrh.w	r3, [r3, #378]	; 0x17a
 8001fb6:	b29b      	uxth	r3, r3
 8001fb8:	4608      	mov	r0, r1
 8001fba:	4611      	mov	r1, r2
 8001fbc:	461a      	mov	r2, r3
 8001fbe:	f7fe fa0f 	bl	80003e0 <pack16>
 8001fc2:	f001 b869 	b.w	8003098 <build_response+0x2b74>
        case 0x66U: pack16(&data[0],&data[1],(uint16_t)r->calib_scale.ex_temp0_scl);   pack16(&data[2],&data[3],(uint16_t)r->calib_scale.ex_temp1_scl);   break;
 8001fc6:	683b      	ldr	r3, [r7, #0]
 8001fc8:	1c5a      	adds	r2, r3, #1
 8001fca:	6b3b      	ldr	r3, [r7, #48]	; 0x30
 8001fcc:	f8b3 317c 	ldrh.w	r3, [r3, #380]	; 0x17c
 8001fd0:	b29b      	uxth	r3, r3
 8001fd2:	6838      	ldr	r0, [r7, #0]
 8001fd4:	4611      	mov	r1, r2
 8001fd6:	461a      	mov	r2, r3
 8001fd8:	f7fe fa02 	bl	80003e0 <pack16>
 8001fdc:	683b      	ldr	r3, [r7, #0]
 8001fde:	1c99      	adds	r1, r3, #2
 8001fe0:	683b      	ldr	r3, [r7, #0]
 8001fe2:	1cda      	adds	r2, r3, #3
 8001fe4:	6b3b      	ldr	r3, [r7, #48]	; 0x30
 8001fe6:	f8b3 317e 	ldrh.w	r3, [r3, #382]	; 0x17e
 8001fea:	b29b      	uxth	r3, r3
 8001fec:	4608      	mov	r0, r1
 8001fee:	4611      	mov	r1, r2
 8001ff0:	461a      	mov	r2, r3
 8001ff2:	f7fe f9f5 	bl	80003e0 <pack16>
 8001ff6:	f001 b84f 	b.w	8003098 <build_response+0x2b74>
        case 0x67U: pack16(&data[0],&data[1],(uint16_t)r->calib_scale.lidar_a_12v_scl); pack16(&data[2],&data[3],(uint16_t)r->calib_scale.lidar_b_12v_scl); break;
 8001ffa:	683b      	ldr	r3, [r7, #0]
 8001ffc:	1c5a      	adds	r2, r3, #1
 8001ffe:	6b3b      	ldr	r3, [r7, #48]	; 0x30
 8002000:	f8b3 3180 	ldrh.w	r3, [r3, #384]	; 0x180
 8002004:	b29b      	uxth	r3, r3
 8002006:	6838      	ldr	r0, [r7, #0]
 8002008:	4611      	mov	r1, r2
 800200a:	461a      	mov	r2, r3
 800200c:	f7fe f9e8 	bl	80003e0 <pack16>
 8002010:	683b      	ldr	r3, [r7, #0]
 8002012:	1c99      	adds	r1, r3, #2
 8002014:	683b      	ldr	r3, [r7, #0]
 8002016:	1cda      	adds	r2, r3, #3
 8002018:	6b3b      	ldr	r3, [r7, #48]	; 0x30
 800201a:	f8b3 3182 	ldrh.w	r3, [r3, #386]	; 0x182
 800201e:	b29b      	uxth	r3, r3
 8002020:	4608      	mov	r0, r1
 8002022:	4611      	mov	r1, r2
 8002024:	461a      	mov	r2, r3
 8002026:	f7fe f9db 	bl	80003e0 <pack16>
 800202a:	f001 b835 	b.w	8003098 <build_response+0x2b74>
        case 0x68U: pack16(&data[0],&data[1],(uint16_t)r->calib_scale.sto_24v_scl);    pack16(&data[2],&data[3],(uint16_t)r->calib_scale.chg_hvil_out_scl); break;
 800202e:	683b      	ldr	r3, [r7, #0]
 8002030:	1c5a      	adds	r2, r3, #1
 8002032:	6b3b      	ldr	r3, [r7, #48]	; 0x30
 8002034:	f8b3 3184 	ldrh.w	r3, [r3, #388]	; 0x184
 8002038:	b29b      	uxth	r3, r3
 800203a:	6838      	ldr	r0, [r7, #0]
 800203c:	4611      	mov	r1, r2
 800203e:	461a      	mov	r2, r3
 8002040:	f7fe f9ce 	bl	80003e0 <pack16>
 8002044:	683b      	ldr	r3, [r7, #0]
 8002046:	1c99      	adds	r1, r3, #2
 8002048:	683b      	ldr	r3, [r7, #0]
 800204a:	1cda      	adds	r2, r3, #3
 800204c:	6b3b      	ldr	r3, [r7, #48]	; 0x30
 800204e:	f8b3 3186 	ldrh.w	r3, [r3, #390]	; 0x186
 8002052:	b29b      	uxth	r3, r3
 8002054:	4608      	mov	r0, r1
 8002056:	4611      	mov	r1, r2
 8002058:	461a      	mov	r2, r3
 800205a:	f7fe f9c1 	bl	80003e0 <pack16>
 800205e:	f001 b81b 	b.w	8003098 <build_response+0x2b74>
        case 0x69U: pack16(&data[0],&data[1],(uint16_t)r->calib_scale.eth_2v5_scl);    pack16(&data[2],&data[3],(uint16_t)r->calib_scale.eth_1v2_scl);    break;
 8002062:	683b      	ldr	r3, [r7, #0]
 8002064:	1c5a      	adds	r2, r3, #1
 8002066:	6b3b      	ldr	r3, [r7, #48]	; 0x30
 8002068:	f8b3 3188 	ldrh.w	r3, [r3, #392]	; 0x188
 800206c:	b29b      	uxth	r3, r3
 800206e:	6838      	ldr	r0, [r7, #0]
 8002070:	4611      	mov	r1, r2
 8002072:	461a      	mov	r2, r3
 8002074:	f7fe f9b4 	bl	80003e0 <pack16>
 8002078:	683b      	ldr	r3, [r7, #0]
 800207a:	1c99      	adds	r1, r3, #2
 800207c:	683b      	ldr	r3, [r7, #0]
 800207e:	1cda      	adds	r2, r3, #3
 8002080:	6b3b      	ldr	r3, [r7, #48]	; 0x30
 8002082:	f8b3 318a 	ldrh.w	r3, [r3, #394]	; 0x18a
 8002086:	b29b      	uxth	r3, r3
 8002088:	4608      	mov	r0, r1
 800208a:	4611      	mov	r1, r2
 800208c:	461a      	mov	r2, r3
 800208e:	f7fe f9a7 	bl	80003e0 <pack16>
 8002092:	f001 b801 	b.w	8003098 <build_response+0x2b74>
        case 0x6AU: pack16(&data[0],&data[1],(uint16_t)r->calib_scale.ecat_3v3_scl);   pack16(&data[2],&data[3],(uint16_t)r->calib_scale.ecat_1v2_scl);   break;
 8002096:	683b      	ldr	r3, [r7, #0]
 8002098:	1c5a      	adds	r2, r3, #1
 800209a:	6b3b      	ldr	r3, [r7, #48]	; 0x30
 800209c:	f8b3 318c 	ldrh.w	r3, [r3, #396]	; 0x18c
 80020a0:	b29b      	uxth	r3, r3
 80020a2:	6838      	ldr	r0, [r7, #0]
 80020a4:	4611      	mov	r1, r2
 80020a6:	461a      	mov	r2, r3
 80020a8:	f7fe f99a 	bl	80003e0 <pack16>
 80020ac:	683b      	ldr	r3, [r7, #0]
 80020ae:	1c99      	adds	r1, r3, #2
 80020b0:	683b      	ldr	r3, [r7, #0]
 80020b2:	1cda      	adds	r2, r3, #3
 80020b4:	6b3b      	ldr	r3, [r7, #48]	; 0x30
 80020b6:	f8b3 318e 	ldrh.w	r3, [r3, #398]	; 0x18e
 80020ba:	b29b      	uxth	r3, r3
 80020bc:	4608      	mov	r0, r1
 80020be:	4611      	mov	r1, r2
 80020c0:	461a      	mov	r2, r3
 80020c2:	f7fe f98d 	bl	80003e0 <pack16>
 80020c6:	f000 bfe7 	b.w	8003098 <build_response+0x2b74>

        /* === 16-BIT EU (0x70-0x8A) === */
        case 0x70U: pack16(&data[0],&data[1],(uint16_t)r->eu.chg_curr_eu);   pack16(&data[2],&data[3],(uint16_t)r->eu.batt1_curr_eu);   pack16(&data[4],&data[5],(uint16_t)r->eu.batt2_curr_eu);   break;
 80020ca:	683b      	ldr	r3, [r7, #0]
 80020cc:	1c5a      	adds	r2, r3, #1
 80020ce:	6b3b      	ldr	r3, [r7, #48]	; 0x30
 80020d0:	f8b3 3190 	ldrh.w	r3, [r3, #400]	; 0x190
 80020d4:	b29b      	uxth	r3, r3
 80020d6:	6838      	ldr	r0, [r7, #0]
 80020d8:	4611      	mov	r1, r2
 80020da:	461a      	mov	r2, r3
 80020dc:	f7fe f980 	bl	80003e0 <pack16>
 80020e0:	683b      	ldr	r3, [r7, #0]
 80020e2:	1c99      	adds	r1, r3, #2
 80020e4:	683b      	ldr	r3, [r7, #0]
 80020e6:	1cda      	adds	r2, r3, #3
 80020e8:	6b3b      	ldr	r3, [r7, #48]	; 0x30
 80020ea:	f8b3 3192 	ldrh.w	r3, [r3, #402]	; 0x192
 80020ee:	b29b      	uxth	r3, r3
 80020f0:	4608      	mov	r0, r1
 80020f2:	4611      	mov	r1, r2
 80020f4:	461a      	mov	r2, r3
 80020f6:	f7fe f973 	bl	80003e0 <pack16>
 80020fa:	683b      	ldr	r3, [r7, #0]
 80020fc:	1d19      	adds	r1, r3, #4
 80020fe:	683b      	ldr	r3, [r7, #0]
 8002100:	1d5a      	adds	r2, r3, #5
 8002102:	6b3b      	ldr	r3, [r7, #48]	; 0x30
 8002104:	f8b3 3194 	ldrh.w	r3, [r3, #404]	; 0x194
 8002108:	b29b      	uxth	r3, r3
 800210a:	4608      	mov	r0, r1
 800210c:	4611      	mov	r1, r2
 800210e:	461a      	mov	r2, r3
 8002110:	f7fe f966 	bl	80003e0 <pack16>
 8002114:	f000 bfc0 	b.w	8003098 <build_response+0x2b74>
        case 0x71U: pack16(&data[0],&data[1],(uint16_t)r->eu.ll_imon_eu);    pack16(&data[2],&data[3],(uint16_t)r->eu.rl_imon_eu);    pack16(&data[4],&data[5],(uint16_t)r->eu.la_imon_eu);    break;
 8002118:	683b      	ldr	r3, [r7, #0]
 800211a:	1c5a      	adds	r2, r3, #1
 800211c:	6b3b      	ldr	r3, [r7, #48]	; 0x30
 800211e:	f8b3 3196 	ldrh.w	r3, [r3, #406]	; 0x196
 8002122:	b29b      	uxth	r3, r3
 8002124:	6838      	ldr	r0, [r7, #0]
 8002126:	4611      	mov	r1, r2
 8002128:	461a      	mov	r2, r3
 800212a:	f7fe f959 	bl	80003e0 <pack16>
 800212e:	683b      	ldr	r3, [r7, #0]
 8002130:	1c99      	adds	r1, r3, #2
 8002132:	683b      	ldr	r3, [r7, #0]
 8002134:	1cda      	adds	r2, r3, #3
 8002136:	6b3b      	ldr	r3, [r7, #48]	; 0x30
 8002138:	f8b3 3198 	ldrh.w	r3, [r3, #408]	; 0x198
 800213c:	b29b      	uxth	r3, r3
 800213e:	4608      	mov	r0, r1
 8002140:	4611      	mov	r1, r2
 8002142:	461a      	mov	r2, r3
 8002144:	f7fe f94c 	bl	80003e0 <pack16>
 8002148:	683b      	ldr	r3, [r7, #0]
 800214a:	1d19      	adds	r1, r3, #4
 800214c:	683b      	ldr	r3, [r7, #0]
 800214e:	1d5a      	adds	r2, r3, #5
 8002150:	6b3b      	ldr	r3, [r7, #48]	; 0x30
 8002152:	f8b3 319a 	ldrh.w	r3, [r3, #410]	; 0x19a
 8002156:	b29b      	uxth	r3, r3
 8002158:	4608      	mov	r0, r1
 800215a:	4611      	mov	r1, r2
 800215c:	461a      	mov	r2, r3
 800215e:	f7fe f93f 	bl	80003e0 <pack16>
 8002162:	f000 bf99 	b.w	8003098 <build_response+0x2b74>
        case 0x72U: pack16(&data[0],&data[1],(uint16_t)r->eu.ra_imon_eu);    pack16(&data[2],&data[3],(uint16_t)r->eu.tr_imon_eu);    pack16(&data[4],&data[5],(uint16_t)r->eu.chg_in_eu);    break;
 8002166:	683b      	ldr	r3, [r7, #0]
 8002168:	1c5a      	adds	r2, r3, #1
 800216a:	6b3b      	ldr	r3, [r7, #48]	; 0x30
 800216c:	f8b3 319c 	ldrh.w	r3, [r3, #412]	; 0x19c
 8002170:	b29b      	uxth	r3, r3
 8002172:	6838      	ldr	r0, [r7, #0]
 8002174:	4611      	mov	r1, r2
 8002176:	461a      	mov	r2, r3
 8002178:	f7fe f932 	bl	80003e0 <pack16>
 800217c:	683b      	ldr	r3, [r7, #0]
 800217e:	1c99      	adds	r1, r3, #2
 8002180:	683b      	ldr	r3, [r7, #0]
 8002182:	1cda      	adds	r2, r3, #3
 8002184:	6b3b      	ldr	r3, [r7, #48]	; 0x30
 8002186:	f8b3 319e 	ldrh.w	r3, [r3, #414]	; 0x19e
 800218a:	b29b      	uxth	r3, r3
 800218c:	4608      	mov	r0, r1
 800218e:	4611      	mov	r1, r2
 8002190:	461a      	mov	r2, r3
 8002192:	f7fe f925 	bl	80003e0 <pack16>
 8002196:	683b      	ldr	r3, [r7, #0]
 8002198:	1d19      	adds	r1, r3, #4
 800219a:	683b      	ldr	r3, [r7, #0]
 800219c:	1d5a      	adds	r2, r3, #5
 800219e:	6b3b      	ldr	r3, [r7, #48]	; 0x30
 80021a0:	f8b3 31a0 	ldrh.w	r3, [r3, #416]	; 0x1a0
 80021a4:	b29b      	uxth	r3, r3
 80021a6:	4608      	mov	r0, r1
 80021a8:	4611      	mov	r1, r2
 80021aa:	461a      	mov	r2, r3
 80021ac:	f7fe f918 	bl	80003e0 <pack16>
 80021b0:	f000 bf72 	b.w	8003098 <build_response+0x2b74>
        case 0x73U: pack16(&data[0],&data[1],(uint16_t)r->eu.hv_eu);         pack16(&data[2],&data[3],(uint16_t)r->eu.batt1_in_eu);   pack16(&data[4],&data[5],(uint16_t)r->eu.batt2_in_eu);   break;
 80021b4:	683b      	ldr	r3, [r7, #0]
 80021b6:	1c5a      	adds	r2, r3, #1
 80021b8:	6b3b      	ldr	r3, [r7, #48]	; 0x30
 80021ba:	f8b3 31a2 	ldrh.w	r3, [r3, #418]	; 0x1a2
 80021be:	b29b      	uxth	r3, r3
 80021c0:	6838      	ldr	r0, [r7, #0]
 80021c2:	4611      	mov	r1, r2
 80021c4:	461a      	mov	r2, r3
 80021c6:	f7fe f90b 	bl	80003e0 <pack16>
 80021ca:	683b      	ldr	r3, [r7, #0]
 80021cc:	1c99      	adds	r1, r3, #2
 80021ce:	683b      	ldr	r3, [r7, #0]
 80021d0:	1cda      	adds	r2, r3, #3
 80021d2:	6b3b      	ldr	r3, [r7, #48]	; 0x30
 80021d4:	f8b3 31a4 	ldrh.w	r3, [r3, #420]	; 0x1a4
 80021d8:	b29b      	uxth	r3, r3
 80021da:	4608      	mov	r0, r1
 80021dc:	4611      	mov	r1, r2
 80021de:	461a      	mov	r2, r3
 80021e0:	f7fe f8fe 	bl	80003e0 <pack16>
 80021e4:	683b      	ldr	r3, [r7, #0]
 80021e6:	1d19      	adds	r1, r3, #4
 80021e8:	683b      	ldr	r3, [r7, #0]
 80021ea:	1d5a      	adds	r2, r3, #5
 80021ec:	6b3b      	ldr	r3, [r7, #48]	; 0x30
 80021ee:	f8b3 31a6 	ldrh.w	r3, [r3, #422]	; 0x1a6
 80021f2:	b29b      	uxth	r3, r3
 80021f4:	4608      	mov	r0, r1
 80021f6:	4611      	mov	r1, r2
 80021f8:	461a      	mov	r2, r3
 80021fa:	f7fe f8f1 	bl	80003e0 <pack16>
 80021fe:	f000 bf4b 	b.w	8003098 <build_response+0x2b74>
        case 0x74U: pack16(&data[0],&data[1],(uint16_t)r->eu.nk_imon_eu);    pack16(&data[2],&data[3],(uint16_t)r->eu.mot_bus_eu);    pack16(&data[4],&data[5],(uint16_t)r->eu.chg_hv_eu);    break;
 8002202:	683b      	ldr	r3, [r7, #0]
 8002204:	1c5a      	adds	r2, r3, #1
 8002206:	6b3b      	ldr	r3, [r7, #48]	; 0x30
 8002208:	f8b3 31a8 	ldrh.w	r3, [r3, #424]	; 0x1a8
 800220c:	b29b      	uxth	r3, r3
 800220e:	6838      	ldr	r0, [r7, #0]
 8002210:	4611      	mov	r1, r2
 8002212:	461a      	mov	r2, r3
 8002214:	f7fe f8e4 	bl	80003e0 <pack16>
 8002218:	683b      	ldr	r3, [r7, #0]
 800221a:	1c99      	adds	r1, r3, #2
 800221c:	683b      	ldr	r3, [r7, #0]
 800221e:	1cda      	adds	r2, r3, #3
 8002220:	6b3b      	ldr	r3, [r7, #48]	; 0x30
 8002222:	f8b3 31aa 	ldrh.w	r3, [r3, #426]	; 0x1aa
 8002226:	b29b      	uxth	r3, r3
 8002228:	4608      	mov	r0, r1
 800222a:	4611      	mov	r1, r2
 800222c:	461a      	mov	r2, r3
 800222e:	f7fe f8d7 	bl	80003e0 <pack16>
 8002232:	683b      	ldr	r3, [r7, #0]
 8002234:	1d19      	adds	r1, r3, #4
 8002236:	683b      	ldr	r3, [r7, #0]
 8002238:	1d5a      	adds	r2, r3, #5
 800223a:	6b3b      	ldr	r3, [r7, #48]	; 0x30
 800223c:	f8b3 31ac 	ldrh.w	r3, [r3, #428]	; 0x1ac
 8002240:	b29b      	uxth	r3, r3
 8002242:	4608      	mov	r0, r1
 8002244:	4611      	mov	r1, r2
 8002246:	461a      	mov	r2, r3
 8002248:	f7fe f8ca 	bl	80003e0 <pack16>
 800224c:	f000 bf24 	b.w	8003098 <build_response+0x2b74>
        case 0x75U: pack16(&data[0],&data[1],(uint16_t)r->eu.user_hv_eu);    pack16(&data[2],&data[3],(uint16_t)r->eu.user_hv_curr_eu); break;
 8002250:	683b      	ldr	r3, [r7, #0]
 8002252:	1c5a      	adds	r2, r3, #1
 8002254:	6b3b      	ldr	r3, [r7, #48]	; 0x30
 8002256:	f8b3 31ae 	ldrh.w	r3, [r3, #430]	; 0x1ae
 800225a:	b29b      	uxth	r3, r3
 800225c:	6838      	ldr	r0, [r7, #0]
 800225e:	4611      	mov	r1, r2
 8002260:	461a      	mov	r2, r3
 8002262:	f7fe f8bd 	bl	80003e0 <pack16>
 8002266:	683b      	ldr	r3, [r7, #0]
 8002268:	1c99      	adds	r1, r3, #2
 800226a:	683b      	ldr	r3, [r7, #0]
 800226c:	1cda      	adds	r2, r3, #3
 800226e:	6b3b      	ldr	r3, [r7, #48]	; 0x30
 8002270:	f8b3 31b0 	ldrh.w	r3, [r3, #432]	; 0x1b0
 8002274:	b29b      	uxth	r3, r3
 8002276:	4608      	mov	r0, r1
 8002278:	4611      	mov	r1, r2
 800227a:	461a      	mov	r2, r3
 800227c:	f7fe f8b0 	bl	80003e0 <pack16>
 8002280:	f000 bf0a 	b.w	8003098 <build_response+0x2b74>
        case 0x76U: pack16(&data[0],&data[1],(uint16_t)r->eu.pc_24v_eu);     pack16(&data[2],&data[3],(uint16_t)r->eu.pc_24v_imon_eu); break;
 8002284:	683b      	ldr	r3, [r7, #0]
 8002286:	1c5a      	adds	r2, r3, #1
 8002288:	6b3b      	ldr	r3, [r7, #48]	; 0x30
 800228a:	f8b3 31b2 	ldrh.w	r3, [r3, #434]	; 0x1b2
 800228e:	b29b      	uxth	r3, r3
 8002290:	6838      	ldr	r0, [r7, #0]
 8002292:	4611      	mov	r1, r2
 8002294:	461a      	mov	r2, r3
 8002296:	f7fe f8a3 	bl	80003e0 <pack16>
 800229a:	683b      	ldr	r3, [r7, #0]
 800229c:	1c99      	adds	r1, r3, #2
 800229e:	683b      	ldr	r3, [r7, #0]
 80022a0:	1cda      	adds	r2, r3, #3
 80022a2:	6b3b      	ldr	r3, [r7, #48]	; 0x30
 80022a4:	f8b3 31b4 	ldrh.w	r3, [r3, #436]	; 0x1b4
 80022a8:	b29b      	uxth	r3, r3
 80022aa:	4608      	mov	r0, r1
 80022ac:	4611      	mov	r1, r2
 80022ae:	461a      	mov	r2, r3
 80022b0:	f7fe f896 	bl	80003e0 <pack16>
 80022b4:	f000 bef0 	b.w	8003098 <build_response+0x2b74>
        case 0x77U: pack16(&data[0],&data[1],(uint16_t)r->eu.user_24v_eu);   pack16(&data[2],&data[3],(uint16_t)r->eu.user_24v_imon_eu); break;
 80022b8:	683b      	ldr	r3, [r7, #0]
 80022ba:	1c5a      	adds	r2, r3, #1
 80022bc:	6b3b      	ldr	r3, [r7, #48]	; 0x30
 80022be:	f8b3 31b6 	ldrh.w	r3, [r3, #438]	; 0x1b6
 80022c2:	b29b      	uxth	r3, r3
 80022c4:	6838      	ldr	r0, [r7, #0]
 80022c6:	4611      	mov	r1, r2
 80022c8:	461a      	mov	r2, r3
 80022ca:	f7fe f889 	bl	80003e0 <pack16>
 80022ce:	683b      	ldr	r3, [r7, #0]
 80022d0:	1c99      	adds	r1, r3, #2
 80022d2:	683b      	ldr	r3, [r7, #0]
 80022d4:	1cda      	adds	r2, r3, #3
 80022d6:	6b3b      	ldr	r3, [r7, #48]	; 0x30
 80022d8:	f8b3 31b8 	ldrh.w	r3, [r3, #440]	; 0x1b8
 80022dc:	b29b      	uxth	r3, r3
 80022de:	4608      	mov	r0, r1
 80022e0:	4611      	mov	r1, r2
 80022e2:	461a      	mov	r2, r3
 80022e4:	f7fe f87c 	bl	80003e0 <pack16>
 80022e8:	f000 bed6 	b.w	8003098 <build_response+0x2b74>
        case 0x78U: pack16(&data[0],&data[1],(uint16_t)r->eu.pc_a_12v_eu);   pack16(&data[2],&data[3],(uint16_t)r->eu.pc_a_12v_imon_eu); break;
 80022ec:	683b      	ldr	r3, [r7, #0]
 80022ee:	1c5a      	adds	r2, r3, #1
 80022f0:	6b3b      	ldr	r3, [r7, #48]	; 0x30
 80022f2:	f8b3 31ba 	ldrh.w	r3, [r3, #442]	; 0x1ba
 80022f6:	b29b      	uxth	r3, r3
 80022f8:	6838      	ldr	r0, [r7, #0]
 80022fa:	4611      	mov	r1, r2
 80022fc:	461a      	mov	r2, r3
 80022fe:	f7fe f86f 	bl	80003e0 <pack16>
 8002302:	683b      	ldr	r3, [r7, #0]
 8002304:	1c99      	adds	r1, r3, #2
 8002306:	683b      	ldr	r3, [r7, #0]
 8002308:	1cda      	adds	r2, r3, #3
 800230a:	6b3b      	ldr	r3, [r7, #48]	; 0x30
 800230c:	f8b3 31bc 	ldrh.w	r3, [r3, #444]	; 0x1bc
 8002310:	b29b      	uxth	r3, r3
 8002312:	4608      	mov	r0, r1
 8002314:	4611      	mov	r1, r2
 8002316:	461a      	mov	r2, r3
 8002318:	f7fe f862 	bl	80003e0 <pack16>
 800231c:	f000 bebc 	b.w	8003098 <build_response+0x2b74>
        case 0x79U: pack16(&data[0],&data[1],(uint16_t)r->eu.pc_b_12v_eu);   pack16(&data[2],&data[3],(uint16_t)r->eu.pc_b_12v_imon_eu); break;
 8002320:	683b      	ldr	r3, [r7, #0]
 8002322:	1c5a      	adds	r2, r3, #1
 8002324:	6b3b      	ldr	r3, [r7, #48]	; 0x30
 8002326:	f8b3 31be 	ldrh.w	r3, [r3, #446]	; 0x1be
 800232a:	b29b      	uxth	r3, r3
 800232c:	6838      	ldr	r0, [r7, #0]
 800232e:	4611      	mov	r1, r2
 8002330:	461a      	mov	r2, r3
 8002332:	f7fe f855 	bl	80003e0 <pack16>
 8002336:	683b      	ldr	r3, [r7, #0]
 8002338:	1c99      	adds	r1, r3, #2
 800233a:	683b      	ldr	r3, [r7, #0]
 800233c:	1cda      	adds	r2, r3, #3
 800233e:	6b3b      	ldr	r3, [r7, #48]	; 0x30
 8002340:	f8b3 31c0 	ldrh.w	r3, [r3, #448]	; 0x1c0
 8002344:	b29b      	uxth	r3, r3
 8002346:	4608      	mov	r0, r1
 8002348:	4611      	mov	r1, r2
 800234a:	461a      	mov	r2, r3
 800234c:	f7fe f848 	bl	80003e0 <pack16>
 8002350:	f000 bea2 	b.w	8003098 <build_response+0x2b74>
        case 0x7AU: pack16(&data[0],&data[1],(uint16_t)r->eu.v24_imon0_eu);  pack16(&data[2],&data[3],(uint16_t)r->eu.v24_imon1_eu);  pack16(&data[4],&data[5],(uint16_t)r->eu.v24_imon2_eu);  break;
 8002354:	683b      	ldr	r3, [r7, #0]
 8002356:	1c5a      	adds	r2, r3, #1
 8002358:	6b3b      	ldr	r3, [r7, #48]	; 0x30
 800235a:	f8b3 31c2 	ldrh.w	r3, [r3, #450]	; 0x1c2
 800235e:	b29b      	uxth	r3, r3
 8002360:	6838      	ldr	r0, [r7, #0]
 8002362:	4611      	mov	r1, r2
 8002364:	461a      	mov	r2, r3
 8002366:	f7fe f83b 	bl	80003e0 <pack16>
 800236a:	683b      	ldr	r3, [r7, #0]
 800236c:	1c99      	adds	r1, r3, #2
 800236e:	683b      	ldr	r3, [r7, #0]
 8002370:	1cda      	adds	r2, r3, #3
 8002372:	6b3b      	ldr	r3, [r7, #48]	; 0x30
 8002374:	f8b3 31c4 	ldrh.w	r3, [r3, #452]	; 0x1c4
 8002378:	b29b      	uxth	r3, r3
 800237a:	4608      	mov	r0, r1
 800237c:	4611      	mov	r1, r2
 800237e:	461a      	mov	r2, r3
 8002380:	f7fe f82e 	bl	80003e0 <pack16>
 8002384:	683b      	ldr	r3, [r7, #0]
 8002386:	1d19      	adds	r1, r3, #4
 8002388:	683b      	ldr	r3, [r7, #0]
 800238a:	1d5a      	adds	r2, r3, #5
 800238c:	6b3b      	ldr	r3, [r7, #48]	; 0x30
 800238e:	f8b3 31c6 	ldrh.w	r3, [r3, #454]	; 0x1c6
 8002392:	b29b      	uxth	r3, r3
 8002394:	4608      	mov	r0, r1
 8002396:	4611      	mov	r1, r2
 8002398:	461a      	mov	r2, r3
 800239a:	f7fe f821 	bl	80003e0 <pack16>
 800239e:	f000 be7b 	b.w	8003098 <build_response+0x2b74>
        case 0x7BU: pack16(&data[0],&data[1],(uint16_t)r->eu.v12_imon0_eu);  pack16(&data[2],&data[3],(uint16_t)r->eu.v12_imon1_eu);  pack16(&data[4],&data[5],(uint16_t)r->eu.v12_imon2_eu);  break;
 80023a2:	683b      	ldr	r3, [r7, #0]
 80023a4:	1c5a      	adds	r2, r3, #1
 80023a6:	6b3b      	ldr	r3, [r7, #48]	; 0x30
 80023a8:	f8b3 31c8 	ldrh.w	r3, [r3, #456]	; 0x1c8
 80023ac:	b29b      	uxth	r3, r3
 80023ae:	6838      	ldr	r0, [r7, #0]
 80023b0:	4611      	mov	r1, r2
 80023b2:	461a      	mov	r2, r3
 80023b4:	f7fe f814 	bl	80003e0 <pack16>
 80023b8:	683b      	ldr	r3, [r7, #0]
 80023ba:	1c99      	adds	r1, r3, #2
 80023bc:	683b      	ldr	r3, [r7, #0]
 80023be:	1cda      	adds	r2, r3, #3
 80023c0:	6b3b      	ldr	r3, [r7, #48]	; 0x30
 80023c2:	f8b3 31ca 	ldrh.w	r3, [r3, #458]	; 0x1ca
 80023c6:	b29b      	uxth	r3, r3
 80023c8:	4608      	mov	r0, r1
 80023ca:	4611      	mov	r1, r2
 80023cc:	461a      	mov	r2, r3
 80023ce:	f7fe f807 	bl	80003e0 <pack16>
 80023d2:	683b      	ldr	r3, [r7, #0]
 80023d4:	1d19      	adds	r1, r3, #4
 80023d6:	683b      	ldr	r3, [r7, #0]
 80023d8:	1d5a      	adds	r2, r3, #5
 80023da:	6b3b      	ldr	r3, [r7, #48]	; 0x30
 80023dc:	f8b3 31cc 	ldrh.w	r3, [r3, #460]	; 0x1cc
 80023e0:	b29b      	uxth	r3, r3
 80023e2:	4608      	mov	r0, r1
 80023e4:	4611      	mov	r1, r2
 80023e6:	461a      	mov	r2, r3
 80023e8:	f7fd fffa 	bl	80003e0 <pack16>
 80023ec:	f000 be54 	b.w	8003098 <build_response+0x2b74>
        case 0x7CU: pack16(&data[0],&data[1],(uint16_t)r->eu.v24_eu);        pack16(&data[2],&data[3],(uint16_t)r->eu.v12_eu);        break;
 80023f0:	683b      	ldr	r3, [r7, #0]
 80023f2:	1c5a      	adds	r2, r3, #1
 80023f4:	6b3b      	ldr	r3, [r7, #48]	; 0x30
 80023f6:	f8b3 31ce 	ldrh.w	r3, [r3, #462]	; 0x1ce
 80023fa:	b29b      	uxth	r3, r3
 80023fc:	6838      	ldr	r0, [r7, #0]
 80023fe:	4611      	mov	r1, r2
 8002400:	461a      	mov	r2, r3
 8002402:	f7fd ffed 	bl	80003e0 <pack16>
 8002406:	683b      	ldr	r3, [r7, #0]
 8002408:	1c99      	adds	r1, r3, #2
 800240a:	683b      	ldr	r3, [r7, #0]
 800240c:	1cda      	adds	r2, r3, #3
 800240e:	6b3b      	ldr	r3, [r7, #48]	; 0x30
 8002410:	f8b3 31d0 	ldrh.w	r3, [r3, #464]	; 0x1d0
 8002414:	b29b      	uxth	r3, r3
 8002416:	4608      	mov	r0, r1
 8002418:	4611      	mov	r1, r2
 800241a:	461a      	mov	r2, r3
 800241c:	f7fd ffe0 	bl	80003e0 <pack16>
 8002420:	f000 be3a 	b.w	8003098 <build_response+0x2b74>
        case 0x7DU: pack16(&data[0],&data[1],(uint16_t)r->eu.v5_eu);         pack16(&data[2],&data[3],(uint16_t)r->eu.v5_curr_eu);    break;
 8002424:	683b      	ldr	r3, [r7, #0]
 8002426:	1c5a      	adds	r2, r3, #1
 8002428:	6b3b      	ldr	r3, [r7, #48]	; 0x30
 800242a:	f8b3 31d2 	ldrh.w	r3, [r3, #466]	; 0x1d2
 800242e:	b29b      	uxth	r3, r3
 8002430:	6838      	ldr	r0, [r7, #0]
 8002432:	4611      	mov	r1, r2
 8002434:	461a      	mov	r2, r3
 8002436:	f7fd ffd3 	bl	80003e0 <pack16>
 800243a:	683b      	ldr	r3, [r7, #0]
 800243c:	1c99      	adds	r1, r3, #2
 800243e:	683b      	ldr	r3, [r7, #0]
 8002440:	1cda      	adds	r2, r3, #3
 8002442:	6b3b      	ldr	r3, [r7, #48]	; 0x30
 8002444:	f8b3 31d4 	ldrh.w	r3, [r3, #468]	; 0x1d4
 8002448:	b29b      	uxth	r3, r3
 800244a:	4608      	mov	r0, r1
 800244c:	4611      	mov	r1, r2
 800244e:	461a      	mov	r2, r3
 8002450:	f7fd ffc6 	bl	80003e0 <pack16>
 8002454:	f000 be20 	b.w	8003098 <build_response+0x2b74>
        case 0x7EU: pack16(&data[0],&data[1],(uint16_t)r->eu.v3v3_eu);       pack16(&data[2],&data[3],(uint16_t)r->eu.v3v3_curr_eu);  break;
 8002458:	683b      	ldr	r3, [r7, #0]
 800245a:	1c5a      	adds	r2, r3, #1
 800245c:	6b3b      	ldr	r3, [r7, #48]	; 0x30
 800245e:	f8b3 31d6 	ldrh.w	r3, [r3, #470]	; 0x1d6
 8002462:	b29b      	uxth	r3, r3
 8002464:	6838      	ldr	r0, [r7, #0]
 8002466:	4611      	mov	r1, r2
 8002468:	461a      	mov	r2, r3
 800246a:	f7fd ffb9 	bl	80003e0 <pack16>
 800246e:	683b      	ldr	r3, [r7, #0]
 8002470:	1c99      	adds	r1, r3, #2
 8002472:	683b      	ldr	r3, [r7, #0]
 8002474:	1cda      	adds	r2, r3, #3
 8002476:	6b3b      	ldr	r3, [r7, #48]	; 0x30
 8002478:	f8b3 31d8 	ldrh.w	r3, [r3, #472]	; 0x1d8
 800247c:	b29b      	uxth	r3, r3
 800247e:	4608      	mov	r0, r1
 8002480:	4611      	mov	r1, r2
 8002482:	461a      	mov	r2, r3
 8002484:	f7fd ffac 	bl	80003e0 <pack16>
 8002488:	f000 be06 	b.w	8003098 <build_response+0x2b74>
        case 0x7FU: pack16(&data[0],&data[1],(uint16_t)r->eu.aux_24v_eu);    pack16(&data[2],&data[3],(uint16_t)r->eu.aux_24v_curr_eu); break;
 800248c:	683b      	ldr	r3, [r7, #0]
 800248e:	1c5a      	adds	r2, r3, #1
 8002490:	6b3b      	ldr	r3, [r7, #48]	; 0x30
 8002492:	f8b3 31da 	ldrh.w	r3, [r3, #474]	; 0x1da
 8002496:	b29b      	uxth	r3, r3
 8002498:	6838      	ldr	r0, [r7, #0]
 800249a:	4611      	mov	r1, r2
 800249c:	461a      	mov	r2, r3
 800249e:	f7fd ff9f 	bl	80003e0 <pack16>
 80024a2:	683b      	ldr	r3, [r7, #0]
 80024a4:	1c99      	adds	r1, r3, #2
 80024a6:	683b      	ldr	r3, [r7, #0]
 80024a8:	1cda      	adds	r2, r3, #3
 80024aa:	6b3b      	ldr	r3, [r7, #48]	; 0x30
 80024ac:	f8b3 31dc 	ldrh.w	r3, [r3, #476]	; 0x1dc
 80024b0:	b29b      	uxth	r3, r3
 80024b2:	4608      	mov	r0, r1
 80024b4:	4611      	mov	r1, r2
 80024b6:	461a      	mov	r2, r3
 80024b8:	f7fd ff92 	bl	80003e0 <pack16>
 80024bc:	f000 bdec 	b.w	8003098 <build_response+0x2b74>
        case 0x80U: pack16(&data[0],&data[1],(uint16_t)r->eu.aux_12v_eu);    pack16(&data[2],&data[3],(uint16_t)r->eu.aux_12v_curr_eu); break;
 80024c0:	683b      	ldr	r3, [r7, #0]
 80024c2:	1c5a      	adds	r2, r3, #1
 80024c4:	6b3b      	ldr	r3, [r7, #48]	; 0x30
 80024c6:	f8b3 31de 	ldrh.w	r3, [r3, #478]	; 0x1de
 80024ca:	b29b      	uxth	r3, r3
 80024cc:	6838      	ldr	r0, [r7, #0]
 80024ce:	4611      	mov	r1, r2
 80024d0:	461a      	mov	r2, r3
 80024d2:	f7fd ff85 	bl	80003e0 <pack16>
 80024d6:	683b      	ldr	r3, [r7, #0]
 80024d8:	1c99      	adds	r1, r3, #2
 80024da:	683b      	ldr	r3, [r7, #0]
 80024dc:	1cda      	adds	r2, r3, #3
 80024de:	6b3b      	ldr	r3, [r7, #48]	; 0x30
 80024e0:	f8b3 31e0 	ldrh.w	r3, [r3, #480]	; 0x1e0
 80024e4:	b29b      	uxth	r3, r3
 80024e6:	4608      	mov	r0, r1
 80024e8:	4611      	mov	r1, r2
 80024ea:	461a      	mov	r2, r3
 80024ec:	f7fd ff78 	bl	80003e0 <pack16>
 80024f0:	f000 bdd2 	b.w	8003098 <build_response+0x2b74>
        case 0x81U: pack16(&data[0],&data[1],(uint16_t)r->eu.estop_rec_a_12v_eu); pack16(&data[2],&data[3],(uint16_t)r->eu.estop_rec_b_12v_eu); break;
 80024f4:	683b      	ldr	r3, [r7, #0]
 80024f6:	1c5a      	adds	r2, r3, #1
 80024f8:	6b3b      	ldr	r3, [r7, #48]	; 0x30
 80024fa:	f8b3 31e2 	ldrh.w	r3, [r3, #482]	; 0x1e2
 80024fe:	b29b      	uxth	r3, r3
 8002500:	6838      	ldr	r0, [r7, #0]
 8002502:	4611      	mov	r1, r2
 8002504:	461a      	mov	r2, r3
 8002506:	f7fd ff6b 	bl	80003e0 <pack16>
 800250a:	683b      	ldr	r3, [r7, #0]
 800250c:	1c99      	adds	r1, r3, #2
 800250e:	683b      	ldr	r3, [r7, #0]
 8002510:	1cda      	adds	r2, r3, #3
 8002512:	6b3b      	ldr	r3, [r7, #48]	; 0x30
 8002514:	f8b3 31e4 	ldrh.w	r3, [r3, #484]	; 0x1e4
 8002518:	b29b      	uxth	r3, r3
 800251a:	4608      	mov	r0, r1
 800251c:	4611      	mov	r1, r2
 800251e:	461a      	mov	r2, r3
 8002520:	f7fd ff5e 	bl	80003e0 <pack16>
 8002524:	f000 bdb8 	b.w	8003098 <build_response+0x2b74>
        case 0x82U: pack16(&data[0],&data[1],(uint16_t)r->eu.v12_b_imon3_eu); pack16(&data[2],&data[3],(uint16_t)r->eu.v12_b_imon4_eu); break;
 8002528:	683b      	ldr	r3, [r7, #0]
 800252a:	1c5a      	adds	r2, r3, #1
 800252c:	6b3b      	ldr	r3, [r7, #48]	; 0x30
 800252e:	f8b3 31e6 	ldrh.w	r3, [r3, #486]	; 0x1e6
 8002532:	b29b      	uxth	r3, r3
 8002534:	6838      	ldr	r0, [r7, #0]
 8002536:	4611      	mov	r1, r2
 8002538:	461a      	mov	r2, r3
 800253a:	f7fd ff51 	bl	80003e0 <pack16>
 800253e:	683b      	ldr	r3, [r7, #0]
 8002540:	1c99      	adds	r1, r3, #2
 8002542:	683b      	ldr	r3, [r7, #0]
 8002544:	1cda      	adds	r2, r3, #3
 8002546:	6b3b      	ldr	r3, [r7, #48]	; 0x30
 8002548:	f8b3 31e8 	ldrh.w	r3, [r3, #488]	; 0x1e8
 800254c:	b29b      	uxth	r3, r3
 800254e:	4608      	mov	r0, r1
 8002550:	4611      	mov	r1, r2
 8002552:	461a      	mov	r2, r3
 8002554:	f7fd ff44 	bl	80003e0 <pack16>
 8002558:	f000 bd9e 	b.w	8003098 <build_response+0x2b74>
        case 0x83U: pack16(&data[0],&data[1],(uint16_t)r->eu.hv_or_eu);      pack16(&data[2],&data[3],(uint16_t)r->eu.mb_sp_imon_eu); break;
 800255c:	683b      	ldr	r3, [r7, #0]
 800255e:	1c5a      	adds	r2, r3, #1
 8002560:	6b3b      	ldr	r3, [r7, #48]	; 0x30
 8002562:	f8b3 31ea 	ldrh.w	r3, [r3, #490]	; 0x1ea
 8002566:	b29b      	uxth	r3, r3
 8002568:	6838      	ldr	r0, [r7, #0]
 800256a:	4611      	mov	r1, r2
 800256c:	461a      	mov	r2, r3
 800256e:	f7fd ff37 	bl	80003e0 <pack16>
 8002572:	683b      	ldr	r3, [r7, #0]
 8002574:	1c99      	adds	r1, r3, #2
 8002576:	683b      	ldr	r3, [r7, #0]
 8002578:	1cda      	adds	r2, r3, #3
 800257a:	6b3b      	ldr	r3, [r7, #48]	; 0x30
 800257c:	f8b3 31ec 	ldrh.w	r3, [r3, #492]	; 0x1ec
 8002580:	b29b      	uxth	r3, r3
 8002582:	4608      	mov	r0, r1
 8002584:	4611      	mov	r1, r2
 8002586:	461a      	mov	r2, r3
 8002588:	f7fd ff2a 	bl	80003e0 <pack16>
 800258c:	f000 bd84 	b.w	8003098 <build_response+0x2b74>
        case 0x84U: pack16(&data[0],&data[1],(uint16_t)r->eu.temp0_eu);      pack16(&data[2],&data[3],(uint16_t)r->eu.temp1_eu);      pack16(&data[4],&data[5],(uint16_t)r->eu.temp2_eu);      break;
 8002590:	683b      	ldr	r3, [r7, #0]
 8002592:	1c5a      	adds	r2, r3, #1
 8002594:	6b3b      	ldr	r3, [r7, #48]	; 0x30
 8002596:	f8b3 31ee 	ldrh.w	r3, [r3, #494]	; 0x1ee
 800259a:	b29b      	uxth	r3, r3
 800259c:	6838      	ldr	r0, [r7, #0]
 800259e:	4611      	mov	r1, r2
 80025a0:	461a      	mov	r2, r3
 80025a2:	f7fd ff1d 	bl	80003e0 <pack16>
 80025a6:	683b      	ldr	r3, [r7, #0]
 80025a8:	1c99      	adds	r1, r3, #2
 80025aa:	683b      	ldr	r3, [r7, #0]
 80025ac:	1cda      	adds	r2, r3, #3
 80025ae:	6b3b      	ldr	r3, [r7, #48]	; 0x30
 80025b0:	f8b3 31f0 	ldrh.w	r3, [r3, #496]	; 0x1f0
 80025b4:	b29b      	uxth	r3, r3
 80025b6:	4608      	mov	r0, r1
 80025b8:	4611      	mov	r1, r2
 80025ba:	461a      	mov	r2, r3
 80025bc:	f7fd ff10 	bl	80003e0 <pack16>
 80025c0:	683b      	ldr	r3, [r7, #0]
 80025c2:	1d19      	adds	r1, r3, #4
 80025c4:	683b      	ldr	r3, [r7, #0]
 80025c6:	1d5a      	adds	r2, r3, #5
 80025c8:	6b3b      	ldr	r3, [r7, #48]	; 0x30
 80025ca:	f8b3 31f2 	ldrh.w	r3, [r3, #498]	; 0x1f2
 80025ce:	b29b      	uxth	r3, r3
 80025d0:	4608      	mov	r0, r1
 80025d2:	4611      	mov	r1, r2
 80025d4:	461a      	mov	r2, r3
 80025d6:	f7fd ff03 	bl	80003e0 <pack16>
 80025da:	f000 bd5d 	b.w	8003098 <build_response+0x2b74>
        case 0x85U: pack16(&data[0],&data[1],(uint16_t)r->eu.temp3_eu);      pack16(&data[2],&data[3],(uint16_t)r->eu.temp4_eu);      pack16(&data[4],&data[5],(uint16_t)r->eu.temp5_eu);      break;
 80025de:	683b      	ldr	r3, [r7, #0]
 80025e0:	1c5a      	adds	r2, r3, #1
 80025e2:	6b3b      	ldr	r3, [r7, #48]	; 0x30
 80025e4:	f8b3 31f4 	ldrh.w	r3, [r3, #500]	; 0x1f4
 80025e8:	b29b      	uxth	r3, r3
 80025ea:	6838      	ldr	r0, [r7, #0]
 80025ec:	4611      	mov	r1, r2
 80025ee:	461a      	mov	r2, r3
 80025f0:	f7fd fef6 	bl	80003e0 <pack16>
 80025f4:	683b      	ldr	r3, [r7, #0]
 80025f6:	1c99      	adds	r1, r3, #2
 80025f8:	683b      	ldr	r3, [r7, #0]
 80025fa:	1cda      	adds	r2, r3, #3
 80025fc:	6b3b      	ldr	r3, [r7, #48]	; 0x30
 80025fe:	f8b3 31f6 	ldrh.w	r3, [r3, #502]	; 0x1f6
 8002602:	b29b      	uxth	r3, r3
 8002604:	4608      	mov	r0, r1
 8002606:	4611      	mov	r1, r2
 8002608:	461a      	mov	r2, r3
 800260a:	f7fd fee9 	bl	80003e0 <pack16>
 800260e:	683b      	ldr	r3, [r7, #0]
 8002610:	1d19      	adds	r1, r3, #4
 8002612:	683b      	ldr	r3, [r7, #0]
 8002614:	1d5a      	adds	r2, r3, #5
 8002616:	6b3b      	ldr	r3, [r7, #48]	; 0x30
 8002618:	f8b3 31f8 	ldrh.w	r3, [r3, #504]	; 0x1f8
 800261c:	b29b      	uxth	r3, r3
 800261e:	4608      	mov	r0, r1
 8002620:	4611      	mov	r1, r2
 8002622:	461a      	mov	r2, r3
 8002624:	f7fd fedc 	bl	80003e0 <pack16>
 8002628:	f000 bd36 	b.w	8003098 <build_response+0x2b74>
        case 0x86U: pack16(&data[0],&data[1],(uint16_t)r->eu.ex_temp0_eu);   pack16(&data[2],&data[3],(uint16_t)r->eu.ex_temp1_eu);   break;
 800262c:	683b      	ldr	r3, [r7, #0]
 800262e:	1c5a      	adds	r2, r3, #1
 8002630:	6b3b      	ldr	r3, [r7, #48]	; 0x30
 8002632:	f8b3 31fa 	ldrh.w	r3, [r3, #506]	; 0x1fa
 8002636:	b29b      	uxth	r3, r3
 8002638:	6838      	ldr	r0, [r7, #0]
 800263a:	4611      	mov	r1, r2
 800263c:	461a      	mov	r2, r3
 800263e:	f7fd fecf 	bl	80003e0 <pack16>
 8002642:	683b      	ldr	r3, [r7, #0]
 8002644:	1c99      	adds	r1, r3, #2
 8002646:	683b      	ldr	r3, [r7, #0]
 8002648:	1cda      	adds	r2, r3, #3
 800264a:	6b3b      	ldr	r3, [r7, #48]	; 0x30
 800264c:	f8b3 31fc 	ldrh.w	r3, [r3, #508]	; 0x1fc
 8002650:	b29b      	uxth	r3, r3
 8002652:	4608      	mov	r0, r1
 8002654:	4611      	mov	r1, r2
 8002656:	461a      	mov	r2, r3
 8002658:	f7fd fec2 	bl	80003e0 <pack16>
 800265c:	f000 bd1c 	b.w	8003098 <build_response+0x2b74>
        case 0x87U: pack16(&data[0],&data[1],(uint16_t)r->eu.lidar_a_12v_eu); pack16(&data[2],&data[3],(uint16_t)r->eu.lidar_b_12v_eu); break;
 8002660:	683b      	ldr	r3, [r7, #0]
 8002662:	1c5a      	adds	r2, r3, #1
 8002664:	6b3b      	ldr	r3, [r7, #48]	; 0x30
 8002666:	f8b3 31fe 	ldrh.w	r3, [r3, #510]	; 0x1fe
 800266a:	b29b      	uxth	r3, r3
 800266c:	6838      	ldr	r0, [r7, #0]
 800266e:	4611      	mov	r1, r2
 8002670:	461a      	mov	r2, r3
 8002672:	f7fd feb5 	bl	80003e0 <pack16>
 8002676:	683b      	ldr	r3, [r7, #0]
 8002678:	1c99      	adds	r1, r3, #2
 800267a:	683b      	ldr	r3, [r7, #0]
 800267c:	1cda      	adds	r2, r3, #3
 800267e:	6b3b      	ldr	r3, [r7, #48]	; 0x30
 8002680:	f8b3 3200 	ldrh.w	r3, [r3, #512]	; 0x200
 8002684:	b29b      	uxth	r3, r3
 8002686:	4608      	mov	r0, r1
 8002688:	4611      	mov	r1, r2
 800268a:	461a      	mov	r2, r3
 800268c:	f7fd fea8 	bl	80003e0 <pack16>
 8002690:	f000 bd02 	b.w	8003098 <build_response+0x2b74>
        case 0x88U: pack16(&data[0],&data[1],(uint16_t)r->eu.sto_24v_eu);    pack16(&data[2],&data[3],(uint16_t)r->eu.chg_hvil_out_eu); break;
 8002694:	683b      	ldr	r3, [r7, #0]
 8002696:	1c5a      	adds	r2, r3, #1
 8002698:	6b3b      	ldr	r3, [r7, #48]	; 0x30
 800269a:	f8b3 3202 	ldrh.w	r3, [r3, #514]	; 0x202
 800269e:	b29b      	uxth	r3, r3
 80026a0:	6838      	ldr	r0, [r7, #0]
 80026a2:	4611      	mov	r1, r2
 80026a4:	461a      	mov	r2, r3
 80026a6:	f7fd fe9b 	bl	80003e0 <pack16>
 80026aa:	683b      	ldr	r3, [r7, #0]
 80026ac:	1c99      	adds	r1, r3, #2
 80026ae:	683b      	ldr	r3, [r7, #0]
 80026b0:	1cda      	adds	r2, r3, #3
 80026b2:	6b3b      	ldr	r3, [r7, #48]	; 0x30
 80026b4:	f8b3 3204 	ldrh.w	r3, [r3, #516]	; 0x204
 80026b8:	b29b      	uxth	r3, r3
 80026ba:	4608      	mov	r0, r1
 80026bc:	4611      	mov	r1, r2
 80026be:	461a      	mov	r2, r3
 80026c0:	f7fd fe8e 	bl	80003e0 <pack16>
 80026c4:	f000 bce8 	b.w	8003098 <build_response+0x2b74>
        case 0x89U: pack16(&data[0],&data[1],(uint16_t)r->eu.eth_2v5_eu);    pack16(&data[2],&data[3],(uint16_t)r->eu.eth_1v2_eu);    break;
 80026c8:	683b      	ldr	r3, [r7, #0]
 80026ca:	1c5a      	adds	r2, r3, #1
 80026cc:	6b3b      	ldr	r3, [r7, #48]	; 0x30
 80026ce:	f8b3 3206 	ldrh.w	r3, [r3, #518]	; 0x206
 80026d2:	b29b      	uxth	r3, r3
 80026d4:	6838      	ldr	r0, [r7, #0]
 80026d6:	4611      	mov	r1, r2
 80026d8:	461a      	mov	r2, r3
 80026da:	f7fd fe81 	bl	80003e0 <pack16>
 80026de:	683b      	ldr	r3, [r7, #0]
 80026e0:	1c99      	adds	r1, r3, #2
 80026e2:	683b      	ldr	r3, [r7, #0]
 80026e4:	1cda      	adds	r2, r3, #3
 80026e6:	6b3b      	ldr	r3, [r7, #48]	; 0x30
 80026e8:	f8b3 3208 	ldrh.w	r3, [r3, #520]	; 0x208
 80026ec:	b29b      	uxth	r3, r3
 80026ee:	4608      	mov	r0, r1
 80026f0:	4611      	mov	r1, r2
 80026f2:	461a      	mov	r2, r3
 80026f4:	f7fd fe74 	bl	80003e0 <pack16>
 80026f8:	f000 bcce 	b.w	8003098 <build_response+0x2b74>
        case 0x8AU: pack16(&data[0],&data[1],(uint16_t)r->eu.ecat_3v3_eu);   pack16(&data[2],&data[3],(uint16_t)r->eu.ecat_1v2_eu);   break;
 80026fc:	683b      	ldr	r3, [r7, #0]
 80026fe:	1c5a      	adds	r2, r3, #1
 8002700:	6b3b      	ldr	r3, [r7, #48]	; 0x30
 8002702:	f8b3 320a 	ldrh.w	r3, [r3, #522]	; 0x20a
 8002706:	b29b      	uxth	r3, r3
 8002708:	6838      	ldr	r0, [r7, #0]
 800270a:	4611      	mov	r1, r2
 800270c:	461a      	mov	r2, r3
 800270e:	f7fd fe67 	bl	80003e0 <pack16>
 8002712:	683b      	ldr	r3, [r7, #0]
 8002714:	1c99      	adds	r1, r3, #2
 8002716:	683b      	ldr	r3, [r7, #0]
 8002718:	1cda      	adds	r2, r3, #3
 800271a:	6b3b      	ldr	r3, [r7, #48]	; 0x30
 800271c:	f8b3 320c 	ldrh.w	r3, [r3, #524]	; 0x20c
 8002720:	b29b      	uxth	r3, r3
 8002722:	4608      	mov	r0, r1
 8002724:	4611      	mov	r1, r2
 8002726:	461a      	mov	r2, r3
 8002728:	f7fd fe5a 	bl	80003e0 <pack16>
 800272c:	f000 bcb4 	b.w	8003098 <build_response+0x2b74>

        /* === DERIVED EU (0x90-0x91) === */
        case 0x90U: pack16(&data[0],&data[1],(uint16_t)r->eu.v12_a_total_curr_eu); pack16(&data[2],&data[3],(uint16_t)r->eu.v12_b_total_curr_eu); pack16(&data[4],&data[5],(uint16_t)r->eu.v24_total_curr_eu); break;
 8002730:	683b      	ldr	r3, [r7, #0]
 8002732:	1c5a      	adds	r2, r3, #1
 8002734:	6b3b      	ldr	r3, [r7, #48]	; 0x30
 8002736:	f8b3 320e 	ldrh.w	r3, [r3, #526]	; 0x20e
 800273a:	b29b      	uxth	r3, r3
 800273c:	6838      	ldr	r0, [r7, #0]
 800273e:	4611      	mov	r1, r2
 8002740:	461a      	mov	r2, r3
 8002742:	f7fd fe4d 	bl	80003e0 <pack16>
 8002746:	683b      	ldr	r3, [r7, #0]
 8002748:	1c99      	adds	r1, r3, #2
 800274a:	683b      	ldr	r3, [r7, #0]
 800274c:	1cda      	adds	r2, r3, #3
 800274e:	6b3b      	ldr	r3, [r7, #48]	; 0x30
 8002750:	f8b3 3210 	ldrh.w	r3, [r3, #528]	; 0x210
 8002754:	b29b      	uxth	r3, r3
 8002756:	4608      	mov	r0, r1
 8002758:	4611      	mov	r1, r2
 800275a:	461a      	mov	r2, r3
 800275c:	f7fd fe40 	bl	80003e0 <pack16>
 8002760:	683b      	ldr	r3, [r7, #0]
 8002762:	1d19      	adds	r1, r3, #4
 8002764:	683b      	ldr	r3, [r7, #0]
 8002766:	1d5a      	adds	r2, r3, #5
 8002768:	6b3b      	ldr	r3, [r7, #48]	; 0x30
 800276a:	f8b3 3212 	ldrh.w	r3, [r3, #530]	; 0x212
 800276e:	b29b      	uxth	r3, r3
 8002770:	4608      	mov	r0, r1
 8002772:	4611      	mov	r1, r2
 8002774:	461a      	mov	r2, r3
 8002776:	f7fd fe33 	bl	80003e0 <pack16>
 800277a:	f000 bc8d 	b.w	8003098 <build_response+0x2b74>
        case 0x91U: pack16(&data[0],&data[1],(uint16_t)r->eu.batt_total_curr_eu); break;
 800277e:	683b      	ldr	r3, [r7, #0]
 8002780:	1c5a      	adds	r2, r3, #1
 8002782:	6b3b      	ldr	r3, [r7, #48]	; 0x30
 8002784:	f8b3 3214 	ldrh.w	r3, [r3, #532]	; 0x214
 8002788:	b29b      	uxth	r3, r3
 800278a:	6838      	ldr	r0, [r7, #0]
 800278c:	4611      	mov	r1, r2
 800278e:	461a      	mov	r2, r3
 8002790:	f7fd fe26 	bl	80003e0 <pack16>
 8002794:	f000 bc80 	b.w	8003098 <build_response+0x2b74>

        /* === ERROR CODE (0xA0) === */
        case 0xA0U:
            data[0] = (uint8_t)( g_regs.error_code         & 0xFFU);
 8002798:	4bba      	ldr	r3, [pc, #744]	; (8002a84 <build_response+0x2560>)
 800279a:	f8d3 3218 	ldr.w	r3, [r3, #536]	; 0x218
 800279e:	b2da      	uxtb	r2, r3
 80027a0:	683b      	ldr	r3, [r7, #0]
 80027a2:	701a      	strb	r2, [r3, #0]
            data[1] = (uint8_t)((g_regs.error_code >>  8U) & 0xFFU);
 80027a4:	683b      	ldr	r3, [r7, #0]
 80027a6:	3301      	adds	r3, #1
 80027a8:	4ab6      	ldr	r2, [pc, #728]	; (8002a84 <build_response+0x2560>)
 80027aa:	f8d2 2218 	ldr.w	r2, [r2, #536]	; 0x218
 80027ae:	0a12      	lsrs	r2, r2, #8
 80027b0:	b2d2      	uxtb	r2, r2
 80027b2:	701a      	strb	r2, [r3, #0]
            data[2] = (uint8_t)((g_regs.error_code >> 16U) & 0xFFU);
 80027b4:	683b      	ldr	r3, [r7, #0]
 80027b6:	3302      	adds	r3, #2
 80027b8:	4ab2      	ldr	r2, [pc, #712]	; (8002a84 <build_response+0x2560>)
 80027ba:	f8d2 2218 	ldr.w	r2, [r2, #536]	; 0x218
 80027be:	0c12      	lsrs	r2, r2, #16
 80027c0:	b2d2      	uxtb	r2, r2
 80027c2:	701a      	strb	r2, [r3, #0]
            data[3] = (uint8_t)((g_regs.error_code >> 24U) & 0xFFU);
 80027c4:	683b      	ldr	r3, [r7, #0]
 80027c6:	3303      	adds	r3, #3
 80027c8:	4aae      	ldr	r2, [pc, #696]	; (8002a84 <build_response+0x2560>)
 80027ca:	f8d2 2218 	ldr.w	r2, [r2, #536]	; 0x218
 80027ce:	0e12      	lsrs	r2, r2, #24
 80027d0:	b2d2      	uxtb	r2, r2
 80027d2:	701a      	strb	r2, [r3, #0]
            break;
 80027d4:	f000 bc60 	b.w	8003098 <build_response+0x2b74>

        /* === FAULT REGISTERS (0xA8-0xAA) === */
        case 0xA8U:
            data[0] = g_regs.fault_regs.reg1;
 80027d8:	4baa      	ldr	r3, [pc, #680]	; (8002a84 <build_response+0x2560>)
 80027da:	f893 221c 	ldrb.w	r2, [r3, #540]	; 0x21c
 80027de:	683b      	ldr	r3, [r7, #0]
 80027e0:	701a      	strb	r2, [r3, #0]
            break;
 80027e2:	f000 bc59 	b.w	8003098 <build_response+0x2b74>
        case 0xA9U:
            data[0] = g_regs.fault_regs.reg2[0];
 80027e6:	4ba7      	ldr	r3, [pc, #668]	; (8002a84 <build_response+0x2560>)
 80027e8:	f893 221d 	ldrb.w	r2, [r3, #541]	; 0x21d
 80027ec:	683b      	ldr	r3, [r7, #0]
 80027ee:	701a      	strb	r2, [r3, #0]
            data[1] = g_regs.fault_regs.reg2[1];
 80027f0:	683b      	ldr	r3, [r7, #0]
 80027f2:	3301      	adds	r3, #1
 80027f4:	4aa3      	ldr	r2, [pc, #652]	; (8002a84 <build_response+0x2560>)
 80027f6:	f892 221e 	ldrb.w	r2, [r2, #542]	; 0x21e
 80027fa:	701a      	strb	r2, [r3, #0]
            data[2] = g_regs.fault_regs.reg2[2];
 80027fc:	683b      	ldr	r3, [r7, #0]
 80027fe:	3302      	adds	r3, #2
 8002800:	4aa0      	ldr	r2, [pc, #640]	; (8002a84 <build_response+0x2560>)
 8002802:	f892 221f 	ldrb.w	r2, [r2, #543]	; 0x21f
 8002806:	701a      	strb	r2, [r3, #0]
            break;
 8002808:	f000 bc46 	b.w	8003098 <build_response+0x2b74>
        case 0xAAU:
            data[0] = g_regs.fault_regs.reg3[0];
 800280c:	4b9d      	ldr	r3, [pc, #628]	; (8002a84 <build_response+0x2560>)
 800280e:	f893 2220 	ldrb.w	r2, [r3, #544]	; 0x220
 8002812:	683b      	ldr	r3, [r7, #0]
 8002814:	701a      	strb	r2, [r3, #0]
            data[1] = g_regs.fault_regs.reg3[1];
 8002816:	683b      	ldr	r3, [r7, #0]
 8002818:	3301      	adds	r3, #1
 800281a:	4a9a      	ldr	r2, [pc, #616]	; (8002a84 <build_response+0x2560>)
 800281c:	f892 2221 	ldrb.w	r2, [r2, #545]	; 0x221
 8002820:	701a      	strb	r2, [r3, #0]
            data[2] = g_regs.fault_regs.reg3[2];
 8002822:	683b      	ldr	r3, [r7, #0]
 8002824:	3302      	adds	r3, #2
 8002826:	4a97      	ldr	r2, [pc, #604]	; (8002a84 <build_response+0x2560>)
 8002828:	f892 2222 	ldrb.w	r2, [r2, #546]	; 0x222
 800282c:	701a      	strb	r2, [r3, #0]
            data[3] = g_regs.fault_regs.reg3[3];
 800282e:	683b      	ldr	r3, [r7, #0]
 8002830:	3303      	adds	r3, #3
 8002832:	4a94      	ldr	r2, [pc, #592]	; (8002a84 <build_response+0x2560>)
 8002834:	f892 2223 	ldrb.w	r2, [r2, #547]	; 0x223
 8002838:	701a      	strb	r2, [r3, #0]
            break;
 800283a:	f000 bc2d 	b.w	8003098 <build_response+0x2b74>

        /* === 16-BIT LIMITS (0xB0-0xCF) === */
        case 0xB0U: pack16(&data[0],&data[1],(uint16_t)r->soft_limits.chg_curr_lim);        pack16(&data[2],&data[3],(uint16_t)r->soft_limits.batt1_curr_plim);     pack16(&data[4],&data[5],(uint16_t)r->soft_limits.batt2_curr_plim);     break;
 800283e:	683b      	ldr	r3, [r7, #0]
 8002840:	1c5a      	adds	r2, r3, #1
 8002842:	6b3b      	ldr	r3, [r7, #48]	; 0x30
 8002844:	f8b3 3224 	ldrh.w	r3, [r3, #548]	; 0x224
 8002848:	b29b      	uxth	r3, r3
 800284a:	6838      	ldr	r0, [r7, #0]
 800284c:	4611      	mov	r1, r2
 800284e:	461a      	mov	r2, r3
 8002850:	f7fd fdc6 	bl	80003e0 <pack16>
 8002854:	683b      	ldr	r3, [r7, #0]
 8002856:	1c99      	adds	r1, r3, #2
 8002858:	683b      	ldr	r3, [r7, #0]
 800285a:	1cda      	adds	r2, r3, #3
 800285c:	6b3b      	ldr	r3, [r7, #48]	; 0x30
 800285e:	f8b3 3226 	ldrh.w	r3, [r3, #550]	; 0x226
 8002862:	b29b      	uxth	r3, r3
 8002864:	4608      	mov	r0, r1
 8002866:	4611      	mov	r1, r2
 8002868:	461a      	mov	r2, r3
 800286a:	f7fd fdb9 	bl	80003e0 <pack16>
 800286e:	683b      	ldr	r3, [r7, #0]
 8002870:	1d19      	adds	r1, r3, #4
 8002872:	683b      	ldr	r3, [r7, #0]
 8002874:	1d5a      	adds	r2, r3, #5
 8002876:	6b3b      	ldr	r3, [r7, #48]	; 0x30
 8002878:	f8b3 3228 	ldrh.w	r3, [r3, #552]	; 0x228
 800287c:	b29b      	uxth	r3, r3
 800287e:	4608      	mov	r0, r1
 8002880:	4611      	mov	r1, r2
 8002882:	461a      	mov	r2, r3
 8002884:	f7fd fdac 	bl	80003e0 <pack16>
 8002888:	f000 bc06 	b.w	8003098 <build_response+0x2b74>
        case 0xB1U: pack16(&data[0],&data[1],(uint16_t)r->soft_limits.ll_imon_lim);         pack16(&data[2],&data[3],(uint16_t)r->soft_limits.rl_imon_lim);         pack16(&data[4],&data[5],(uint16_t)r->soft_limits.la_imon_lim);         break;
 800288c:	683b      	ldr	r3, [r7, #0]
 800288e:	1c5a      	adds	r2, r3, #1
 8002890:	6b3b      	ldr	r3, [r7, #48]	; 0x30
 8002892:	f8b3 322a 	ldrh.w	r3, [r3, #554]	; 0x22a
 8002896:	b29b      	uxth	r3, r3
 8002898:	6838      	ldr	r0, [r7, #0]
 800289a:	4611      	mov	r1, r2
 800289c:	461a      	mov	r2, r3
 800289e:	f7fd fd9f 	bl	80003e0 <pack16>
 80028a2:	683b      	ldr	r3, [r7, #0]
 80028a4:	1c99      	adds	r1, r3, #2
 80028a6:	683b      	ldr	r3, [r7, #0]
 80028a8:	1cda      	adds	r2, r3, #3
 80028aa:	6b3b      	ldr	r3, [r7, #48]	; 0x30
 80028ac:	f8b3 322c 	ldrh.w	r3, [r3, #556]	; 0x22c
 80028b0:	b29b      	uxth	r3, r3
 80028b2:	4608      	mov	r0, r1
 80028b4:	4611      	mov	r1, r2
 80028b6:	461a      	mov	r2, r3
 80028b8:	f7fd fd92 	bl	80003e0 <pack16>
 80028bc:	683b      	ldr	r3, [r7, #0]
 80028be:	1d19      	adds	r1, r3, #4
 80028c0:	683b      	ldr	r3, [r7, #0]
 80028c2:	1d5a      	adds	r2, r3, #5
 80028c4:	6b3b      	ldr	r3, [r7, #48]	; 0x30
 80028c6:	f8b3 322e 	ldrh.w	r3, [r3, #558]	; 0x22e
 80028ca:	b29b      	uxth	r3, r3
 80028cc:	4608      	mov	r0, r1
 80028ce:	4611      	mov	r1, r2
 80028d0:	461a      	mov	r2, r3
 80028d2:	f7fd fd85 	bl	80003e0 <pack16>
 80028d6:	e3df      	b.n	8003098 <build_response+0x2b74>
        case 0xB2U: pack16(&data[0],&data[1],(uint16_t)r->soft_limits.ra_imon_lim);         pack16(&data[2],&data[3],(uint16_t)r->soft_limits.tr_imon_lim);         pack16(&data[4],&data[5],(uint16_t)r->soft_limits.chg_in_lim);         break;
 80028d8:	683b      	ldr	r3, [r7, #0]
 80028da:	1c5a      	adds	r2, r3, #1
 80028dc:	6b3b      	ldr	r3, [r7, #48]	; 0x30
 80028de:	f8b3 3230 	ldrh.w	r3, [r3, #560]	; 0x230
 80028e2:	b29b      	uxth	r3, r3
 80028e4:	6838      	ldr	r0, [r7, #0]
 80028e6:	4611      	mov	r1, r2
 80028e8:	461a      	mov	r2, r3
 80028ea:	f7fd fd79 	bl	80003e0 <pack16>
 80028ee:	683b      	ldr	r3, [r7, #0]
 80028f0:	1c99      	adds	r1, r3, #2
 80028f2:	683b      	ldr	r3, [r7, #0]
 80028f4:	1cda      	adds	r2, r3, #3
 80028f6:	6b3b      	ldr	r3, [r7, #48]	; 0x30
 80028f8:	f8b3 3232 	ldrh.w	r3, [r3, #562]	; 0x232
 80028fc:	b29b      	uxth	r3, r3
 80028fe:	4608      	mov	r0, r1
 8002900:	4611      	mov	r1, r2
 8002902:	461a      	mov	r2, r3
 8002904:	f7fd fd6c 	bl	80003e0 <pack16>
 8002908:	683b      	ldr	r3, [r7, #0]
 800290a:	1d19      	adds	r1, r3, #4
 800290c:	683b      	ldr	r3, [r7, #0]
 800290e:	1d5a      	adds	r2, r3, #5
 8002910:	6b3b      	ldr	r3, [r7, #48]	; 0x30
 8002912:	f8b3 3234 	ldrh.w	r3, [r3, #564]	; 0x234
 8002916:	b29b      	uxth	r3, r3
 8002918:	4608      	mov	r0, r1
 800291a:	4611      	mov	r1, r2
 800291c:	461a      	mov	r2, r3
 800291e:	f7fd fd5f 	bl	80003e0 <pack16>
 8002922:	e3b9      	b.n	8003098 <build_response+0x2b74>
        case 0xB3U: pack16(&data[0],&data[1],(uint16_t)r->soft_limits.hv_lim);              pack16(&data[2],&data[3],(uint16_t)r->soft_limits.batt1_in_lim);        pack16(&data[4],&data[5],(uint16_t)r->soft_limits.batt2_in_lim);        break;
 8002924:	683b      	ldr	r3, [r7, #0]
 8002926:	1c5a      	adds	r2, r3, #1
 8002928:	6b3b      	ldr	r3, [r7, #48]	; 0x30
 800292a:	f8b3 3236 	ldrh.w	r3, [r3, #566]	; 0x236
 800292e:	b29b      	uxth	r3, r3
 8002930:	6838      	ldr	r0, [r7, #0]
 8002932:	4611      	mov	r1, r2
 8002934:	461a      	mov	r2, r3
 8002936:	f7fd fd53 	bl	80003e0 <pack16>
 800293a:	683b      	ldr	r3, [r7, #0]
 800293c:	1c99      	adds	r1, r3, #2
 800293e:	683b      	ldr	r3, [r7, #0]
 8002940:	1cda      	adds	r2, r3, #3
 8002942:	6b3b      	ldr	r3, [r7, #48]	; 0x30
 8002944:	f8b3 3238 	ldrh.w	r3, [r3, #568]	; 0x238
 8002948:	b29b      	uxth	r3, r3
 800294a:	4608      	mov	r0, r1
 800294c:	4611      	mov	r1, r2
 800294e:	461a      	mov	r2, r3
 8002950:	f7fd fd46 	bl	80003e0 <pack16>
 8002954:	683b      	ldr	r3, [r7, #0]
 8002956:	1d19      	adds	r1, r3, #4
 8002958:	683b      	ldr	r3, [r7, #0]
 800295a:	1d5a      	adds	r2, r3, #5
 800295c:	6b3b      	ldr	r3, [r7, #48]	; 0x30
 800295e:	f8b3 323a 	ldrh.w	r3, [r3, #570]	; 0x23a
 8002962:	b29b      	uxth	r3, r3
 8002964:	4608      	mov	r0, r1
 8002966:	4611      	mov	r1, r2
 8002968:	461a      	mov	r2, r3
 800296a:	f7fd fd39 	bl	80003e0 <pack16>
 800296e:	e393      	b.n	8003098 <build_response+0x2b74>
        case 0xB4U: pack16(&data[0],&data[1],(uint16_t)r->soft_limits.nk_imon_lim);         pack16(&data[2],&data[3],(uint16_t)r->soft_limits.mot_bus_lim);         pack16(&data[4],&data[5],(uint16_t)r->soft_limits.chg_hv_lim);         break;
 8002970:	683b      	ldr	r3, [r7, #0]
 8002972:	1c5a      	adds	r2, r3, #1
 8002974:	6b3b      	ldr	r3, [r7, #48]	; 0x30
 8002976:	f8b3 323c 	ldrh.w	r3, [r3, #572]	; 0x23c
 800297a:	b29b      	uxth	r3, r3
 800297c:	6838      	ldr	r0, [r7, #0]
 800297e:	4611      	mov	r1, r2
 8002980:	461a      	mov	r2, r3
 8002982:	f7fd fd2d 	bl	80003e0 <pack16>
 8002986:	683b      	ldr	r3, [r7, #0]
 8002988:	1c99      	adds	r1, r3, #2
 800298a:	683b      	ldr	r3, [r7, #0]
 800298c:	1cda      	adds	r2, r3, #3
 800298e:	6b3b      	ldr	r3, [r7, #48]	; 0x30
 8002990:	f8b3 323e 	ldrh.w	r3, [r3, #574]	; 0x23e
 8002994:	b29b      	uxth	r3, r3
 8002996:	4608      	mov	r0, r1
 8002998:	4611      	mov	r1, r2
 800299a:	461a      	mov	r2, r3
 800299c:	f7fd fd20 	bl	80003e0 <pack16>
 80029a0:	683b      	ldr	r3, [r7, #0]
 80029a2:	1d19      	adds	r1, r3, #4
 80029a4:	683b      	ldr	r3, [r7, #0]
 80029a6:	1d5a      	adds	r2, r3, #5
 80029a8:	6b3b      	ldr	r3, [r7, #48]	; 0x30
 80029aa:	f8b3 3240 	ldrh.w	r3, [r3, #576]	; 0x240
 80029ae:	b29b      	uxth	r3, r3
 80029b0:	4608      	mov	r0, r1
 80029b2:	4611      	mov	r1, r2
 80029b4:	461a      	mov	r2, r3
 80029b6:	f7fd fd13 	bl	80003e0 <pack16>
 80029ba:	e36d      	b.n	8003098 <build_response+0x2b74>
        case 0xB5U: pack16(&data[0],&data[1],(uint16_t)r->soft_limits.user_hv_lim);         pack16(&data[2],&data[3],(uint16_t)r->soft_limits.user_hv_curr_lim);    break;
 80029bc:	683b      	ldr	r3, [r7, #0]
 80029be:	1c5a      	adds	r2, r3, #1
 80029c0:	6b3b      	ldr	r3, [r7, #48]	; 0x30
 80029c2:	f8b3 3242 	ldrh.w	r3, [r3, #578]	; 0x242
 80029c6:	b29b      	uxth	r3, r3
 80029c8:	6838      	ldr	r0, [r7, #0]
 80029ca:	4611      	mov	r1, r2
 80029cc:	461a      	mov	r2, r3
 80029ce:	f7fd fd07 	bl	80003e0 <pack16>
 80029d2:	683b      	ldr	r3, [r7, #0]
 80029d4:	1c99      	adds	r1, r3, #2
 80029d6:	683b      	ldr	r3, [r7, #0]
 80029d8:	1cda      	adds	r2, r3, #3
 80029da:	6b3b      	ldr	r3, [r7, #48]	; 0x30
 80029dc:	f8b3 3244 	ldrh.w	r3, [r3, #580]	; 0x244
 80029e0:	b29b      	uxth	r3, r3
 80029e2:	4608      	mov	r0, r1
 80029e4:	4611      	mov	r1, r2
 80029e6:	461a      	mov	r2, r3
 80029e8:	f7fd fcfa 	bl	80003e0 <pack16>
 80029ec:	e354      	b.n	8003098 <build_response+0x2b74>
        case 0xB6U: pack16(&data[0],&data[1],(uint16_t)r->soft_limits.pc_24v_lim);          pack16(&data[2],&data[3],(uint16_t)r->soft_limits.pc_24v_imon_lim);     break;
 80029ee:	683b      	ldr	r3, [r7, #0]
 80029f0:	1c5a      	adds	r2, r3, #1
 80029f2:	6b3b      	ldr	r3, [r7, #48]	; 0x30
 80029f4:	f8b3 3246 	ldrh.w	r3, [r3, #582]	; 0x246
 80029f8:	b29b      	uxth	r3, r3
 80029fa:	6838      	ldr	r0, [r7, #0]
 80029fc:	4611      	mov	r1, r2
 80029fe:	461a      	mov	r2, r3
 8002a00:	f7fd fcee 	bl	80003e0 <pack16>
 8002a04:	683b      	ldr	r3, [r7, #0]
 8002a06:	1c99      	adds	r1, r3, #2
 8002a08:	683b      	ldr	r3, [r7, #0]
 8002a0a:	1cda      	adds	r2, r3, #3
 8002a0c:	6b3b      	ldr	r3, [r7, #48]	; 0x30
 8002a0e:	f8b3 3248 	ldrh.w	r3, [r3, #584]	; 0x248
 8002a12:	b29b      	uxth	r3, r3
 8002a14:	4608      	mov	r0, r1
 8002a16:	4611      	mov	r1, r2
 8002a18:	461a      	mov	r2, r3
 8002a1a:	f7fd fce1 	bl	80003e0 <pack16>
 8002a1e:	e33b      	b.n	8003098 <build_response+0x2b74>
        case 0xB7U: pack16(&data[0],&data[1],(uint16_t)r->soft_limits.user_24v_lim);        pack16(&data[2],&data[3],(uint16_t)r->soft_limits.user_24v_imon_lim);   break;
 8002a20:	683b      	ldr	r3, [r7, #0]
 8002a22:	1c5a      	adds	r2, r3, #1
 8002a24:	6b3b      	ldr	r3, [r7, #48]	; 0x30
 8002a26:	f8b3 324a 	ldrh.w	r3, [r3, #586]	; 0x24a
 8002a2a:	b29b      	uxth	r3, r3
 8002a2c:	6838      	ldr	r0, [r7, #0]
 8002a2e:	4611      	mov	r1, r2
 8002a30:	461a      	mov	r2, r3
 8002a32:	f7fd fcd5 	bl	80003e0 <pack16>
 8002a36:	683b      	ldr	r3, [r7, #0]
 8002a38:	1c99      	adds	r1, r3, #2
 8002a3a:	683b      	ldr	r3, [r7, #0]
 8002a3c:	1cda      	adds	r2, r3, #3
 8002a3e:	6b3b      	ldr	r3, [r7, #48]	; 0x30
 8002a40:	f8b3 324c 	ldrh.w	r3, [r3, #588]	; 0x24c
 8002a44:	b29b      	uxth	r3, r3
 8002a46:	4608      	mov	r0, r1
 8002a48:	4611      	mov	r1, r2
 8002a4a:	461a      	mov	r2, r3
 8002a4c:	f7fd fcc8 	bl	80003e0 <pack16>
 8002a50:	e322      	b.n	8003098 <build_response+0x2b74>
        case 0xB8U: pack16(&data[0],&data[1],(uint16_t)r->soft_limits.pc_a_12v_lim);        pack16(&data[2],&data[3],(uint16_t)r->soft_limits.pc_a_12v_imon_lim);   break;
 8002a52:	683b      	ldr	r3, [r7, #0]
 8002a54:	1c5a      	adds	r2, r3, #1
 8002a56:	6b3b      	ldr	r3, [r7, #48]	; 0x30
 8002a58:	f8b3 324e 	ldrh.w	r3, [r3, #590]	; 0x24e
 8002a5c:	b29b      	uxth	r3, r3
 8002a5e:	6838      	ldr	r0, [r7, #0]
 8002a60:	4611      	mov	r1, r2
 8002a62:	461a      	mov	r2, r3
 8002a64:	f7fd fcbc 	bl	80003e0 <pack16>
 8002a68:	683b      	ldr	r3, [r7, #0]
 8002a6a:	1c99      	adds	r1, r3, #2
 8002a6c:	683b      	ldr	r3, [r7, #0]
 8002a6e:	1cda      	adds	r2, r3, #3
 8002a70:	6b3b      	ldr	r3, [r7, #48]	; 0x30
 8002a72:	f8b3 3250 	ldrh.w	r3, [r3, #592]	; 0x250
 8002a76:	b29b      	uxth	r3, r3
 8002a78:	4608      	mov	r0, r1
 8002a7a:	4611      	mov	r1, r2
 8002a7c:	461a      	mov	r2, r3
 8002a7e:	f7fd fcaf 	bl	80003e0 <pack16>
 8002a82:	e309      	b.n	8003098 <build_response+0x2b74>
 8002a84:	1ffe89b0 	.word	0x1ffe89b0
        case 0xB9U: pack16(&data[0],&data[1],(uint16_t)r->soft_limits.pc_b_12v_lim);        pack16(&data[2],&data[3],(uint16_t)r->soft_limits.pc_b_12v_imon_lim);   break;
 8002a88:	683b      	ldr	r3, [r7, #0]
 8002a8a:	1c5a      	adds	r2, r3, #1
 8002a8c:	6b3b      	ldr	r3, [r7, #48]	; 0x30
 8002a8e:	f8b3 3252 	ldrh.w	r3, [r3, #594]	; 0x252
 8002a92:	b29b      	uxth	r3, r3
 8002a94:	6838      	ldr	r0, [r7, #0]
 8002a96:	4611      	mov	r1, r2
 8002a98:	461a      	mov	r2, r3
 8002a9a:	f7fd fca1 	bl	80003e0 <pack16>
 8002a9e:	683b      	ldr	r3, [r7, #0]
 8002aa0:	1c99      	adds	r1, r3, #2
 8002aa2:	683b      	ldr	r3, [r7, #0]
 8002aa4:	1cda      	adds	r2, r3, #3
 8002aa6:	6b3b      	ldr	r3, [r7, #48]	; 0x30
 8002aa8:	f8b3 3254 	ldrh.w	r3, [r3, #596]	; 0x254
 8002aac:	b29b      	uxth	r3, r3
 8002aae:	4608      	mov	r0, r1
 8002ab0:	4611      	mov	r1, r2
 8002ab2:	461a      	mov	r2, r3
 8002ab4:	f7fd fc94 	bl	80003e0 <pack16>
 8002ab8:	e2ee      	b.n	8003098 <build_response+0x2b74>
        case 0xBAU: pack16(&data[0],&data[1],(uint16_t)r->soft_limits.v24_imon0_lim);       pack16(&data[2],&data[3],(uint16_t)r->soft_limits.v24_imon1_lim);       pack16(&data[4],&data[5],(uint16_t)r->soft_limits.v24_imon2_lim);       break;
 8002aba:	683b      	ldr	r3, [r7, #0]
 8002abc:	1c5a      	adds	r2, r3, #1
 8002abe:	6b3b      	ldr	r3, [r7, #48]	; 0x30
 8002ac0:	f8b3 3256 	ldrh.w	r3, [r3, #598]	; 0x256
 8002ac4:	b29b      	uxth	r3, r3
 8002ac6:	6838      	ldr	r0, [r7, #0]
 8002ac8:	4611      	mov	r1, r2
 8002aca:	461a      	mov	r2, r3
 8002acc:	f7fd fc88 	bl	80003e0 <pack16>
 8002ad0:	683b      	ldr	r3, [r7, #0]
 8002ad2:	1c99      	adds	r1, r3, #2
 8002ad4:	683b      	ldr	r3, [r7, #0]
 8002ad6:	1cda      	adds	r2, r3, #3
 8002ad8:	6b3b      	ldr	r3, [r7, #48]	; 0x30
 8002ada:	f8b3 3258 	ldrh.w	r3, [r3, #600]	; 0x258
 8002ade:	b29b      	uxth	r3, r3
 8002ae0:	4608      	mov	r0, r1
 8002ae2:	4611      	mov	r1, r2
 8002ae4:	461a      	mov	r2, r3
 8002ae6:	f7fd fc7b 	bl	80003e0 <pack16>
 8002aea:	683b      	ldr	r3, [r7, #0]
 8002aec:	1d19      	adds	r1, r3, #4
 8002aee:	683b      	ldr	r3, [r7, #0]
 8002af0:	1d5a      	adds	r2, r3, #5
 8002af2:	6b3b      	ldr	r3, [r7, #48]	; 0x30
 8002af4:	f8b3 325a 	ldrh.w	r3, [r3, #602]	; 0x25a
 8002af8:	b29b      	uxth	r3, r3
 8002afa:	4608      	mov	r0, r1
 8002afc:	4611      	mov	r1, r2
 8002afe:	461a      	mov	r2, r3
 8002b00:	f7fd fc6e 	bl	80003e0 <pack16>
 8002b04:	e2c8      	b.n	8003098 <build_response+0x2b74>
        case 0xBBU: pack16(&data[0],&data[1],(uint16_t)r->soft_limits.v12_imon0_lim);       pack16(&data[2],&data[3],(uint16_t)r->soft_limits.v12_imon1_lim);       pack16(&data[4],&data[5],(uint16_t)r->soft_limits.v12_imon2_lim);       break;
 8002b06:	683b      	ldr	r3, [r7, #0]
 8002b08:	1c5a      	adds	r2, r3, #1
 8002b0a:	6b3b      	ldr	r3, [r7, #48]	; 0x30
 8002b0c:	f8b3 325c 	ldrh.w	r3, [r3, #604]	; 0x25c
 8002b10:	b29b      	uxth	r3, r3
 8002b12:	6838      	ldr	r0, [r7, #0]
 8002b14:	4611      	mov	r1, r2
 8002b16:	461a      	mov	r2, r3
 8002b18:	f7fd fc62 	bl	80003e0 <pack16>
 8002b1c:	683b      	ldr	r3, [r7, #0]
 8002b1e:	1c99      	adds	r1, r3, #2
 8002b20:	683b      	ldr	r3, [r7, #0]
 8002b22:	1cda      	adds	r2, r3, #3
 8002b24:	6b3b      	ldr	r3, [r7, #48]	; 0x30
 8002b26:	f8b3 325e 	ldrh.w	r3, [r3, #606]	; 0x25e
 8002b2a:	b29b      	uxth	r3, r3
 8002b2c:	4608      	mov	r0, r1
 8002b2e:	4611      	mov	r1, r2
 8002b30:	461a      	mov	r2, r3
 8002b32:	f7fd fc55 	bl	80003e0 <pack16>
 8002b36:	683b      	ldr	r3, [r7, #0]
 8002b38:	1d19      	adds	r1, r3, #4
 8002b3a:	683b      	ldr	r3, [r7, #0]
 8002b3c:	1d5a      	adds	r2, r3, #5
 8002b3e:	6b3b      	ldr	r3, [r7, #48]	; 0x30
 8002b40:	f8b3 3260 	ldrh.w	r3, [r3, #608]	; 0x260
 8002b44:	b29b      	uxth	r3, r3
 8002b46:	4608      	mov	r0, r1
 8002b48:	4611      	mov	r1, r2
 8002b4a:	461a      	mov	r2, r3
 8002b4c:	f7fd fc48 	bl	80003e0 <pack16>
 8002b50:	e2a2      	b.n	8003098 <build_response+0x2b74>
        case 0xBCU: pack16(&data[0],&data[1],(uint16_t)r->soft_limits.v24_lim);             pack16(&data[2],&data[3],(uint16_t)r->soft_limits.v12_lim);             break;
 8002b52:	683b      	ldr	r3, [r7, #0]
 8002b54:	1c5a      	adds	r2, r3, #1
 8002b56:	6b3b      	ldr	r3, [r7, #48]	; 0x30
 8002b58:	f8b3 3262 	ldrh.w	r3, [r3, #610]	; 0x262
 8002b5c:	b29b      	uxth	r3, r3
 8002b5e:	6838      	ldr	r0, [r7, #0]
 8002b60:	4611      	mov	r1, r2
 8002b62:	461a      	mov	r2, r3
 8002b64:	f7fd fc3c 	bl	80003e0 <pack16>
 8002b68:	683b      	ldr	r3, [r7, #0]
 8002b6a:	1c99      	adds	r1, r3, #2
 8002b6c:	683b      	ldr	r3, [r7, #0]
 8002b6e:	1cda      	adds	r2, r3, #3
 8002b70:	6b3b      	ldr	r3, [r7, #48]	; 0x30
 8002b72:	f8b3 3264 	ldrh.w	r3, [r3, #612]	; 0x264
 8002b76:	b29b      	uxth	r3, r3
 8002b78:	4608      	mov	r0, r1
 8002b7a:	4611      	mov	r1, r2
 8002b7c:	461a      	mov	r2, r3
 8002b7e:	f7fd fc2f 	bl	80003e0 <pack16>
 8002b82:	e289      	b.n	8003098 <build_response+0x2b74>
        case 0xBDU: pack16(&data[0],&data[1],(uint16_t)r->soft_limits.v5_lim);              pack16(&data[2],&data[3],(uint16_t)r->soft_limits.v5_curr_lim);         break;
 8002b84:	683b      	ldr	r3, [r7, #0]
 8002b86:	1c5a      	adds	r2, r3, #1
 8002b88:	6b3b      	ldr	r3, [r7, #48]	; 0x30
 8002b8a:	f8b3 3266 	ldrh.w	r3, [r3, #614]	; 0x266
 8002b8e:	b29b      	uxth	r3, r3
 8002b90:	6838      	ldr	r0, [r7, #0]
 8002b92:	4611      	mov	r1, r2
 8002b94:	461a      	mov	r2, r3
 8002b96:	f7fd fc23 	bl	80003e0 <pack16>
 8002b9a:	683b      	ldr	r3, [r7, #0]
 8002b9c:	1c99      	adds	r1, r3, #2
 8002b9e:	683b      	ldr	r3, [r7, #0]
 8002ba0:	1cda      	adds	r2, r3, #3
 8002ba2:	6b3b      	ldr	r3, [r7, #48]	; 0x30
 8002ba4:	f8b3 3268 	ldrh.w	r3, [r3, #616]	; 0x268
 8002ba8:	b29b      	uxth	r3, r3
 8002baa:	4608      	mov	r0, r1
 8002bac:	4611      	mov	r1, r2
 8002bae:	461a      	mov	r2, r3
 8002bb0:	f7fd fc16 	bl	80003e0 <pack16>
 8002bb4:	e270      	b.n	8003098 <build_response+0x2b74>
        case 0xBEU: pack16(&data[0],&data[1],(uint16_t)r->soft_limits.v3v3_lim);            pack16(&data[2],&data[3],(uint16_t)r->soft_limits.v3v3_curr_lim);       break;
 8002bb6:	683b      	ldr	r3, [r7, #0]
 8002bb8:	1c5a      	adds	r2, r3, #1
 8002bba:	6b3b      	ldr	r3, [r7, #48]	; 0x30
 8002bbc:	f8b3 326a 	ldrh.w	r3, [r3, #618]	; 0x26a
 8002bc0:	b29b      	uxth	r3, r3
 8002bc2:	6838      	ldr	r0, [r7, #0]
 8002bc4:	4611      	mov	r1, r2
 8002bc6:	461a      	mov	r2, r3
 8002bc8:	f7fd fc0a 	bl	80003e0 <pack16>
 8002bcc:	683b      	ldr	r3, [r7, #0]
 8002bce:	1c99      	adds	r1, r3, #2
 8002bd0:	683b      	ldr	r3, [r7, #0]
 8002bd2:	1cda      	adds	r2, r3, #3
 8002bd4:	6b3b      	ldr	r3, [r7, #48]	; 0x30
 8002bd6:	f8b3 326c 	ldrh.w	r3, [r3, #620]	; 0x26c
 8002bda:	b29b      	uxth	r3, r3
 8002bdc:	4608      	mov	r0, r1
 8002bde:	4611      	mov	r1, r2
 8002be0:	461a      	mov	r2, r3
 8002be2:	f7fd fbfd 	bl	80003e0 <pack16>
 8002be6:	e257      	b.n	8003098 <build_response+0x2b74>
        case 0xBFU: pack16(&data[0],&data[1],(uint16_t)r->soft_limits.aux_24v_lim);         pack16(&data[2],&data[3],(uint16_t)r->soft_limits.aux_24v_curr_lim);    break;
 8002be8:	683b      	ldr	r3, [r7, #0]
 8002bea:	1c5a      	adds	r2, r3, #1
 8002bec:	6b3b      	ldr	r3, [r7, #48]	; 0x30
 8002bee:	f8b3 326e 	ldrh.w	r3, [r3, #622]	; 0x26e
 8002bf2:	b29b      	uxth	r3, r3
 8002bf4:	6838      	ldr	r0, [r7, #0]
 8002bf6:	4611      	mov	r1, r2
 8002bf8:	461a      	mov	r2, r3
 8002bfa:	f7fd fbf1 	bl	80003e0 <pack16>
 8002bfe:	683b      	ldr	r3, [r7, #0]
 8002c00:	1c99      	adds	r1, r3, #2
 8002c02:	683b      	ldr	r3, [r7, #0]
 8002c04:	1cda      	adds	r2, r3, #3
 8002c06:	6b3b      	ldr	r3, [r7, #48]	; 0x30
 8002c08:	f8b3 3270 	ldrh.w	r3, [r3, #624]	; 0x270
 8002c0c:	b29b      	uxth	r3, r3
 8002c0e:	4608      	mov	r0, r1
 8002c10:	4611      	mov	r1, r2
 8002c12:	461a      	mov	r2, r3
 8002c14:	f7fd fbe4 	bl	80003e0 <pack16>
 8002c18:	e23e      	b.n	8003098 <build_response+0x2b74>
        case 0xC0U: pack16(&data[0],&data[1],(uint16_t)r->soft_limits.aux_12v_lim);         pack16(&data[2],&data[3],(uint16_t)r->soft_limits.aux_12v_curr_lim);    break;
 8002c1a:	683b      	ldr	r3, [r7, #0]
 8002c1c:	1c5a      	adds	r2, r3, #1
 8002c1e:	6b3b      	ldr	r3, [r7, #48]	; 0x30
 8002c20:	f8b3 3272 	ldrh.w	r3, [r3, #626]	; 0x272
 8002c24:	b29b      	uxth	r3, r3
 8002c26:	6838      	ldr	r0, [r7, #0]
 8002c28:	4611      	mov	r1, r2
 8002c2a:	461a      	mov	r2, r3
 8002c2c:	f7fd fbd8 	bl	80003e0 <pack16>
 8002c30:	683b      	ldr	r3, [r7, #0]
 8002c32:	1c99      	adds	r1, r3, #2
 8002c34:	683b      	ldr	r3, [r7, #0]
 8002c36:	1cda      	adds	r2, r3, #3
 8002c38:	6b3b      	ldr	r3, [r7, #48]	; 0x30
 8002c3a:	f8b3 3274 	ldrh.w	r3, [r3, #628]	; 0x274
 8002c3e:	b29b      	uxth	r3, r3
 8002c40:	4608      	mov	r0, r1
 8002c42:	4611      	mov	r1, r2
 8002c44:	461a      	mov	r2, r3
 8002c46:	f7fd fbcb 	bl	80003e0 <pack16>
 8002c4a:	e225      	b.n	8003098 <build_response+0x2b74>
        case 0xC1U: pack16(&data[0],&data[1],(uint16_t)r->soft_limits.estop_rec_a_12v_lim); pack16(&data[2],&data[3],(uint16_t)r->soft_limits.estop_rec_b_12v_lim); break;
 8002c4c:	683b      	ldr	r3, [r7, #0]
 8002c4e:	1c5a      	adds	r2, r3, #1
 8002c50:	6b3b      	ldr	r3, [r7, #48]	; 0x30
 8002c52:	f8b3 3276 	ldrh.w	r3, [r3, #630]	; 0x276
 8002c56:	b29b      	uxth	r3, r3
 8002c58:	6838      	ldr	r0, [r7, #0]
 8002c5a:	4611      	mov	r1, r2
 8002c5c:	461a      	mov	r2, r3
 8002c5e:	f7fd fbbf 	bl	80003e0 <pack16>
 8002c62:	683b      	ldr	r3, [r7, #0]
 8002c64:	1c99      	adds	r1, r3, #2
 8002c66:	683b      	ldr	r3, [r7, #0]
 8002c68:	1cda      	adds	r2, r3, #3
 8002c6a:	6b3b      	ldr	r3, [r7, #48]	; 0x30
 8002c6c:	f8b3 3278 	ldrh.w	r3, [r3, #632]	; 0x278
 8002c70:	b29b      	uxth	r3, r3
 8002c72:	4608      	mov	r0, r1
 8002c74:	4611      	mov	r1, r2
 8002c76:	461a      	mov	r2, r3
 8002c78:	f7fd fbb2 	bl	80003e0 <pack16>
 8002c7c:	e20c      	b.n	8003098 <build_response+0x2b74>
        case 0xC2U: pack16(&data[0],&data[1],(uint16_t)r->soft_limits.v12_b_imon3_lim);     pack16(&data[2],&data[3],(uint16_t)r->soft_limits.v12_b_imon4_lim);     break;
 8002c7e:	683b      	ldr	r3, [r7, #0]
 8002c80:	1c5a      	adds	r2, r3, #1
 8002c82:	6b3b      	ldr	r3, [r7, #48]	; 0x30
 8002c84:	f8b3 327a 	ldrh.w	r3, [r3, #634]	; 0x27a
 8002c88:	b29b      	uxth	r3, r3
 8002c8a:	6838      	ldr	r0, [r7, #0]
 8002c8c:	4611      	mov	r1, r2
 8002c8e:	461a      	mov	r2, r3
 8002c90:	f7fd fba6 	bl	80003e0 <pack16>
 8002c94:	683b      	ldr	r3, [r7, #0]
 8002c96:	1c99      	adds	r1, r3, #2
 8002c98:	683b      	ldr	r3, [r7, #0]
 8002c9a:	1cda      	adds	r2, r3, #3
 8002c9c:	6b3b      	ldr	r3, [r7, #48]	; 0x30
 8002c9e:	f8b3 327c 	ldrh.w	r3, [r3, #636]	; 0x27c
 8002ca2:	b29b      	uxth	r3, r3
 8002ca4:	4608      	mov	r0, r1
 8002ca6:	4611      	mov	r1, r2
 8002ca8:	461a      	mov	r2, r3
 8002caa:	f7fd fb99 	bl	80003e0 <pack16>
 8002cae:	e1f3      	b.n	8003098 <build_response+0x2b74>
        case 0xC3U: pack16(&data[0],&data[1],(uint16_t)r->soft_limits.hv_or_lim);           pack16(&data[2],&data[3],(uint16_t)r->soft_limits.mb_sp_imon_lim);      break;
 8002cb0:	683b      	ldr	r3, [r7, #0]
 8002cb2:	1c5a      	adds	r2, r3, #1
 8002cb4:	6b3b      	ldr	r3, [r7, #48]	; 0x30
 8002cb6:	f8b3 327e 	ldrh.w	r3, [r3, #638]	; 0x27e
 8002cba:	b29b      	uxth	r3, r3
 8002cbc:	6838      	ldr	r0, [r7, #0]
 8002cbe:	4611      	mov	r1, r2
 8002cc0:	461a      	mov	r2, r3
 8002cc2:	f7fd fb8d 	bl	80003e0 <pack16>
 8002cc6:	683b      	ldr	r3, [r7, #0]
 8002cc8:	1c99      	adds	r1, r3, #2
 8002cca:	683b      	ldr	r3, [r7, #0]
 8002ccc:	1cda      	adds	r2, r3, #3
 8002cce:	6b3b      	ldr	r3, [r7, #48]	; 0x30
 8002cd0:	f8b3 3280 	ldrh.w	r3, [r3, #640]	; 0x280
 8002cd4:	b29b      	uxth	r3, r3
 8002cd6:	4608      	mov	r0, r1
 8002cd8:	4611      	mov	r1, r2
 8002cda:	461a      	mov	r2, r3
 8002cdc:	f7fd fb80 	bl	80003e0 <pack16>
 8002ce0:	e1da      	b.n	8003098 <build_response+0x2b74>
        case 0xC4U: pack16(&data[0],&data[1],(uint16_t)r->soft_limits.temp0_plim);          pack16(&data[2],&data[3],(uint16_t)r->soft_limits.temp1_plim);          pack16(&data[4],&data[5],(uint16_t)r->soft_limits.temp2_plim);          break;
 8002ce2:	683b      	ldr	r3, [r7, #0]
 8002ce4:	1c5a      	adds	r2, r3, #1
 8002ce6:	6b3b      	ldr	r3, [r7, #48]	; 0x30
 8002ce8:	f8b3 3282 	ldrh.w	r3, [r3, #642]	; 0x282
 8002cec:	b29b      	uxth	r3, r3
 8002cee:	6838      	ldr	r0, [r7, #0]
 8002cf0:	4611      	mov	r1, r2
 8002cf2:	461a      	mov	r2, r3
 8002cf4:	f7fd fb74 	bl	80003e0 <pack16>
 8002cf8:	683b      	ldr	r3, [r7, #0]
 8002cfa:	1c99      	adds	r1, r3, #2
 8002cfc:	683b      	ldr	r3, [r7, #0]
 8002cfe:	1cda      	adds	r2, r3, #3
 8002d00:	6b3b      	ldr	r3, [r7, #48]	; 0x30
 8002d02:	f8b3 3284 	ldrh.w	r3, [r3, #644]	; 0x284
 8002d06:	b29b      	uxth	r3, r3
 8002d08:	4608      	mov	r0, r1
 8002d0a:	4611      	mov	r1, r2
 8002d0c:	461a      	mov	r2, r3
 8002d0e:	f7fd fb67 	bl	80003e0 <pack16>
 8002d12:	683b      	ldr	r3, [r7, #0]
 8002d14:	1d19      	adds	r1, r3, #4
 8002d16:	683b      	ldr	r3, [r7, #0]
 8002d18:	1d5a      	adds	r2, r3, #5
 8002d1a:	6b3b      	ldr	r3, [r7, #48]	; 0x30
 8002d1c:	f8b3 3286 	ldrh.w	r3, [r3, #646]	; 0x286
 8002d20:	b29b      	uxth	r3, r3
 8002d22:	4608      	mov	r0, r1
 8002d24:	4611      	mov	r1, r2
 8002d26:	461a      	mov	r2, r3
 8002d28:	f7fd fb5a 	bl	80003e0 <pack16>
 8002d2c:	e1b4      	b.n	8003098 <build_response+0x2b74>
        case 0xC5U: pack16(&data[0],&data[1],(uint16_t)r->soft_limits.temp3_plim);          pack16(&data[2],&data[3],(uint16_t)r->soft_limits.temp4_plim);          pack16(&data[4],&data[5],(uint16_t)r->soft_limits.temp5_plim);          break;
 8002d2e:	683b      	ldr	r3, [r7, #0]
 8002d30:	1c5a      	adds	r2, r3, #1
 8002d32:	6b3b      	ldr	r3, [r7, #48]	; 0x30
 8002d34:	f8b3 3288 	ldrh.w	r3, [r3, #648]	; 0x288
 8002d38:	b29b      	uxth	r3, r3
 8002d3a:	6838      	ldr	r0, [r7, #0]
 8002d3c:	4611      	mov	r1, r2
 8002d3e:	461a      	mov	r2, r3
 8002d40:	f7fd fb4e 	bl	80003e0 <pack16>
 8002d44:	683b      	ldr	r3, [r7, #0]
 8002d46:	1c99      	adds	r1, r3, #2
 8002d48:	683b      	ldr	r3, [r7, #0]
 8002d4a:	1cda      	adds	r2, r3, #3
 8002d4c:	6b3b      	ldr	r3, [r7, #48]	; 0x30
 8002d4e:	f8b3 328a 	ldrh.w	r3, [r3, #650]	; 0x28a
 8002d52:	b29b      	uxth	r3, r3
 8002d54:	4608      	mov	r0, r1
 8002d56:	4611      	mov	r1, r2
 8002d58:	461a      	mov	r2, r3
 8002d5a:	f7fd fb41 	bl	80003e0 <pack16>
 8002d5e:	683b      	ldr	r3, [r7, #0]
 8002d60:	1d19      	adds	r1, r3, #4
 8002d62:	683b      	ldr	r3, [r7, #0]
 8002d64:	1d5a      	adds	r2, r3, #5
 8002d66:	6b3b      	ldr	r3, [r7, #48]	; 0x30
 8002d68:	f8b3 328c 	ldrh.w	r3, [r3, #652]	; 0x28c
 8002d6c:	b29b      	uxth	r3, r3
 8002d6e:	4608      	mov	r0, r1
 8002d70:	4611      	mov	r1, r2
 8002d72:	461a      	mov	r2, r3
 8002d74:	f7fd fb34 	bl	80003e0 <pack16>
 8002d78:	e18e      	b.n	8003098 <build_response+0x2b74>
        case 0xC6U: pack16(&data[0],&data[1],(uint16_t)r->soft_limits.ex_temp0_plim);       pack16(&data[2],&data[3],(uint16_t)r->soft_limits.ex_temp1_plim);       break;
 8002d7a:	683b      	ldr	r3, [r7, #0]
 8002d7c:	1c5a      	adds	r2, r3, #1
 8002d7e:	6b3b      	ldr	r3, [r7, #48]	; 0x30
 8002d80:	f8b3 328e 	ldrh.w	r3, [r3, #654]	; 0x28e
 8002d84:	b29b      	uxth	r3, r3
 8002d86:	6838      	ldr	r0, [r7, #0]
 8002d88:	4611      	mov	r1, r2
 8002d8a:	461a      	mov	r2, r3
 8002d8c:	f7fd fb28 	bl	80003e0 <pack16>
 8002d90:	683b      	ldr	r3, [r7, #0]
 8002d92:	1c99      	adds	r1, r3, #2
 8002d94:	683b      	ldr	r3, [r7, #0]
 8002d96:	1cda      	adds	r2, r3, #3
 8002d98:	6b3b      	ldr	r3, [r7, #48]	; 0x30
 8002d9a:	f8b3 3290 	ldrh.w	r3, [r3, #656]	; 0x290
 8002d9e:	b29b      	uxth	r3, r3
 8002da0:	4608      	mov	r0, r1
 8002da2:	4611      	mov	r1, r2
 8002da4:	461a      	mov	r2, r3
 8002da6:	f7fd fb1b 	bl	80003e0 <pack16>
 8002daa:	e175      	b.n	8003098 <build_response+0x2b74>
        case 0xC7U: pack16(&data[0],&data[1],(uint16_t)r->soft_limits.lidar_a_12v_lim);     pack16(&data[2],&data[3],(uint16_t)r->soft_limits.lidar_b_12v_lim);     break;
 8002dac:	683b      	ldr	r3, [r7, #0]
 8002dae:	1c5a      	adds	r2, r3, #1
 8002db0:	6b3b      	ldr	r3, [r7, #48]	; 0x30
 8002db2:	f8b3 3292 	ldrh.w	r3, [r3, #658]	; 0x292
 8002db6:	b29b      	uxth	r3, r3
 8002db8:	6838      	ldr	r0, [r7, #0]
 8002dba:	4611      	mov	r1, r2
 8002dbc:	461a      	mov	r2, r3
 8002dbe:	f7fd fb0f 	bl	80003e0 <pack16>
 8002dc2:	683b      	ldr	r3, [r7, #0]
 8002dc4:	1c99      	adds	r1, r3, #2
 8002dc6:	683b      	ldr	r3, [r7, #0]
 8002dc8:	1cda      	adds	r2, r3, #3
 8002dca:	6b3b      	ldr	r3, [r7, #48]	; 0x30
 8002dcc:	f8b3 3294 	ldrh.w	r3, [r3, #660]	; 0x294
 8002dd0:	b29b      	uxth	r3, r3
 8002dd2:	4608      	mov	r0, r1
 8002dd4:	4611      	mov	r1, r2
 8002dd6:	461a      	mov	r2, r3
 8002dd8:	f7fd fb02 	bl	80003e0 <pack16>
 8002ddc:	e15c      	b.n	8003098 <build_response+0x2b74>
        case 0xC8U: pack16(&data[0],&data[1],(uint16_t)r->soft_limits.sto_24v_lim);         pack16(&data[2],&data[3],(uint16_t)r->soft_limits.chg_hvil_out_lim);    break;
 8002dde:	683b      	ldr	r3, [r7, #0]
 8002de0:	1c5a      	adds	r2, r3, #1
 8002de2:	6b3b      	ldr	r3, [r7, #48]	; 0x30
 8002de4:	f8b3 3296 	ldrh.w	r3, [r3, #662]	; 0x296
 8002de8:	b29b      	uxth	r3, r3
 8002dea:	6838      	ldr	r0, [r7, #0]
 8002dec:	4611      	mov	r1, r2
 8002dee:	461a      	mov	r2, r3
 8002df0:	f7fd faf6 	bl	80003e0 <pack16>
 8002df4:	683b      	ldr	r3, [r7, #0]
 8002df6:	1c99      	adds	r1, r3, #2
 8002df8:	683b      	ldr	r3, [r7, #0]
 8002dfa:	1cda      	adds	r2, r3, #3
 8002dfc:	6b3b      	ldr	r3, [r7, #48]	; 0x30
 8002dfe:	f8b3 3298 	ldrh.w	r3, [r3, #664]	; 0x298
 8002e02:	b29b      	uxth	r3, r3
 8002e04:	4608      	mov	r0, r1
 8002e06:	4611      	mov	r1, r2
 8002e08:	461a      	mov	r2, r3
 8002e0a:	f7fd fae9 	bl	80003e0 <pack16>
 8002e0e:	e143      	b.n	8003098 <build_response+0x2b74>
        case 0xC9U: pack16(&data[0],&data[1],(uint16_t)r->soft_limits.eth_2v5_lim);         pack16(&data[2],&data[3],(uint16_t)r->soft_limits.eth_1v2_lim);         break;
 8002e10:	683b      	ldr	r3, [r7, #0]
 8002e12:	1c5a      	adds	r2, r3, #1
 8002e14:	6b3b      	ldr	r3, [r7, #48]	; 0x30
 8002e16:	f8b3 329a 	ldrh.w	r3, [r3, #666]	; 0x29a
 8002e1a:	b29b      	uxth	r3, r3
 8002e1c:	6838      	ldr	r0, [r7, #0]
 8002e1e:	4611      	mov	r1, r2
 8002e20:	461a      	mov	r2, r3
 8002e22:	f7fd fadd 	bl	80003e0 <pack16>
 8002e26:	683b      	ldr	r3, [r7, #0]
 8002e28:	1c99      	adds	r1, r3, #2
 8002e2a:	683b      	ldr	r3, [r7, #0]
 8002e2c:	1cda      	adds	r2, r3, #3
 8002e2e:	6b3b      	ldr	r3, [r7, #48]	; 0x30
 8002e30:	f8b3 329c 	ldrh.w	r3, [r3, #668]	; 0x29c
 8002e34:	b29b      	uxth	r3, r3
 8002e36:	4608      	mov	r0, r1
 8002e38:	4611      	mov	r1, r2
 8002e3a:	461a      	mov	r2, r3
 8002e3c:	f7fd fad0 	bl	80003e0 <pack16>
 8002e40:	e12a      	b.n	8003098 <build_response+0x2b74>
        case 0xCAU: pack16(&data[0],&data[1],(uint16_t)r->soft_limits.ecat_3v3_lim);        pack16(&data[2],&data[3],(uint16_t)r->soft_limits.ecat_1v2_lim);        break;
 8002e42:	683b      	ldr	r3, [r7, #0]
 8002e44:	1c5a      	adds	r2, r3, #1
 8002e46:	6b3b      	ldr	r3, [r7, #48]	; 0x30
 8002e48:	f8b3 329e 	ldrh.w	r3, [r3, #670]	; 0x29e
 8002e4c:	b29b      	uxth	r3, r3
 8002e4e:	6838      	ldr	r0, [r7, #0]
 8002e50:	4611      	mov	r1, r2
 8002e52:	461a      	mov	r2, r3
 8002e54:	f7fd fac4 	bl	80003e0 <pack16>
 8002e58:	683b      	ldr	r3, [r7, #0]
 8002e5a:	1c99      	adds	r1, r3, #2
 8002e5c:	683b      	ldr	r3, [r7, #0]
 8002e5e:	1cda      	adds	r2, r3, #3
 8002e60:	6b3b      	ldr	r3, [r7, #48]	; 0x30
 8002e62:	f8b3 32a0 	ldrh.w	r3, [r3, #672]	; 0x2a0
 8002e66:	b29b      	uxth	r3, r3
 8002e68:	4608      	mov	r0, r1
 8002e6a:	4611      	mov	r1, r2
 8002e6c:	461a      	mov	r2, r3
 8002e6e:	f7fd fab7 	bl	80003e0 <pack16>
 8002e72:	e111      	b.n	8003098 <build_response+0x2b74>
        case 0xCBU: pack16(&data[0],&data[1],(uint16_t)r->soft_limits.v12_a_total_curr_lim); pack16(&data[2],&data[3],(uint16_t)r->soft_limits.v12_b_total_curr_lim); pack16(&data[4],&data[5],(uint16_t)r->soft_limits.v24_total_curr_lim); break;
 8002e74:	683b      	ldr	r3, [r7, #0]
 8002e76:	1c5a      	adds	r2, r3, #1
 8002e78:	6b3b      	ldr	r3, [r7, #48]	; 0x30
 8002e7a:	f8b3 32a2 	ldrh.w	r3, [r3, #674]	; 0x2a2
 8002e7e:	b29b      	uxth	r3, r3
 8002e80:	6838      	ldr	r0, [r7, #0]
 8002e82:	4611      	mov	r1, r2
 8002e84:	461a      	mov	r2, r3
 8002e86:	f7fd faab 	bl	80003e0 <pack16>
 8002e8a:	683b      	ldr	r3, [r7, #0]
 8002e8c:	1c99      	adds	r1, r3, #2
 8002e8e:	683b      	ldr	r3, [r7, #0]
 8002e90:	1cda      	adds	r2, r3, #3
 8002e92:	6b3b      	ldr	r3, [r7, #48]	; 0x30
 8002e94:	f8b3 32a4 	ldrh.w	r3, [r3, #676]	; 0x2a4
 8002e98:	b29b      	uxth	r3, r3
 8002e9a:	4608      	mov	r0, r1
 8002e9c:	4611      	mov	r1, r2
 8002e9e:	461a      	mov	r2, r3
 8002ea0:	f7fd fa9e 	bl	80003e0 <pack16>
 8002ea4:	683b      	ldr	r3, [r7, #0]
 8002ea6:	1d19      	adds	r1, r3, #4
 8002ea8:	683b      	ldr	r3, [r7, #0]
 8002eaa:	1d5a      	adds	r2, r3, #5
 8002eac:	6b3b      	ldr	r3, [r7, #48]	; 0x30
 8002eae:	f8b3 32a6 	ldrh.w	r3, [r3, #678]	; 0x2a6
 8002eb2:	b29b      	uxth	r3, r3
 8002eb4:	4608      	mov	r0, r1
 8002eb6:	4611      	mov	r1, r2
 8002eb8:	461a      	mov	r2, r3
 8002eba:	f7fd fa91 	bl	80003e0 <pack16>
 8002ebe:	e0eb      	b.n	8003098 <build_response+0x2b74>
        case 0xCCU: pack16(&data[2],&data[3],(uint16_t)r->soft_limits.batt1_curr_nlim);     pack16(&data[4],&data[5],(uint16_t)r->soft_limits.batt2_curr_nlim);     break;
 8002ec0:	683b      	ldr	r3, [r7, #0]
 8002ec2:	1c99      	adds	r1, r3, #2
 8002ec4:	683b      	ldr	r3, [r7, #0]
 8002ec6:	1cda      	adds	r2, r3, #3
 8002ec8:	6b3b      	ldr	r3, [r7, #48]	; 0x30
 8002eca:	f8b3 32a8 	ldrh.w	r3, [r3, #680]	; 0x2a8
 8002ece:	b29b      	uxth	r3, r3
 8002ed0:	4608      	mov	r0, r1
 8002ed2:	4611      	mov	r1, r2
 8002ed4:	461a      	mov	r2, r3
 8002ed6:	f7fd fa83 	bl	80003e0 <pack16>
 8002eda:	683b      	ldr	r3, [r7, #0]
 8002edc:	1d19      	adds	r1, r3, #4
 8002ede:	683b      	ldr	r3, [r7, #0]
 8002ee0:	1d5a      	adds	r2, r3, #5
 8002ee2:	6b3b      	ldr	r3, [r7, #48]	; 0x30
 8002ee4:	f8b3 32aa 	ldrh.w	r3, [r3, #682]	; 0x2aa
 8002ee8:	b29b      	uxth	r3, r3
 8002eea:	4608      	mov	r0, r1
 8002eec:	4611      	mov	r1, r2
 8002eee:	461a      	mov	r2, r3
 8002ef0:	f7fd fa76 	bl	80003e0 <pack16>
 8002ef4:	e0d0      	b.n	8003098 <build_response+0x2b74>
        case 0xCDU: pack16(&data[0],&data[1],(uint16_t)r->soft_limits.temp0_nlim);          pack16(&data[2],&data[3],(uint16_t)r->soft_limits.temp1_nlim);          pack16(&data[4],&data[5],(uint16_t)r->soft_limits.temp2_nlim);          break;
 8002ef6:	683b      	ldr	r3, [r7, #0]
 8002ef8:	1c5a      	adds	r2, r3, #1
 8002efa:	6b3b      	ldr	r3, [r7, #48]	; 0x30
 8002efc:	f8b3 32ac 	ldrh.w	r3, [r3, #684]	; 0x2ac
 8002f00:	b29b      	uxth	r3, r3
 8002f02:	6838      	ldr	r0, [r7, #0]
 8002f04:	4611      	mov	r1, r2
 8002f06:	461a      	mov	r2, r3
 8002f08:	f7fd fa6a 	bl	80003e0 <pack16>
 8002f0c:	683b      	ldr	r3, [r7, #0]
 8002f0e:	1c99      	adds	r1, r3, #2
 8002f10:	683b      	ldr	r3, [r7, #0]
 8002f12:	1cda      	adds	r2, r3, #3
 8002f14:	6b3b      	ldr	r3, [r7, #48]	; 0x30
 8002f16:	f8b3 32ae 	ldrh.w	r3, [r3, #686]	; 0x2ae
 8002f1a:	b29b      	uxth	r3, r3
 8002f1c:	4608      	mov	r0, r1
 8002f1e:	4611      	mov	r1, r2
 8002f20:	461a      	mov	r2, r3
 8002f22:	f7fd fa5d 	bl	80003e0 <pack16>
 8002f26:	683b      	ldr	r3, [r7, #0]
 8002f28:	1d19      	adds	r1, r3, #4
 8002f2a:	683b      	ldr	r3, [r7, #0]
 8002f2c:	1d5a      	adds	r2, r3, #5
 8002f2e:	6b3b      	ldr	r3, [r7, #48]	; 0x30
 8002f30:	f8b3 32b0 	ldrh.w	r3, [r3, #688]	; 0x2b0
 8002f34:	b29b      	uxth	r3, r3
 8002f36:	4608      	mov	r0, r1
 8002f38:	4611      	mov	r1, r2
 8002f3a:	461a      	mov	r2, r3
 8002f3c:	f7fd fa50 	bl	80003e0 <pack16>
 8002f40:	e0aa      	b.n	8003098 <build_response+0x2b74>
        case 0xCEU: pack16(&data[0],&data[1],(uint16_t)r->soft_limits.temp3_nlim);          pack16(&data[2],&data[3],(uint16_t)r->soft_limits.temp4_nlim);          pack16(&data[4],&data[5],(uint16_t)r->soft_limits.temp5_nlim);          break;
 8002f42:	683b      	ldr	r3, [r7, #0]
 8002f44:	1c5a      	adds	r2, r3, #1
 8002f46:	6b3b      	ldr	r3, [r7, #48]	; 0x30
 8002f48:	f8b3 32b2 	ldrh.w	r3, [r3, #690]	; 0x2b2
 8002f4c:	b29b      	uxth	r3, r3
 8002f4e:	6838      	ldr	r0, [r7, #0]
 8002f50:	4611      	mov	r1, r2
 8002f52:	461a      	mov	r2, r3
 8002f54:	f7fd fa44 	bl	80003e0 <pack16>
 8002f58:	683b      	ldr	r3, [r7, #0]
 8002f5a:	1c99      	adds	r1, r3, #2
 8002f5c:	683b      	ldr	r3, [r7, #0]
 8002f5e:	1cda      	adds	r2, r3, #3
 8002f60:	6b3b      	ldr	r3, [r7, #48]	; 0x30
 8002f62:	f8b3 32b4 	ldrh.w	r3, [r3, #692]	; 0x2b4
 8002f66:	b29b      	uxth	r3, r3
 8002f68:	4608      	mov	r0, r1
 8002f6a:	4611      	mov	r1, r2
 8002f6c:	461a      	mov	r2, r3
 8002f6e:	f7fd fa37 	bl	80003e0 <pack16>
 8002f72:	683b      	ldr	r3, [r7, #0]
 8002f74:	1d19      	adds	r1, r3, #4
 8002f76:	683b      	ldr	r3, [r7, #0]
 8002f78:	1d5a      	adds	r2, r3, #5
 8002f7a:	6b3b      	ldr	r3, [r7, #48]	; 0x30
 8002f7c:	f8b3 32b6 	ldrh.w	r3, [r3, #694]	; 0x2b6
 8002f80:	b29b      	uxth	r3, r3
 8002f82:	4608      	mov	r0, r1
 8002f84:	4611      	mov	r1, r2
 8002f86:	461a      	mov	r2, r3
 8002f88:	f7fd fa2a 	bl	80003e0 <pack16>
 8002f8c:	e084      	b.n	8003098 <build_response+0x2b74>
        case 0xCFU: pack16(&data[0],&data[1],(uint16_t)r->soft_limits.ex_temp0_nlim);       pack16(&data[2],&data[3],(uint16_t)r->soft_limits.ex_temp1_nlim);       break;
 8002f8e:	683b      	ldr	r3, [r7, #0]
 8002f90:	1c5a      	adds	r2, r3, #1
 8002f92:	6b3b      	ldr	r3, [r7, #48]	; 0x30
 8002f94:	f8b3 32b8 	ldrh.w	r3, [r3, #696]	; 0x2b8
 8002f98:	b29b      	uxth	r3, r3
 8002f9a:	6838      	ldr	r0, [r7, #0]
 8002f9c:	4611      	mov	r1, r2
 8002f9e:	461a      	mov	r2, r3
 8002fa0:	f7fd fa1e 	bl	80003e0 <pack16>
 8002fa4:	683b      	ldr	r3, [r7, #0]
 8002fa6:	1c99      	adds	r1, r3, #2
 8002fa8:	683b      	ldr	r3, [r7, #0]
 8002faa:	1cda      	adds	r2, r3, #3
 8002fac:	6b3b      	ldr	r3, [r7, #48]	; 0x30
 8002fae:	f8b3 32ba 	ldrh.w	r3, [r3, #698]	; 0x2ba
 8002fb2:	b29b      	uxth	r3, r3
 8002fb4:	4608      	mov	r0, r1
 8002fb6:	4611      	mov	r1, r2
 8002fb8:	461a      	mov	r2, r3
 8002fba:	f7fd fa11 	bl	80003e0 <pack16>
 8002fbe:	e06b      	b.n	8003098 <build_response+0x2b74>

        /* === LIMIT FAULT FLAGS (0xD0-0xD1, 0xD8-0xD9) === */
        case 0xD0U: memcpy(&data[0], g_regs.lim_faults.soft_grp1, 6U); break;
 8002fc0:	683a      	ldr	r2, [r7, #0]
 8002fc2:	4b37      	ldr	r3, [pc, #220]	; (80030a0 <build_response+0x2b7c>)
 8002fc4:	f503 732f 	add.w	r3, r3, #700	; 0x2bc
 8002fc8:	6818      	ldr	r0, [r3, #0]
 8002fca:	6010      	str	r0, [r2, #0]
 8002fcc:	889b      	ldrh	r3, [r3, #4]
 8002fce:	8093      	strh	r3, [r2, #4]
 8002fd0:	e062      	b.n	8003098 <build_response+0x2b74>
        case 0xD1U:
            data[0] = g_regs.lim_faults.soft_grp2[0];
 8002fd2:	4b33      	ldr	r3, [pc, #204]	; (80030a0 <build_response+0x2b7c>)
 8002fd4:	f893 22c2 	ldrb.w	r2, [r3, #706]	; 0x2c2
 8002fd8:	683b      	ldr	r3, [r7, #0]
 8002fda:	701a      	strb	r2, [r3, #0]
            data[1] = g_regs.lim_faults.soft_grp2[1];
 8002fdc:	683b      	ldr	r3, [r7, #0]
 8002fde:	3301      	adds	r3, #1
 8002fe0:	4a2f      	ldr	r2, [pc, #188]	; (80030a0 <build_response+0x2b7c>)
 8002fe2:	f892 22c3 	ldrb.w	r2, [r2, #707]	; 0x2c3
 8002fe6:	701a      	strb	r2, [r3, #0]
            data[2] = g_regs.lim_faults.soft_grp2[2];
 8002fe8:	683b      	ldr	r3, [r7, #0]
 8002fea:	3302      	adds	r3, #2
 8002fec:	4a2c      	ldr	r2, [pc, #176]	; (80030a0 <build_response+0x2b7c>)
 8002fee:	f892 22c4 	ldrb.w	r2, [r2, #708]	; 0x2c4
 8002ff2:	701a      	strb	r2, [r3, #0]
            break;
 8002ff4:	e050      	b.n	8003098 <build_response+0x2b74>
        case 0xD8U: memcpy(&data[0], g_regs.lim_faults.hard_grp1, 6U); break;
 8002ff6:	683a      	ldr	r2, [r7, #0]
 8002ff8:	4b29      	ldr	r3, [pc, #164]	; (80030a0 <build_response+0x2b7c>)
 8002ffa:	f203 23c5 	addw	r3, r3, #709	; 0x2c5
 8002ffe:	6819      	ldr	r1, [r3, #0]
 8003000:	6011      	str	r1, [r2, #0]
 8003002:	889b      	ldrh	r3, [r3, #4]
 8003004:	8093      	strh	r3, [r2, #4]
 8003006:	e047      	b.n	8003098 <build_response+0x2b74>
        case 0xD9U:
            data[0] = g_regs.lim_faults.hard_grp2[0];
 8003008:	4b25      	ldr	r3, [pc, #148]	; (80030a0 <build_response+0x2b7c>)
 800300a:	f893 22cb 	ldrb.w	r2, [r3, #715]	; 0x2cb
 800300e:	683b      	ldr	r3, [r7, #0]
 8003010:	701a      	strb	r2, [r3, #0]
            data[1] = g_regs.lim_faults.hard_grp2[1];
 8003012:	683b      	ldr	r3, [r7, #0]
 8003014:	3301      	adds	r3, #1
 8003016:	4a22      	ldr	r2, [pc, #136]	; (80030a0 <build_response+0x2b7c>)
 8003018:	f892 22cc 	ldrb.w	r2, [r2, #716]	; 0x2cc
 800301c:	701a      	strb	r2, [r3, #0]
            data[2] = g_regs.lim_faults.hard_grp2[2];
 800301e:	683b      	ldr	r3, [r7, #0]
 8003020:	3302      	adds	r3, #2
 8003022:	4a1f      	ldr	r2, [pc, #124]	; (80030a0 <build_response+0x2b7c>)
 8003024:	f892 22cd 	ldrb.w	r2, [r2, #717]	; 0x2cd
 8003028:	701a      	strb	r2, [r3, #0]
            break;
 800302a:	e035      	b.n	8003098 <build_response+0x2b74>

        /* === BUILD INFO + WRITE PROTECT (0x1F8, 0x1FA) === */
        case 0x1F8U:
            pack16(&data[0], &data[1], g_regs.build_info.hw_rev);
 800302c:	683b      	ldr	r3, [r7, #0]
 800302e:	1c5a      	adds	r2, r3, #1
 8003030:	4b1b      	ldr	r3, [pc, #108]	; (80030a0 <build_response+0x2b7c>)
 8003032:	f8b3 32ce 	ldrh.w	r3, [r3, #718]	; 0x2ce
 8003036:	6838      	ldr	r0, [r7, #0]
 8003038:	4611      	mov	r1, r2
 800303a:	461a      	mov	r2, r3
 800303c:	f7fd f9d0 	bl	80003e0 <pack16>
            pack16(&data[2], &data[3], g_regs.build_info.fw_rev);
 8003040:	683b      	ldr	r3, [r7, #0]
 8003042:	1c99      	adds	r1, r3, #2
 8003044:	683b      	ldr	r3, [r7, #0]
 8003046:	1cda      	adds	r2, r3, #3
 8003048:	4b15      	ldr	r3, [pc, #84]	; (80030a0 <build_response+0x2b7c>)
 800304a:	f8b3 32d0 	ldrh.w	r3, [r3, #720]	; 0x2d0
 800304e:	4608      	mov	r0, r1
 8003050:	4611      	mov	r1, r2
 8003052:	461a      	mov	r2, r3
 8003054:	f7fd f9c4 	bl	80003e0 <pack16>
            break;
 8003058:	e01e      	b.n	8003098 <build_response+0x2b74>
        case 0x1FAU:
            data[0] = g_regs.write_protect.b1;
 800305a:	4b11      	ldr	r3, [pc, #68]	; (80030a0 <build_response+0x2b7c>)
 800305c:	f893 22d2 	ldrb.w	r2, [r3, #722]	; 0x2d2
 8003060:	683b      	ldr	r3, [r7, #0]
 8003062:	701a      	strb	r2, [r3, #0]
            data[1] = g_regs.write_protect.b2;
 8003064:	683b      	ldr	r3, [r7, #0]
 8003066:	3301      	adds	r3, #1
 8003068:	4a0d      	ldr	r2, [pc, #52]	; (80030a0 <build_response+0x2b7c>)
 800306a:	f892 22d3 	ldrb.w	r2, [r2, #723]	; 0x2d3
 800306e:	701a      	strb	r2, [r3, #0]
            data[2] = g_regs.write_protect.b3;
 8003070:	683b      	ldr	r3, [r7, #0]
 8003072:	3302      	adds	r3, #2
 8003074:	4a0a      	ldr	r2, [pc, #40]	; (80030a0 <build_response+0x2b7c>)
 8003076:	f892 22d4 	ldrb.w	r2, [r2, #724]	; 0x2d4
 800307a:	701a      	strb	r2, [r3, #0]
            data[3] = g_regs.write_protect.b4;
 800307c:	683b      	ldr	r3, [r7, #0]
 800307e:	3303      	adds	r3, #3
 8003080:	4a07      	ldr	r2, [pc, #28]	; (80030a0 <build_response+0x2b7c>)
 8003082:	f892 22d5 	ldrb.w	r2, [r2, #725]	; 0x2d5
 8003086:	701a      	strb	r2, [r3, #0]
            data[4] = g_regs.write_protect.b5;
 8003088:	683b      	ldr	r3, [r7, #0]
 800308a:	3304      	adds	r3, #4
 800308c:	4a04      	ldr	r2, [pc, #16]	; (80030a0 <build_response+0x2b7c>)
 800308e:	f892 22d6 	ldrb.w	r2, [r2, #726]	; 0x2d6
 8003092:	701a      	strb	r2, [r3, #0]
            break;
 8003094:	e000      	b.n	8003098 <build_response+0x2b74>

        default:
            break;
 8003096:	bf00      	nop
    }
}
 8003098:	3738      	adds	r7, #56	; 0x38
 800309a:	46bd      	mov	sp, r7
 800309c:	bd80      	pop	{r7, pc}
 800309e:	bf00      	nop
 80030a0:	1ffe89b0 	.word	0x1ffe89b0

080030a4 <process_write>:

/* ============================================================
 * process_write() — unpack data[0..5] into g_regs fields
 * ============================================================ */
static void process_write(uint16_t data_id, const uint8_t data[8])
{
 80030a4:	b580      	push	{r7, lr}
 80030a6:	b08a      	sub	sp, #40	; 0x28
 80030a8:	af00      	add	r7, sp, #0
 80030aa:	4603      	mov	r3, r0
 80030ac:	6039      	str	r1, [r7, #0]
 80030ae:	80fb      	strh	r3, [r7, #6]
    PMB_Registers_t *r = &g_regs;
 80030b0:	4b05      	ldr	r3, [pc, #20]	; (80030c8 <process_write+0x24>)
 80030b2:	61fb      	str	r3, [r7, #28]

    if (!write_allowed(data_id)) { return; }
 80030b4:	88fb      	ldrh	r3, [r7, #6]
 80030b6:	4618      	mov	r0, r3
 80030b8:	f7fd f9e8 	bl	800048c <write_allowed>
 80030bc:	4603      	mov	r3, r0
 80030be:	2b00      	cmp	r3, #0
 80030c0:	d104      	bne.n	80030cc <process_write+0x28>
 80030c2:	f002 b9bc 	b.w	800543e <process_write+0x239a>
 80030c6:	bf00      	nop
 80030c8:	1ffe89b0 	.word	0x1ffe89b0

    switch (data_id) {
 80030cc:	88fb      	ldrh	r3, [r7, #6]
 80030ce:	3b1f      	subs	r3, #31
 80030d0:	f240 12db 	movw	r2, #475	; 0x1db
 80030d4:	4293      	cmp	r3, r2
 80030d6:	f202 81b1 	bhi.w	800543c <process_write+0x2398>
 80030da:	a101      	add	r1, pc, #4	; (adr r1, 80030e0 <process_write+0x3c>)
 80030dc:	f851 f023 	ldr.w	pc, [r1, r3, lsl #2]
 80030e0:	08003851 	.word	0x08003851
 80030e4:	0800386b 	.word	0x0800386b
 80030e8:	080038ad 	.word	0x080038ad
 80030ec:	0800543d 	.word	0x0800543d
 80030f0:	08003903 	.word	0x08003903
 80030f4:	0800543d 	.word	0x0800543d
 80030f8:	0800543d 	.word	0x0800543d
 80030fc:	0800543d 	.word	0x0800543d
 8003100:	0800543d 	.word	0x0800543d
 8003104:	0800543d 	.word	0x0800543d
 8003108:	0800543d 	.word	0x0800543d
 800310c:	0800543d 	.word	0x0800543d
 8003110:	0800543d 	.word	0x0800543d
 8003114:	0800543d 	.word	0x0800543d
 8003118:	0800543d 	.word	0x0800543d
 800311c:	0800543d 	.word	0x0800543d
 8003120:	0800543d 	.word	0x0800543d
 8003124:	08003945 	.word	0x08003945
 8003128:	080039a1 	.word	0x080039a1
 800312c:	080039fd 	.word	0x080039fd
 8003130:	08003a59 	.word	0x08003a59
 8003134:	08003ab5 	.word	0x08003ab5
 8003138:	08003b15 	.word	0x08003b15
 800313c:	08003b53 	.word	0x08003b53
 8003140:	08003b91 	.word	0x08003b91
 8003144:	08003bcf 	.word	0x08003bcf
 8003148:	08003c0d 	.word	0x08003c0d
 800314c:	08003c4b 	.word	0x08003c4b
 8003150:	08003ca7 	.word	0x08003ca7
 8003154:	08003d03 	.word	0x08003d03
 8003158:	08003d41 	.word	0x08003d41
 800315c:	08003d7f 	.word	0x08003d7f
 8003160:	08003dbd 	.word	0x08003dbd
 8003164:	08003dfb 	.word	0x08003dfb
 8003168:	08003e39 	.word	0x08003e39
 800316c:	08003e77 	.word	0x08003e77
 8003170:	08003eb5 	.word	0x08003eb5
 8003174:	08003ef3 	.word	0x08003ef3
 8003178:	08003f4f 	.word	0x08003f4f
 800317c:	08003fab 	.word	0x08003fab
 8003180:	08003fe9 	.word	0x08003fe9
 8003184:	08004027 	.word	0x08004027
 8003188:	08004065 	.word	0x08004065
 800318c:	080040a3 	.word	0x080040a3
 8003190:	0800543d 	.word	0x0800543d
 8003194:	0800543d 	.word	0x0800543d
 8003198:	0800543d 	.word	0x0800543d
 800319c:	0800543d 	.word	0x0800543d
 80031a0:	0800543d 	.word	0x0800543d
 80031a4:	080040e1 	.word	0x080040e1
 80031a8:	0800413d 	.word	0x0800413d
 80031ac:	08004199 	.word	0x08004199
 80031b0:	080041f5 	.word	0x080041f5
 80031b4:	08004251 	.word	0x08004251
 80031b8:	080042ad 	.word	0x080042ad
 80031bc:	080042eb 	.word	0x080042eb
 80031c0:	08004329 	.word	0x08004329
 80031c4:	08004367 	.word	0x08004367
 80031c8:	080043a5 	.word	0x080043a5
 80031cc:	080043e3 	.word	0x080043e3
 80031d0:	0800443f 	.word	0x0800443f
 80031d4:	0800449b 	.word	0x0800449b
 80031d8:	080044d9 	.word	0x080044d9
 80031dc:	08004517 	.word	0x08004517
 80031e0:	08004555 	.word	0x08004555
 80031e4:	08004593 	.word	0x08004593
 80031e8:	080045d1 	.word	0x080045d1
 80031ec:	0800460f 	.word	0x0800460f
 80031f0:	0800464d 	.word	0x0800464d
 80031f4:	0800468b 	.word	0x0800468b
 80031f8:	080046e7 	.word	0x080046e7
 80031fc:	08004743 	.word	0x08004743
 8003200:	08004781 	.word	0x08004781
 8003204:	080047bf 	.word	0x080047bf
 8003208:	080047fd 	.word	0x080047fd
 800320c:	0800483b 	.word	0x0800483b
 8003210:	0800543d 	.word	0x0800543d
 8003214:	0800543d 	.word	0x0800543d
 8003218:	0800543d 	.word	0x0800543d
 800321c:	0800543d 	.word	0x0800543d
 8003220:	0800543d 	.word	0x0800543d
 8003224:	0800543d 	.word	0x0800543d
 8003228:	0800543d 	.word	0x0800543d
 800322c:	0800543d 	.word	0x0800543d
 8003230:	0800543d 	.word	0x0800543d
 8003234:	0800543d 	.word	0x0800543d
 8003238:	0800543d 	.word	0x0800543d
 800323c:	0800543d 	.word	0x0800543d
 8003240:	0800543d 	.word	0x0800543d
 8003244:	0800543d 	.word	0x0800543d
 8003248:	0800543d 	.word	0x0800543d
 800324c:	0800543d 	.word	0x0800543d
 8003250:	0800543d 	.word	0x0800543d
 8003254:	0800543d 	.word	0x0800543d
 8003258:	0800543d 	.word	0x0800543d
 800325c:	0800543d 	.word	0x0800543d
 8003260:	0800543d 	.word	0x0800543d
 8003264:	0800543d 	.word	0x0800543d
 8003268:	0800543d 	.word	0x0800543d
 800326c:	0800543d 	.word	0x0800543d
 8003270:	0800543d 	.word	0x0800543d
 8003274:	0800543d 	.word	0x0800543d
 8003278:	0800543d 	.word	0x0800543d
 800327c:	0800543d 	.word	0x0800543d
 8003280:	0800543d 	.word	0x0800543d
 8003284:	0800543d 	.word	0x0800543d
 8003288:	0800543d 	.word	0x0800543d
 800328c:	0800543d 	.word	0x0800543d
 8003290:	0800543d 	.word	0x0800543d
 8003294:	0800543d 	.word	0x0800543d
 8003298:	0800543d 	.word	0x0800543d
 800329c:	0800543d 	.word	0x0800543d
 80032a0:	0800543d 	.word	0x0800543d
 80032a4:	0800543d 	.word	0x0800543d
 80032a8:	0800543d 	.word	0x0800543d
 80032ac:	0800543d 	.word	0x0800543d
 80032b0:	0800543d 	.word	0x0800543d
 80032b4:	0800543d 	.word	0x0800543d
 80032b8:	0800543d 	.word	0x0800543d
 80032bc:	0800543d 	.word	0x0800543d
 80032c0:	0800543d 	.word	0x0800543d
 80032c4:	0800543d 	.word	0x0800543d
 80032c8:	0800543d 	.word	0x0800543d
 80032cc:	0800543d 	.word	0x0800543d
 80032d0:	0800543d 	.word	0x0800543d
 80032d4:	0800543d 	.word	0x0800543d
 80032d8:	0800543d 	.word	0x0800543d
 80032dc:	0800543d 	.word	0x0800543d
 80032e0:	0800543d 	.word	0x0800543d
 80032e4:	0800543d 	.word	0x0800543d
 80032e8:	0800543d 	.word	0x0800543d
 80032ec:	0800543d 	.word	0x0800543d
 80032f0:	0800543d 	.word	0x0800543d
 80032f4:	0800543d 	.word	0x0800543d
 80032f8:	0800543d 	.word	0x0800543d
 80032fc:	0800543d 	.word	0x0800543d
 8003300:	0800543d 	.word	0x0800543d
 8003304:	0800517b 	.word	0x0800517b
 8003308:	0800519b 	.word	0x0800519b
 800330c:	080051fb 	.word	0x080051fb
 8003310:	0800543d 	.word	0x0800543d
 8003314:	0800543d 	.word	0x0800543d
 8003318:	0800543d 	.word	0x0800543d
 800331c:	0800543d 	.word	0x0800543d
 8003320:	0800543d 	.word	0x0800543d
 8003324:	08004879 	.word	0x08004879
 8003328:	080048d5 	.word	0x080048d5
 800332c:	08004931 	.word	0x08004931
 8003330:	0800498d 	.word	0x0800498d
 8003334:	080049e9 	.word	0x080049e9
 8003338:	08004a45 	.word	0x08004a45
 800333c:	08004a83 	.word	0x08004a83
 8003340:	08004ac1 	.word	0x08004ac1
 8003344:	08004aff 	.word	0x08004aff
 8003348:	08004b3d 	.word	0x08004b3d
 800334c:	08004b7b 	.word	0x08004b7b
 8003350:	08004bd7 	.word	0x08004bd7
 8003354:	08004c33 	.word	0x08004c33
 8003358:	08004c6f 	.word	0x08004c6f
 800335c:	08004cab 	.word	0x08004cab
 8003360:	08004ce7 	.word	0x08004ce7
 8003364:	08004d23 	.word	0x08004d23
 8003368:	08004d5f 	.word	0x08004d5f
 800336c:	08004d9b 	.word	0x08004d9b
 8003370:	08004dd7 	.word	0x08004dd7
 8003374:	08004e13 	.word	0x08004e13
 8003378:	08004e6d 	.word	0x08004e6d
 800337c:	08004ec7 	.word	0x08004ec7
 8003380:	08004f03 	.word	0x08004f03
 8003384:	08004f3f 	.word	0x08004f3f
 8003388:	08004f7b 	.word	0x08004f7b
 800338c:	08004fb7 	.word	0x08004fb7
 8003390:	08004ff3 	.word	0x08004ff3
 8003394:	0800504d 	.word	0x0800504d
 8003398:	0800508b 	.word	0x0800508b
 800339c:	080050e5 	.word	0x080050e5
 80033a0:	0800513f 	.word	0x0800513f
 80033a4:	0800527b 	.word	0x0800527b
 80033a8:	080052c1 	.word	0x080052c1
 80033ac:	0800543d 	.word	0x0800543d
 80033b0:	0800543d 	.word	0x0800543d
 80033b4:	0800543d 	.word	0x0800543d
 80033b8:	0800543d 	.word	0x0800543d
 80033bc:	0800543d 	.word	0x0800543d
 80033c0:	0800543d 	.word	0x0800543d
 80033c4:	08005321 	.word	0x08005321
 80033c8:	08005367 	.word	0x08005367
 80033cc:	0800543d 	.word	0x0800543d
 80033d0:	0800543d 	.word	0x0800543d
 80033d4:	0800543d 	.word	0x0800543d
 80033d8:	0800543d 	.word	0x0800543d
 80033dc:	0800543d 	.word	0x0800543d
 80033e0:	0800543d 	.word	0x0800543d
 80033e4:	0800543d 	.word	0x0800543d
 80033e8:	0800543d 	.word	0x0800543d
 80033ec:	0800543d 	.word	0x0800543d
 80033f0:	0800543d 	.word	0x0800543d
 80033f4:	0800543d 	.word	0x0800543d
 80033f8:	0800543d 	.word	0x0800543d
 80033fc:	0800543d 	.word	0x0800543d
 8003400:	0800543d 	.word	0x0800543d
 8003404:	0800543d 	.word	0x0800543d
 8003408:	0800543d 	.word	0x0800543d
 800340c:	0800543d 	.word	0x0800543d
 8003410:	0800543d 	.word	0x0800543d
 8003414:	0800543d 	.word	0x0800543d
 8003418:	0800543d 	.word	0x0800543d
 800341c:	0800543d 	.word	0x0800543d
 8003420:	0800543d 	.word	0x0800543d
 8003424:	0800543d 	.word	0x0800543d
 8003428:	0800543d 	.word	0x0800543d
 800342c:	0800543d 	.word	0x0800543d
 8003430:	0800543d 	.word	0x0800543d
 8003434:	0800543d 	.word	0x0800543d
 8003438:	0800543d 	.word	0x0800543d
 800343c:	0800543d 	.word	0x0800543d
 8003440:	0800543d 	.word	0x0800543d
 8003444:	0800543d 	.word	0x0800543d
 8003448:	0800543d 	.word	0x0800543d
 800344c:	0800543d 	.word	0x0800543d
 8003450:	0800543d 	.word	0x0800543d
 8003454:	0800543d 	.word	0x0800543d
 8003458:	0800543d 	.word	0x0800543d
 800345c:	0800543d 	.word	0x0800543d
 8003460:	0800543d 	.word	0x0800543d
 8003464:	0800543d 	.word	0x0800543d
 8003468:	0800543d 	.word	0x0800543d
 800346c:	0800543d 	.word	0x0800543d
 8003470:	0800543d 	.word	0x0800543d
 8003474:	0800543d 	.word	0x0800543d
 8003478:	0800543d 	.word	0x0800543d
 800347c:	0800543d 	.word	0x0800543d
 8003480:	0800543d 	.word	0x0800543d
 8003484:	0800543d 	.word	0x0800543d
 8003488:	0800543d 	.word	0x0800543d
 800348c:	0800543d 	.word	0x0800543d
 8003490:	0800543d 	.word	0x0800543d
 8003494:	0800543d 	.word	0x0800543d
 8003498:	0800543d 	.word	0x0800543d
 800349c:	0800543d 	.word	0x0800543d
 80034a0:	0800543d 	.word	0x0800543d
 80034a4:	0800543d 	.word	0x0800543d
 80034a8:	0800543d 	.word	0x0800543d
 80034ac:	0800543d 	.word	0x0800543d
 80034b0:	0800543d 	.word	0x0800543d
 80034b4:	0800543d 	.word	0x0800543d
 80034b8:	0800543d 	.word	0x0800543d
 80034bc:	0800543d 	.word	0x0800543d
 80034c0:	0800543d 	.word	0x0800543d
 80034c4:	0800543d 	.word	0x0800543d
 80034c8:	0800543d 	.word	0x0800543d
 80034cc:	0800543d 	.word	0x0800543d
 80034d0:	0800543d 	.word	0x0800543d
 80034d4:	0800543d 	.word	0x0800543d
 80034d8:	0800543d 	.word	0x0800543d
 80034dc:	0800543d 	.word	0x0800543d
 80034e0:	0800543d 	.word	0x0800543d
 80034e4:	0800543d 	.word	0x0800543d
 80034e8:	0800543d 	.word	0x0800543d
 80034ec:	0800543d 	.word	0x0800543d
 80034f0:	0800543d 	.word	0x0800543d
 80034f4:	0800543d 	.word	0x0800543d
 80034f8:	0800543d 	.word	0x0800543d
 80034fc:	0800543d 	.word	0x0800543d
 8003500:	0800543d 	.word	0x0800543d
 8003504:	0800543d 	.word	0x0800543d
 8003508:	0800543d 	.word	0x0800543d
 800350c:	0800543d 	.word	0x0800543d
 8003510:	0800543d 	.word	0x0800543d
 8003514:	0800543d 	.word	0x0800543d
 8003518:	0800543d 	.word	0x0800543d
 800351c:	0800543d 	.word	0x0800543d
 8003520:	0800543d 	.word	0x0800543d
 8003524:	0800543d 	.word	0x0800543d
 8003528:	0800543d 	.word	0x0800543d
 800352c:	0800543d 	.word	0x0800543d
 8003530:	0800543d 	.word	0x0800543d
 8003534:	0800543d 	.word	0x0800543d
 8003538:	0800543d 	.word	0x0800543d
 800353c:	0800543d 	.word	0x0800543d
 8003540:	0800543d 	.word	0x0800543d
 8003544:	0800543d 	.word	0x0800543d
 8003548:	0800543d 	.word	0x0800543d
 800354c:	0800543d 	.word	0x0800543d
 8003550:	0800543d 	.word	0x0800543d
 8003554:	0800543d 	.word	0x0800543d
 8003558:	0800543d 	.word	0x0800543d
 800355c:	0800543d 	.word	0x0800543d
 8003560:	0800543d 	.word	0x0800543d
 8003564:	0800543d 	.word	0x0800543d
 8003568:	0800543d 	.word	0x0800543d
 800356c:	0800543d 	.word	0x0800543d
 8003570:	0800543d 	.word	0x0800543d
 8003574:	0800543d 	.word	0x0800543d
 8003578:	0800543d 	.word	0x0800543d
 800357c:	0800543d 	.word	0x0800543d
 8003580:	0800543d 	.word	0x0800543d
 8003584:	0800543d 	.word	0x0800543d
 8003588:	0800543d 	.word	0x0800543d
 800358c:	0800543d 	.word	0x0800543d
 8003590:	0800543d 	.word	0x0800543d
 8003594:	0800543d 	.word	0x0800543d
 8003598:	0800543d 	.word	0x0800543d
 800359c:	0800543d 	.word	0x0800543d
 80035a0:	0800543d 	.word	0x0800543d
 80035a4:	0800543d 	.word	0x0800543d
 80035a8:	0800543d 	.word	0x0800543d
 80035ac:	0800543d 	.word	0x0800543d
 80035b0:	0800543d 	.word	0x0800543d
 80035b4:	0800543d 	.word	0x0800543d
 80035b8:	0800543d 	.word	0x0800543d
 80035bc:	0800543d 	.word	0x0800543d
 80035c0:	0800543d 	.word	0x0800543d
 80035c4:	0800543d 	.word	0x0800543d
 80035c8:	0800543d 	.word	0x0800543d
 80035cc:	0800543d 	.word	0x0800543d
 80035d0:	0800543d 	.word	0x0800543d
 80035d4:	0800543d 	.word	0x0800543d
 80035d8:	0800543d 	.word	0x0800543d
 80035dc:	0800543d 	.word	0x0800543d
 80035e0:	0800543d 	.word	0x0800543d
 80035e4:	0800543d 	.word	0x0800543d
 80035e8:	0800543d 	.word	0x0800543d
 80035ec:	0800543d 	.word	0x0800543d
 80035f0:	0800543d 	.word	0x0800543d
 80035f4:	0800543d 	.word	0x0800543d
 80035f8:	0800543d 	.word	0x0800543d
 80035fc:	0800543d 	.word	0x0800543d
 8003600:	0800543d 	.word	0x0800543d
 8003604:	0800543d 	.word	0x0800543d
 8003608:	0800543d 	.word	0x0800543d
 800360c:	0800543d 	.word	0x0800543d
 8003610:	0800543d 	.word	0x0800543d
 8003614:	0800543d 	.word	0x0800543d
 8003618:	0800543d 	.word	0x0800543d
 800361c:	0800543d 	.word	0x0800543d
 8003620:	0800543d 	.word	0x0800543d
 8003624:	0800543d 	.word	0x0800543d
 8003628:	0800543d 	.word	0x0800543d
 800362c:	0800543d 	.word	0x0800543d
 8003630:	0800543d 	.word	0x0800543d
 8003634:	0800543d 	.word	0x0800543d
 8003638:	0800543d 	.word	0x0800543d
 800363c:	0800543d 	.word	0x0800543d
 8003640:	0800543d 	.word	0x0800543d
 8003644:	0800543d 	.word	0x0800543d
 8003648:	0800543d 	.word	0x0800543d
 800364c:	0800543d 	.word	0x0800543d
 8003650:	0800543d 	.word	0x0800543d
 8003654:	0800543d 	.word	0x0800543d
 8003658:	0800543d 	.word	0x0800543d
 800365c:	0800543d 	.word	0x0800543d
 8003660:	0800543d 	.word	0x0800543d
 8003664:	0800543d 	.word	0x0800543d
 8003668:	0800543d 	.word	0x0800543d
 800366c:	0800543d 	.word	0x0800543d
 8003670:	0800543d 	.word	0x0800543d
 8003674:	0800543d 	.word	0x0800543d
 8003678:	0800543d 	.word	0x0800543d
 800367c:	0800543d 	.word	0x0800543d
 8003680:	0800543d 	.word	0x0800543d
 8003684:	0800543d 	.word	0x0800543d
 8003688:	0800543d 	.word	0x0800543d
 800368c:	0800543d 	.word	0x0800543d
 8003690:	0800543d 	.word	0x0800543d
 8003694:	0800543d 	.word	0x0800543d
 8003698:	0800543d 	.word	0x0800543d
 800369c:	0800543d 	.word	0x0800543d
 80036a0:	0800543d 	.word	0x0800543d
 80036a4:	0800543d 	.word	0x0800543d
 80036a8:	0800543d 	.word	0x0800543d
 80036ac:	0800543d 	.word	0x0800543d
 80036b0:	0800543d 	.word	0x0800543d
 80036b4:	0800543d 	.word	0x0800543d
 80036b8:	0800543d 	.word	0x0800543d
 80036bc:	0800543d 	.word	0x0800543d
 80036c0:	0800543d 	.word	0x0800543d
 80036c4:	0800543d 	.word	0x0800543d
 80036c8:	0800543d 	.word	0x0800543d
 80036cc:	0800543d 	.word	0x0800543d
 80036d0:	0800543d 	.word	0x0800543d
 80036d4:	0800543d 	.word	0x0800543d
 80036d8:	0800543d 	.word	0x0800543d
 80036dc:	0800543d 	.word	0x0800543d
 80036e0:	0800543d 	.word	0x0800543d
 80036e4:	0800543d 	.word	0x0800543d
 80036e8:	0800543d 	.word	0x0800543d
 80036ec:	0800543d 	.word	0x0800543d
 80036f0:	0800543d 	.word	0x0800543d
 80036f4:	0800543d 	.word	0x0800543d
 80036f8:	0800543d 	.word	0x0800543d
 80036fc:	0800543d 	.word	0x0800543d
 8003700:	0800543d 	.word	0x0800543d
 8003704:	0800543d 	.word	0x0800543d
 8003708:	0800543d 	.word	0x0800543d
 800370c:	0800543d 	.word	0x0800543d
 8003710:	0800543d 	.word	0x0800543d
 8003714:	0800543d 	.word	0x0800543d
 8003718:	0800543d 	.word	0x0800543d
 800371c:	0800543d 	.word	0x0800543d
 8003720:	0800543d 	.word	0x0800543d
 8003724:	0800543d 	.word	0x0800543d
 8003728:	0800543d 	.word	0x0800543d
 800372c:	0800543d 	.word	0x0800543d
 8003730:	0800543d 	.word	0x0800543d
 8003734:	0800543d 	.word	0x0800543d
 8003738:	0800543d 	.word	0x0800543d
 800373c:	0800543d 	.word	0x0800543d
 8003740:	0800543d 	.word	0x0800543d
 8003744:	0800543d 	.word	0x0800543d
 8003748:	0800543d 	.word	0x0800543d
 800374c:	0800543d 	.word	0x0800543d
 8003750:	0800543d 	.word	0x0800543d
 8003754:	0800543d 	.word	0x0800543d
 8003758:	0800543d 	.word	0x0800543d
 800375c:	0800543d 	.word	0x0800543d
 8003760:	0800543d 	.word	0x0800543d
 8003764:	0800543d 	.word	0x0800543d
 8003768:	0800543d 	.word	0x0800543d
 800376c:	0800543d 	.word	0x0800543d
 8003770:	0800543d 	.word	0x0800543d
 8003774:	0800543d 	.word	0x0800543d
 8003778:	0800543d 	.word	0x0800543d
 800377c:	0800543d 	.word	0x0800543d
 8003780:	0800543d 	.word	0x0800543d
 8003784:	0800543d 	.word	0x0800543d
 8003788:	0800543d 	.word	0x0800543d
 800378c:	0800543d 	.word	0x0800543d
 8003790:	0800543d 	.word	0x0800543d
 8003794:	0800543d 	.word	0x0800543d
 8003798:	0800543d 	.word	0x0800543d
 800379c:	0800543d 	.word	0x0800543d
 80037a0:	0800543d 	.word	0x0800543d
 80037a4:	0800543d 	.word	0x0800543d
 80037a8:	0800543d 	.word	0x0800543d
 80037ac:	0800543d 	.word	0x0800543d
 80037b0:	0800543d 	.word	0x0800543d
 80037b4:	0800543d 	.word	0x0800543d
 80037b8:	0800543d 	.word	0x0800543d
 80037bc:	0800543d 	.word	0x0800543d
 80037c0:	0800543d 	.word	0x0800543d
 80037c4:	0800543d 	.word	0x0800543d
 80037c8:	0800543d 	.word	0x0800543d
 80037cc:	0800543d 	.word	0x0800543d
 80037d0:	0800543d 	.word	0x0800543d
 80037d4:	0800543d 	.word	0x0800543d
 80037d8:	0800543d 	.word	0x0800543d
 80037dc:	0800543d 	.word	0x0800543d
 80037e0:	0800543d 	.word	0x0800543d
 80037e4:	0800543d 	.word	0x0800543d
 80037e8:	0800543d 	.word	0x0800543d
 80037ec:	0800543d 	.word	0x0800543d
 80037f0:	0800543d 	.word	0x0800543d
 80037f4:	0800543d 	.word	0x0800543d
 80037f8:	0800543d 	.word	0x0800543d
 80037fc:	0800543d 	.word	0x0800543d
 8003800:	0800543d 	.word	0x0800543d
 8003804:	0800543d 	.word	0x0800543d
 8003808:	0800543d 	.word	0x0800543d
 800380c:	0800543d 	.word	0x0800543d
 8003810:	0800543d 	.word	0x0800543d
 8003814:	0800543d 	.word	0x0800543d
 8003818:	0800543d 	.word	0x0800543d
 800381c:	0800543d 	.word	0x0800543d
 8003820:	0800543d 	.word	0x0800543d
 8003824:	0800543d 	.word	0x0800543d
 8003828:	0800543d 	.word	0x0800543d
 800382c:	0800543d 	.word	0x0800543d
 8003830:	0800543d 	.word	0x0800543d
 8003834:	0800543d 	.word	0x0800543d
 8003838:	0800543d 	.word	0x0800543d
 800383c:	0800543d 	.word	0x0800543d
 8003840:	0800543d 	.word	0x0800543d
 8003844:	080053c7 	.word	0x080053c7
 8003848:	0800543d 	.word	0x0800543d
 800384c:	08005409 	.word	0x08005409

        /* === POWER ENABLE (0x1F-0x23, 0x22 is read-only) === */
        case 0x1FU:
            { PMB_PowerEnable_t *pe = &g_regs.pwr_enable;
 8003850:	4baf      	ldr	r3, [pc, #700]	; (8003b10 <process_write+0xa6c>)
 8003852:	61bb      	str	r3, [r7, #24]
              pe->grp1 = even_parity(data[0]);
 8003854:	683b      	ldr	r3, [r7, #0]
 8003856:	781b      	ldrb	r3, [r3, #0]
 8003858:	4618      	mov	r0, r3
 800385a:	f7fc fded 	bl	8000438 <even_parity>
 800385e:	4603      	mov	r3, r0
 8003860:	461a      	mov	r2, r3
 8003862:	69bb      	ldr	r3, [r7, #24]
 8003864:	701a      	strb	r2, [r3, #0]
            } break;
 8003866:	f001 bdea 	b.w	800543e <process_write+0x239a>
        case 0x20U:
            { PMB_PowerEnable_t *pe = &g_regs.pwr_enable;
 800386a:	4ba9      	ldr	r3, [pc, #676]	; (8003b10 <process_write+0xa6c>)
 800386c:	617b      	str	r3, [r7, #20]
              pe->grp2[0] = even_parity(data[0]);
 800386e:	683b      	ldr	r3, [r7, #0]
 8003870:	781b      	ldrb	r3, [r3, #0]
 8003872:	4618      	mov	r0, r3
 8003874:	f7fc fde0 	bl	8000438 <even_parity>
 8003878:	4603      	mov	r3, r0
 800387a:	461a      	mov	r2, r3
 800387c:	697b      	ldr	r3, [r7, #20]
 800387e:	705a      	strb	r2, [r3, #1]
              pe->grp2[1] = even_parity(data[1]);
 8003880:	683b      	ldr	r3, [r7, #0]
 8003882:	3301      	adds	r3, #1
 8003884:	781b      	ldrb	r3, [r3, #0]
 8003886:	4618      	mov	r0, r3
 8003888:	f7fc fdd6 	bl	8000438 <even_parity>
 800388c:	4603      	mov	r3, r0
 800388e:	461a      	mov	r2, r3
 8003890:	697b      	ldr	r3, [r7, #20]
 8003892:	709a      	strb	r2, [r3, #2]
              pe->grp2[2] = even_parity(data[2]);
 8003894:	683b      	ldr	r3, [r7, #0]
 8003896:	3302      	adds	r3, #2
 8003898:	781b      	ldrb	r3, [r3, #0]
 800389a:	4618      	mov	r0, r3
 800389c:	f7fc fdcc 	bl	8000438 <even_parity>
 80038a0:	4603      	mov	r3, r0
 80038a2:	461a      	mov	r2, r3
 80038a4:	697b      	ldr	r3, [r7, #20]
 80038a6:	70da      	strb	r2, [r3, #3]
            } break;
 80038a8:	f001 bdc9 	b.w	800543e <process_write+0x239a>
        case 0x21U:
            { PMB_PowerEnable_t *pe = &g_regs.pwr_enable;
 80038ac:	4b98      	ldr	r3, [pc, #608]	; (8003b10 <process_write+0xa6c>)
 80038ae:	613b      	str	r3, [r7, #16]
              pe->grp3[0] = even_parity(data[0]);
 80038b0:	683b      	ldr	r3, [r7, #0]
 80038b2:	781b      	ldrb	r3, [r3, #0]
 80038b4:	4618      	mov	r0, r3
 80038b6:	f7fc fdbf 	bl	8000438 <even_parity>
 80038ba:	4603      	mov	r3, r0
 80038bc:	461a      	mov	r2, r3
 80038be:	693b      	ldr	r3, [r7, #16]
 80038c0:	711a      	strb	r2, [r3, #4]
              pe->grp3[1] = even_parity(data[1]);
 80038c2:	683b      	ldr	r3, [r7, #0]
 80038c4:	3301      	adds	r3, #1
 80038c6:	781b      	ldrb	r3, [r3, #0]
 80038c8:	4618      	mov	r0, r3
 80038ca:	f7fc fdb5 	bl	8000438 <even_parity>
 80038ce:	4603      	mov	r3, r0
 80038d0:	461a      	mov	r2, r3
 80038d2:	693b      	ldr	r3, [r7, #16]
 80038d4:	715a      	strb	r2, [r3, #5]
              pe->grp3[2] = even_parity(data[2]);
 80038d6:	683b      	ldr	r3, [r7, #0]
 80038d8:	3302      	adds	r3, #2
 80038da:	781b      	ldrb	r3, [r3, #0]
 80038dc:	4618      	mov	r0, r3
 80038de:	f7fc fdab 	bl	8000438 <even_parity>
 80038e2:	4603      	mov	r3, r0
 80038e4:	461a      	mov	r2, r3
 80038e6:	693b      	ldr	r3, [r7, #16]
 80038e8:	719a      	strb	r2, [r3, #6]
              pe->grp3[3] = even_parity(data[3]);
 80038ea:	683b      	ldr	r3, [r7, #0]
 80038ec:	3303      	adds	r3, #3
 80038ee:	781b      	ldrb	r3, [r3, #0]
 80038f0:	4618      	mov	r0, r3
 80038f2:	f7fc fda1 	bl	8000438 <even_parity>
 80038f6:	4603      	mov	r3, r0
 80038f8:	461a      	mov	r2, r3
 80038fa:	693b      	ldr	r3, [r7, #16]
 80038fc:	71da      	strb	r2, [r3, #7]
            } break;
 80038fe:	f001 bd9e 	b.w	800543e <process_write+0x239a>
        case 0x23U:
            { PMB_PowerEnable_t *pe = &g_regs.pwr_enable;
 8003902:	4b83      	ldr	r3, [pc, #524]	; (8003b10 <process_write+0xa6c>)
 8003904:	60fb      	str	r3, [r7, #12]
              pe->grp4[0] = even_parity(data[0]);
 8003906:	683b      	ldr	r3, [r7, #0]
 8003908:	781b      	ldrb	r3, [r3, #0]
 800390a:	4618      	mov	r0, r3
 800390c:	f7fc fd94 	bl	8000438 <even_parity>
 8003910:	4603      	mov	r3, r0
 8003912:	461a      	mov	r2, r3
 8003914:	68fb      	ldr	r3, [r7, #12]
 8003916:	725a      	strb	r2, [r3, #9]
              pe->grp4[1] = even_parity(data[1]);
 8003918:	683b      	ldr	r3, [r7, #0]
 800391a:	3301      	adds	r3, #1
 800391c:	781b      	ldrb	r3, [r3, #0]
 800391e:	4618      	mov	r0, r3
 8003920:	f7fc fd8a 	bl	8000438 <even_parity>
 8003924:	4603      	mov	r3, r0
 8003926:	461a      	mov	r2, r3
 8003928:	68fb      	ldr	r3, [r7, #12]
 800392a:	729a      	strb	r2, [r3, #10]
              pe->grp4[2] = even_parity(data[2]);
 800392c:	683b      	ldr	r3, [r7, #0]
 800392e:	3302      	adds	r3, #2
 8003930:	781b      	ldrb	r3, [r3, #0]
 8003932:	4618      	mov	r0, r3
 8003934:	f7fc fd80 	bl	8000438 <even_parity>
 8003938:	4603      	mov	r3, r0
 800393a:	461a      	mov	r2, r3
 800393c:	68fb      	ldr	r3, [r7, #12]
 800393e:	72da      	strb	r2, [r3, #11]
            } break;
 8003940:	f001 bd7d 	b.w	800543e <process_write+0x239a>

        /* === 16-BIT OFFSETS (0x30-0x4A) === */
        case 0x30U: r->calib_offset.chg_curr_ofs=(int16_t)unpack16(data[0],data[1]); r->calib_offset.batt1_curr_ofs=(int16_t)unpack16(data[2],data[3]); r->calib_offset.batt2_curr_ofs=(int16_t)unpack16(data[4],data[5]); break;
 8003944:	683b      	ldr	r3, [r7, #0]
 8003946:	781a      	ldrb	r2, [r3, #0]
 8003948:	683b      	ldr	r3, [r7, #0]
 800394a:	3301      	adds	r3, #1
 800394c:	781b      	ldrb	r3, [r3, #0]
 800394e:	4610      	mov	r0, r2
 8003950:	4619      	mov	r1, r3
 8003952:	f7fc fd5b 	bl	800040c <unpack16>
 8003956:	4603      	mov	r3, r0
 8003958:	b29a      	uxth	r2, r3
 800395a:	69fb      	ldr	r3, [r7, #28]
 800395c:	f8a3 2094 	strh.w	r2, [r3, #148]	; 0x94
 8003960:	683b      	ldr	r3, [r7, #0]
 8003962:	3302      	adds	r3, #2
 8003964:	781a      	ldrb	r2, [r3, #0]
 8003966:	683b      	ldr	r3, [r7, #0]
 8003968:	3303      	adds	r3, #3
 800396a:	781b      	ldrb	r3, [r3, #0]
 800396c:	4610      	mov	r0, r2
 800396e:	4619      	mov	r1, r3
 8003970:	f7fc fd4c 	bl	800040c <unpack16>
 8003974:	4603      	mov	r3, r0
 8003976:	b29a      	uxth	r2, r3
 8003978:	69fb      	ldr	r3, [r7, #28]
 800397a:	f8a3 2096 	strh.w	r2, [r3, #150]	; 0x96
 800397e:	683b      	ldr	r3, [r7, #0]
 8003980:	3304      	adds	r3, #4
 8003982:	781a      	ldrb	r2, [r3, #0]
 8003984:	683b      	ldr	r3, [r7, #0]
 8003986:	3305      	adds	r3, #5
 8003988:	781b      	ldrb	r3, [r3, #0]
 800398a:	4610      	mov	r0, r2
 800398c:	4619      	mov	r1, r3
 800398e:	f7fc fd3d 	bl	800040c <unpack16>
 8003992:	4603      	mov	r3, r0
 8003994:	b29a      	uxth	r2, r3
 8003996:	69fb      	ldr	r3, [r7, #28]
 8003998:	f8a3 2098 	strh.w	r2, [r3, #152]	; 0x98
 800399c:	f001 bd4f 	b.w	800543e <process_write+0x239a>
        case 0x31U: r->calib_offset.ll_imon_ofs=(int16_t)unpack16(data[0],data[1]); r->calib_offset.rl_imon_ofs=(int16_t)unpack16(data[2],data[3]); r->calib_offset.la_imon_ofs=(int16_t)unpack16(data[4],data[5]); break;
 80039a0:	683b      	ldr	r3, [r7, #0]
 80039a2:	781a      	ldrb	r2, [r3, #0]
 80039a4:	683b      	ldr	r3, [r7, #0]
 80039a6:	3301      	adds	r3, #1
 80039a8:	781b      	ldrb	r3, [r3, #0]
 80039aa:	4610      	mov	r0, r2
 80039ac:	4619      	mov	r1, r3
 80039ae:	f7fc fd2d 	bl	800040c <unpack16>
 80039b2:	4603      	mov	r3, r0
 80039b4:	b29a      	uxth	r2, r3
 80039b6:	69fb      	ldr	r3, [r7, #28]
 80039b8:	f8a3 209a 	strh.w	r2, [r3, #154]	; 0x9a
 80039bc:	683b      	ldr	r3, [r7, #0]
 80039be:	3302      	adds	r3, #2
 80039c0:	781a      	ldrb	r2, [r3, #0]
 80039c2:	683b      	ldr	r3, [r7, #0]
 80039c4:	3303      	adds	r3, #3
 80039c6:	781b      	ldrb	r3, [r3, #0]
 80039c8:	4610      	mov	r0, r2
 80039ca:	4619      	mov	r1, r3
 80039cc:	f7fc fd1e 	bl	800040c <unpack16>
 80039d0:	4603      	mov	r3, r0
 80039d2:	b29a      	uxth	r2, r3
 80039d4:	69fb      	ldr	r3, [r7, #28]
 80039d6:	f8a3 209c 	strh.w	r2, [r3, #156]	; 0x9c
 80039da:	683b      	ldr	r3, [r7, #0]
 80039dc:	3304      	adds	r3, #4
 80039de:	781a      	ldrb	r2, [r3, #0]
 80039e0:	683b      	ldr	r3, [r7, #0]
 80039e2:	3305      	adds	r3, #5
 80039e4:	781b      	ldrb	r3, [r3, #0]
 80039e6:	4610      	mov	r0, r2
 80039e8:	4619      	mov	r1, r3
 80039ea:	f7fc fd0f 	bl	800040c <unpack16>
 80039ee:	4603      	mov	r3, r0
 80039f0:	b29a      	uxth	r2, r3
 80039f2:	69fb      	ldr	r3, [r7, #28]
 80039f4:	f8a3 209e 	strh.w	r2, [r3, #158]	; 0x9e
 80039f8:	f001 bd21 	b.w	800543e <process_write+0x239a>
        case 0x32U: r->calib_offset.ra_imon_ofs=(int16_t)unpack16(data[0],data[1]); r->calib_offset.tr_imon_ofs=(int16_t)unpack16(data[2],data[3]); r->calib_offset.chg_in_ofs=(int16_t)unpack16(data[4],data[5]); break;
 80039fc:	683b      	ldr	r3, [r7, #0]
 80039fe:	781a      	ldrb	r2, [r3, #0]
 8003a00:	683b      	ldr	r3, [r7, #0]
 8003a02:	3301      	adds	r3, #1
 8003a04:	781b      	ldrb	r3, [r3, #0]
 8003a06:	4610      	mov	r0, r2
 8003a08:	4619      	mov	r1, r3
 8003a0a:	f7fc fcff 	bl	800040c <unpack16>
 8003a0e:	4603      	mov	r3, r0
 8003a10:	b29a      	uxth	r2, r3
 8003a12:	69fb      	ldr	r3, [r7, #28]
 8003a14:	f8a3 20a0 	strh.w	r2, [r3, #160]	; 0xa0
 8003a18:	683b      	ldr	r3, [r7, #0]
 8003a1a:	3302      	adds	r3, #2
 8003a1c:	781a      	ldrb	r2, [r3, #0]
 8003a1e:	683b      	ldr	r3, [r7, #0]
 8003a20:	3303      	adds	r3, #3
 8003a22:	781b      	ldrb	r3, [r3, #0]
 8003a24:	4610      	mov	r0, r2
 8003a26:	4619      	mov	r1, r3
 8003a28:	f7fc fcf0 	bl	800040c <unpack16>
 8003a2c:	4603      	mov	r3, r0
 8003a2e:	b29a      	uxth	r2, r3
 8003a30:	69fb      	ldr	r3, [r7, #28]
 8003a32:	f8a3 20a2 	strh.w	r2, [r3, #162]	; 0xa2
 8003a36:	683b      	ldr	r3, [r7, #0]
 8003a38:	3304      	adds	r3, #4
 8003a3a:	781a      	ldrb	r2, [r3, #0]
 8003a3c:	683b      	ldr	r3, [r7, #0]
 8003a3e:	3305      	adds	r3, #5
 8003a40:	781b      	ldrb	r3, [r3, #0]
 8003a42:	4610      	mov	r0, r2
 8003a44:	4619      	mov	r1, r3
 8003a46:	f7fc fce1 	bl	800040c <unpack16>
 8003a4a:	4603      	mov	r3, r0
 8003a4c:	b29a      	uxth	r2, r3
 8003a4e:	69fb      	ldr	r3, [r7, #28]
 8003a50:	f8a3 20a4 	strh.w	r2, [r3, #164]	; 0xa4
 8003a54:	f001 bcf3 	b.w	800543e <process_write+0x239a>
        case 0x33U: r->calib_offset.hv_ofs=(int16_t)unpack16(data[0],data[1]); r->calib_offset.batt1_in_ofs=(int16_t)unpack16(data[2],data[3]); r->calib_offset.batt2_in_ofs=(int16_t)unpack16(data[4],data[5]); break;
 8003a58:	683b      	ldr	r3, [r7, #0]
 8003a5a:	781a      	ldrb	r2, [r3, #0]
 8003a5c:	683b      	ldr	r3, [r7, #0]
 8003a5e:	3301      	adds	r3, #1
 8003a60:	781b      	ldrb	r3, [r3, #0]
 8003a62:	4610      	mov	r0, r2
 8003a64:	4619      	mov	r1, r3
 8003a66:	f7fc fcd1 	bl	800040c <unpack16>
 8003a6a:	4603      	mov	r3, r0
 8003a6c:	b29a      	uxth	r2, r3
 8003a6e:	69fb      	ldr	r3, [r7, #28]
 8003a70:	f8a3 20a6 	strh.w	r2, [r3, #166]	; 0xa6
 8003a74:	683b      	ldr	r3, [r7, #0]
 8003a76:	3302      	adds	r3, #2
 8003a78:	781a      	ldrb	r2, [r3, #0]
 8003a7a:	683b      	ldr	r3, [r7, #0]
 8003a7c:	3303      	adds	r3, #3
 8003a7e:	781b      	ldrb	r3, [r3, #0]
 8003a80:	4610      	mov	r0, r2
 8003a82:	4619      	mov	r1, r3
 8003a84:	f7fc fcc2 	bl	800040c <unpack16>
 8003a88:	4603      	mov	r3, r0
 8003a8a:	b29a      	uxth	r2, r3
 8003a8c:	69fb      	ldr	r3, [r7, #28]
 8003a8e:	f8a3 20a8 	strh.w	r2, [r3, #168]	; 0xa8
 8003a92:	683b      	ldr	r3, [r7, #0]
 8003a94:	3304      	adds	r3, #4
 8003a96:	781a      	ldrb	r2, [r3, #0]
 8003a98:	683b      	ldr	r3, [r7, #0]
 8003a9a:	3305      	adds	r3, #5
 8003a9c:	781b      	ldrb	r3, [r3, #0]
 8003a9e:	4610      	mov	r0, r2
 8003aa0:	4619      	mov	r1, r3
 8003aa2:	f7fc fcb3 	bl	800040c <unpack16>
 8003aa6:	4603      	mov	r3, r0
 8003aa8:	b29a      	uxth	r2, r3
 8003aaa:	69fb      	ldr	r3, [r7, #28]
 8003aac:	f8a3 20aa 	strh.w	r2, [r3, #170]	; 0xaa
 8003ab0:	f001 bcc5 	b.w	800543e <process_write+0x239a>
        case 0x34U: r->calib_offset.nk_imon_ofs=(int16_t)unpack16(data[0],data[1]); r->calib_offset.mot_bus_ofs=(int16_t)unpack16(data[2],data[3]); r->calib_offset.chg_hv_ofs=(int16_t)unpack16(data[4],data[5]); break;
 8003ab4:	683b      	ldr	r3, [r7, #0]
 8003ab6:	781a      	ldrb	r2, [r3, #0]
 8003ab8:	683b      	ldr	r3, [r7, #0]
 8003aba:	3301      	adds	r3, #1
 8003abc:	781b      	ldrb	r3, [r3, #0]
 8003abe:	4610      	mov	r0, r2
 8003ac0:	4619      	mov	r1, r3
 8003ac2:	f7fc fca3 	bl	800040c <unpack16>
 8003ac6:	4603      	mov	r3, r0
 8003ac8:	b29a      	uxth	r2, r3
 8003aca:	69fb      	ldr	r3, [r7, #28]
 8003acc:	f8a3 20ac 	strh.w	r2, [r3, #172]	; 0xac
 8003ad0:	683b      	ldr	r3, [r7, #0]
 8003ad2:	3302      	adds	r3, #2
 8003ad4:	781a      	ldrb	r2, [r3, #0]
 8003ad6:	683b      	ldr	r3, [r7, #0]
 8003ad8:	3303      	adds	r3, #3
 8003ada:	781b      	ldrb	r3, [r3, #0]
 8003adc:	4610      	mov	r0, r2
 8003ade:	4619      	mov	r1, r3
 8003ae0:	f7fc fc94 	bl	800040c <unpack16>
 8003ae4:	4603      	mov	r3, r0
 8003ae6:	b29a      	uxth	r2, r3
 8003ae8:	69fb      	ldr	r3, [r7, #28]
 8003aea:	f8a3 20ae 	strh.w	r2, [r3, #174]	; 0xae
 8003aee:	683b      	ldr	r3, [r7, #0]
 8003af0:	3304      	adds	r3, #4
 8003af2:	781a      	ldrb	r2, [r3, #0]
 8003af4:	683b      	ldr	r3, [r7, #0]
 8003af6:	3305      	adds	r3, #5
 8003af8:	781b      	ldrb	r3, [r3, #0]
 8003afa:	4610      	mov	r0, r2
 8003afc:	4619      	mov	r1, r3
 8003afe:	f7fc fc85 	bl	800040c <unpack16>
 8003b02:	4603      	mov	r3, r0
 8003b04:	b29a      	uxth	r2, r3
 8003b06:	69fb      	ldr	r3, [r7, #28]
 8003b08:	f8a3 20b0 	strh.w	r2, [r3, #176]	; 0xb0
 8003b0c:	f001 bc97 	b.w	800543e <process_write+0x239a>
 8003b10:	1ffe8a38 	.word	0x1ffe8a38
        case 0x35U: r->calib_offset.user_hv_ofs=(int16_t)unpack16(data[0],data[1]); r->calib_offset.user_hv_curr_ofs=(int16_t)unpack16(data[2],data[3]); break;
 8003b14:	683b      	ldr	r3, [r7, #0]
 8003b16:	781a      	ldrb	r2, [r3, #0]
 8003b18:	683b      	ldr	r3, [r7, #0]
 8003b1a:	3301      	adds	r3, #1
 8003b1c:	781b      	ldrb	r3, [r3, #0]
 8003b1e:	4610      	mov	r0, r2
 8003b20:	4619      	mov	r1, r3
 8003b22:	f7fc fc73 	bl	800040c <unpack16>
 8003b26:	4603      	mov	r3, r0
 8003b28:	b29a      	uxth	r2, r3
 8003b2a:	69fb      	ldr	r3, [r7, #28]
 8003b2c:	f8a3 20b2 	strh.w	r2, [r3, #178]	; 0xb2
 8003b30:	683b      	ldr	r3, [r7, #0]
 8003b32:	3302      	adds	r3, #2
 8003b34:	781a      	ldrb	r2, [r3, #0]
 8003b36:	683b      	ldr	r3, [r7, #0]
 8003b38:	3303      	adds	r3, #3
 8003b3a:	781b      	ldrb	r3, [r3, #0]
 8003b3c:	4610      	mov	r0, r2
 8003b3e:	4619      	mov	r1, r3
 8003b40:	f7fc fc64 	bl	800040c <unpack16>
 8003b44:	4603      	mov	r3, r0
 8003b46:	b29a      	uxth	r2, r3
 8003b48:	69fb      	ldr	r3, [r7, #28]
 8003b4a:	f8a3 20b4 	strh.w	r2, [r3, #180]	; 0xb4
 8003b4e:	f001 bc76 	b.w	800543e <process_write+0x239a>
        case 0x36U: r->calib_offset.pc_24v_ofs=(int16_t)unpack16(data[0],data[1]); r->calib_offset.pc_24v_imon_ofs=(int16_t)unpack16(data[2],data[3]); break;
 8003b52:	683b      	ldr	r3, [r7, #0]
 8003b54:	781a      	ldrb	r2, [r3, #0]
 8003b56:	683b      	ldr	r3, [r7, #0]
 8003b58:	3301      	adds	r3, #1
 8003b5a:	781b      	ldrb	r3, [r3, #0]
 8003b5c:	4610      	mov	r0, r2
 8003b5e:	4619      	mov	r1, r3
 8003b60:	f7fc fc54 	bl	800040c <unpack16>
 8003b64:	4603      	mov	r3, r0
 8003b66:	b29a      	uxth	r2, r3
 8003b68:	69fb      	ldr	r3, [r7, #28]
 8003b6a:	f8a3 20b6 	strh.w	r2, [r3, #182]	; 0xb6
 8003b6e:	683b      	ldr	r3, [r7, #0]
 8003b70:	3302      	adds	r3, #2
 8003b72:	781a      	ldrb	r2, [r3, #0]
 8003b74:	683b      	ldr	r3, [r7, #0]
 8003b76:	3303      	adds	r3, #3
 8003b78:	781b      	ldrb	r3, [r3, #0]
 8003b7a:	4610      	mov	r0, r2
 8003b7c:	4619      	mov	r1, r3
 8003b7e:	f7fc fc45 	bl	800040c <unpack16>
 8003b82:	4603      	mov	r3, r0
 8003b84:	b29a      	uxth	r2, r3
 8003b86:	69fb      	ldr	r3, [r7, #28]
 8003b88:	f8a3 20b8 	strh.w	r2, [r3, #184]	; 0xb8
 8003b8c:	f001 bc57 	b.w	800543e <process_write+0x239a>
        case 0x37U: r->calib_offset.user_24v_ofs=(int16_t)unpack16(data[0],data[1]); r->calib_offset.user_24v_imon_ofs=(int16_t)unpack16(data[2],data[3]); break;
 8003b90:	683b      	ldr	r3, [r7, #0]
 8003b92:	781a      	ldrb	r2, [r3, #0]
 8003b94:	683b      	ldr	r3, [r7, #0]
 8003b96:	3301      	adds	r3, #1
 8003b98:	781b      	ldrb	r3, [r3, #0]
 8003b9a:	4610      	mov	r0, r2
 8003b9c:	4619      	mov	r1, r3
 8003b9e:	f7fc fc35 	bl	800040c <unpack16>
 8003ba2:	4603      	mov	r3, r0
 8003ba4:	b29a      	uxth	r2, r3
 8003ba6:	69fb      	ldr	r3, [r7, #28]
 8003ba8:	f8a3 20ba 	strh.w	r2, [r3, #186]	; 0xba
 8003bac:	683b      	ldr	r3, [r7, #0]
 8003bae:	3302      	adds	r3, #2
 8003bb0:	781a      	ldrb	r2, [r3, #0]
 8003bb2:	683b      	ldr	r3, [r7, #0]
 8003bb4:	3303      	adds	r3, #3
 8003bb6:	781b      	ldrb	r3, [r3, #0]
 8003bb8:	4610      	mov	r0, r2
 8003bba:	4619      	mov	r1, r3
 8003bbc:	f7fc fc26 	bl	800040c <unpack16>
 8003bc0:	4603      	mov	r3, r0
 8003bc2:	b29a      	uxth	r2, r3
 8003bc4:	69fb      	ldr	r3, [r7, #28]
 8003bc6:	f8a3 20bc 	strh.w	r2, [r3, #188]	; 0xbc
 8003bca:	f001 bc38 	b.w	800543e <process_write+0x239a>
        case 0x38U: r->calib_offset.pc_a_12v_ofs=(int16_t)unpack16(data[0],data[1]); r->calib_offset.pc_a_12v_imon_ofs=(int16_t)unpack16(data[2],data[3]); break;
 8003bce:	683b      	ldr	r3, [r7, #0]
 8003bd0:	781a      	ldrb	r2, [r3, #0]
 8003bd2:	683b      	ldr	r3, [r7, #0]
 8003bd4:	3301      	adds	r3, #1
 8003bd6:	781b      	ldrb	r3, [r3, #0]
 8003bd8:	4610      	mov	r0, r2
 8003bda:	4619      	mov	r1, r3
 8003bdc:	f7fc fc16 	bl	800040c <unpack16>
 8003be0:	4603      	mov	r3, r0
 8003be2:	b29a      	uxth	r2, r3
 8003be4:	69fb      	ldr	r3, [r7, #28]
 8003be6:	f8a3 20be 	strh.w	r2, [r3, #190]	; 0xbe
 8003bea:	683b      	ldr	r3, [r7, #0]
 8003bec:	3302      	adds	r3, #2
 8003bee:	781a      	ldrb	r2, [r3, #0]
 8003bf0:	683b      	ldr	r3, [r7, #0]
 8003bf2:	3303      	adds	r3, #3
 8003bf4:	781b      	ldrb	r3, [r3, #0]
 8003bf6:	4610      	mov	r0, r2
 8003bf8:	4619      	mov	r1, r3
 8003bfa:	f7fc fc07 	bl	800040c <unpack16>
 8003bfe:	4603      	mov	r3, r0
 8003c00:	b29a      	uxth	r2, r3
 8003c02:	69fb      	ldr	r3, [r7, #28]
 8003c04:	f8a3 20c0 	strh.w	r2, [r3, #192]	; 0xc0
 8003c08:	f001 bc19 	b.w	800543e <process_write+0x239a>
        case 0x39U: r->calib_offset.pc_b_12v_ofs=(int16_t)unpack16(data[0],data[1]); r->calib_offset.pc_b_12v_imon_ofs=(int16_t)unpack16(data[2],data[3]); break;
 8003c0c:	683b      	ldr	r3, [r7, #0]
 8003c0e:	781a      	ldrb	r2, [r3, #0]
 8003c10:	683b      	ldr	r3, [r7, #0]
 8003c12:	3301      	adds	r3, #1
 8003c14:	781b      	ldrb	r3, [r3, #0]
 8003c16:	4610      	mov	r0, r2
 8003c18:	4619      	mov	r1, r3
 8003c1a:	f7fc fbf7 	bl	800040c <unpack16>
 8003c1e:	4603      	mov	r3, r0
 8003c20:	b29a      	uxth	r2, r3
 8003c22:	69fb      	ldr	r3, [r7, #28]
 8003c24:	f8a3 20c2 	strh.w	r2, [r3, #194]	; 0xc2
 8003c28:	683b      	ldr	r3, [r7, #0]
 8003c2a:	3302      	adds	r3, #2
 8003c2c:	781a      	ldrb	r2, [r3, #0]
 8003c2e:	683b      	ldr	r3, [r7, #0]
 8003c30:	3303      	adds	r3, #3
 8003c32:	781b      	ldrb	r3, [r3, #0]
 8003c34:	4610      	mov	r0, r2
 8003c36:	4619      	mov	r1, r3
 8003c38:	f7fc fbe8 	bl	800040c <unpack16>
 8003c3c:	4603      	mov	r3, r0
 8003c3e:	b29a      	uxth	r2, r3
 8003c40:	69fb      	ldr	r3, [r7, #28]
 8003c42:	f8a3 20c4 	strh.w	r2, [r3, #196]	; 0xc4
 8003c46:	f001 bbfa 	b.w	800543e <process_write+0x239a>
        case 0x3AU: r->calib_offset.v24_imon0_ofs=(int16_t)unpack16(data[0],data[1]); r->calib_offset.v24_imon1_ofs=(int16_t)unpack16(data[2],data[3]); r->calib_offset.v24_imon2_ofs=(int16_t)unpack16(data[4],data[5]); break;
 8003c4a:	683b      	ldr	r3, [r7, #0]
 8003c4c:	781a      	ldrb	r2, [r3, #0]
 8003c4e:	683b      	ldr	r3, [r7, #0]
 8003c50:	3301      	adds	r3, #1
 8003c52:	781b      	ldrb	r3, [r3, #0]
 8003c54:	4610      	mov	r0, r2
 8003c56:	4619      	mov	r1, r3
 8003c58:	f7fc fbd8 	bl	800040c <unpack16>
 8003c5c:	4603      	mov	r3, r0
 8003c5e:	b29a      	uxth	r2, r3
 8003c60:	69fb      	ldr	r3, [r7, #28]
 8003c62:	f8a3 20c6 	strh.w	r2, [r3, #198]	; 0xc6
 8003c66:	683b      	ldr	r3, [r7, #0]
 8003c68:	3302      	adds	r3, #2
 8003c6a:	781a      	ldrb	r2, [r3, #0]
 8003c6c:	683b      	ldr	r3, [r7, #0]
 8003c6e:	3303      	adds	r3, #3
 8003c70:	781b      	ldrb	r3, [r3, #0]
 8003c72:	4610      	mov	r0, r2
 8003c74:	4619      	mov	r1, r3
 8003c76:	f7fc fbc9 	bl	800040c <unpack16>
 8003c7a:	4603      	mov	r3, r0
 8003c7c:	b29a      	uxth	r2, r3
 8003c7e:	69fb      	ldr	r3, [r7, #28]
 8003c80:	f8a3 20c8 	strh.w	r2, [r3, #200]	; 0xc8
 8003c84:	683b      	ldr	r3, [r7, #0]
 8003c86:	3304      	adds	r3, #4
 8003c88:	781a      	ldrb	r2, [r3, #0]
 8003c8a:	683b      	ldr	r3, [r7, #0]
 8003c8c:	3305      	adds	r3, #5
 8003c8e:	781b      	ldrb	r3, [r3, #0]
 8003c90:	4610      	mov	r0, r2
 8003c92:	4619      	mov	r1, r3
 8003c94:	f7fc fbba 	bl	800040c <unpack16>
 8003c98:	4603      	mov	r3, r0
 8003c9a:	b29a      	uxth	r2, r3
 8003c9c:	69fb      	ldr	r3, [r7, #28]
 8003c9e:	f8a3 20ca 	strh.w	r2, [r3, #202]	; 0xca
 8003ca2:	f001 bbcc 	b.w	800543e <process_write+0x239a>
        case 0x3BU: r->calib_offset.v12_imon0_ofs=(int16_t)unpack16(data[0],data[1]); r->calib_offset.v12_imon1_ofs=(int16_t)unpack16(data[2],data[3]); r->calib_offset.v12_imon2_ofs=(int16_t)unpack16(data[4],data[5]); break;
 8003ca6:	683b      	ldr	r3, [r7, #0]
 8003ca8:	781a      	ldrb	r2, [r3, #0]
 8003caa:	683b      	ldr	r3, [r7, #0]
 8003cac:	3301      	adds	r3, #1
 8003cae:	781b      	ldrb	r3, [r3, #0]
 8003cb0:	4610      	mov	r0, r2
 8003cb2:	4619      	mov	r1, r3
 8003cb4:	f7fc fbaa 	bl	800040c <unpack16>
 8003cb8:	4603      	mov	r3, r0
 8003cba:	b29a      	uxth	r2, r3
 8003cbc:	69fb      	ldr	r3, [r7, #28]
 8003cbe:	f8a3 20cc 	strh.w	r2, [r3, #204]	; 0xcc
 8003cc2:	683b      	ldr	r3, [r7, #0]
 8003cc4:	3302      	adds	r3, #2
 8003cc6:	781a      	ldrb	r2, [r3, #0]
 8003cc8:	683b      	ldr	r3, [r7, #0]
 8003cca:	3303      	adds	r3, #3
 8003ccc:	781b      	ldrb	r3, [r3, #0]
 8003cce:	4610      	mov	r0, r2
 8003cd0:	4619      	mov	r1, r3
 8003cd2:	f7fc fb9b 	bl	800040c <unpack16>
 8003cd6:	4603      	mov	r3, r0
 8003cd8:	b29a      	uxth	r2, r3
 8003cda:	69fb      	ldr	r3, [r7, #28]
 8003cdc:	f8a3 20ce 	strh.w	r2, [r3, #206]	; 0xce
 8003ce0:	683b      	ldr	r3, [r7, #0]
 8003ce2:	3304      	adds	r3, #4
 8003ce4:	781a      	ldrb	r2, [r3, #0]
 8003ce6:	683b      	ldr	r3, [r7, #0]
 8003ce8:	3305      	adds	r3, #5
 8003cea:	781b      	ldrb	r3, [r3, #0]
 8003cec:	4610      	mov	r0, r2
 8003cee:	4619      	mov	r1, r3
 8003cf0:	f7fc fb8c 	bl	800040c <unpack16>
 8003cf4:	4603      	mov	r3, r0
 8003cf6:	b29a      	uxth	r2, r3
 8003cf8:	69fb      	ldr	r3, [r7, #28]
 8003cfa:	f8a3 20d0 	strh.w	r2, [r3, #208]	; 0xd0
 8003cfe:	f001 bb9e 	b.w	800543e <process_write+0x239a>
        case 0x3CU: r->calib_offset.v24_ofs=(int16_t)unpack16(data[0],data[1]); r->calib_offset.v12_ofs=(int16_t)unpack16(data[2],data[3]); break;
 8003d02:	683b      	ldr	r3, [r7, #0]
 8003d04:	781a      	ldrb	r2, [r3, #0]
 8003d06:	683b      	ldr	r3, [r7, #0]
 8003d08:	3301      	adds	r3, #1
 8003d0a:	781b      	ldrb	r3, [r3, #0]
 8003d0c:	4610      	mov	r0, r2
 8003d0e:	4619      	mov	r1, r3
 8003d10:	f7fc fb7c 	bl	800040c <unpack16>
 8003d14:	4603      	mov	r3, r0
 8003d16:	b29a      	uxth	r2, r3
 8003d18:	69fb      	ldr	r3, [r7, #28]
 8003d1a:	f8a3 20d2 	strh.w	r2, [r3, #210]	; 0xd2
 8003d1e:	683b      	ldr	r3, [r7, #0]
 8003d20:	3302      	adds	r3, #2
 8003d22:	781a      	ldrb	r2, [r3, #0]
 8003d24:	683b      	ldr	r3, [r7, #0]
 8003d26:	3303      	adds	r3, #3
 8003d28:	781b      	ldrb	r3, [r3, #0]
 8003d2a:	4610      	mov	r0, r2
 8003d2c:	4619      	mov	r1, r3
 8003d2e:	f7fc fb6d 	bl	800040c <unpack16>
 8003d32:	4603      	mov	r3, r0
 8003d34:	b29a      	uxth	r2, r3
 8003d36:	69fb      	ldr	r3, [r7, #28]
 8003d38:	f8a3 20d4 	strh.w	r2, [r3, #212]	; 0xd4
 8003d3c:	f001 bb7f 	b.w	800543e <process_write+0x239a>
        case 0x3DU: r->calib_offset.v5_ofs=(int16_t)unpack16(data[0],data[1]); r->calib_offset.v5_curr_ofs=(int16_t)unpack16(data[2],data[3]); break;
 8003d40:	683b      	ldr	r3, [r7, #0]
 8003d42:	781a      	ldrb	r2, [r3, #0]
 8003d44:	683b      	ldr	r3, [r7, #0]
 8003d46:	3301      	adds	r3, #1
 8003d48:	781b      	ldrb	r3, [r3, #0]
 8003d4a:	4610      	mov	r0, r2
 8003d4c:	4619      	mov	r1, r3
 8003d4e:	f7fc fb5d 	bl	800040c <unpack16>
 8003d52:	4603      	mov	r3, r0
 8003d54:	b29a      	uxth	r2, r3
 8003d56:	69fb      	ldr	r3, [r7, #28]
 8003d58:	f8a3 20d6 	strh.w	r2, [r3, #214]	; 0xd6
 8003d5c:	683b      	ldr	r3, [r7, #0]
 8003d5e:	3302      	adds	r3, #2
 8003d60:	781a      	ldrb	r2, [r3, #0]
 8003d62:	683b      	ldr	r3, [r7, #0]
 8003d64:	3303      	adds	r3, #3
 8003d66:	781b      	ldrb	r3, [r3, #0]
 8003d68:	4610      	mov	r0, r2
 8003d6a:	4619      	mov	r1, r3
 8003d6c:	f7fc fb4e 	bl	800040c <unpack16>
 8003d70:	4603      	mov	r3, r0
 8003d72:	b29a      	uxth	r2, r3
 8003d74:	69fb      	ldr	r3, [r7, #28]
 8003d76:	f8a3 20d8 	strh.w	r2, [r3, #216]	; 0xd8
 8003d7a:	f001 bb60 	b.w	800543e <process_write+0x239a>
        case 0x3EU: r->calib_offset.v3v3_ofs=(int16_t)unpack16(data[0],data[1]); r->calib_offset.v3v3_curr_ofs=(int16_t)unpack16(data[2],data[3]); break;
 8003d7e:	683b      	ldr	r3, [r7, #0]
 8003d80:	781a      	ldrb	r2, [r3, #0]
 8003d82:	683b      	ldr	r3, [r7, #0]
 8003d84:	3301      	adds	r3, #1
 8003d86:	781b      	ldrb	r3, [r3, #0]
 8003d88:	4610      	mov	r0, r2
 8003d8a:	4619      	mov	r1, r3
 8003d8c:	f7fc fb3e 	bl	800040c <unpack16>
 8003d90:	4603      	mov	r3, r0
 8003d92:	b29a      	uxth	r2, r3
 8003d94:	69fb      	ldr	r3, [r7, #28]
 8003d96:	f8a3 20da 	strh.w	r2, [r3, #218]	; 0xda
 8003d9a:	683b      	ldr	r3, [r7, #0]
 8003d9c:	3302      	adds	r3, #2
 8003d9e:	781a      	ldrb	r2, [r3, #0]
 8003da0:	683b      	ldr	r3, [r7, #0]
 8003da2:	3303      	adds	r3, #3
 8003da4:	781b      	ldrb	r3, [r3, #0]
 8003da6:	4610      	mov	r0, r2
 8003da8:	4619      	mov	r1, r3
 8003daa:	f7fc fb2f 	bl	800040c <unpack16>
 8003dae:	4603      	mov	r3, r0
 8003db0:	b29a      	uxth	r2, r3
 8003db2:	69fb      	ldr	r3, [r7, #28]
 8003db4:	f8a3 20dc 	strh.w	r2, [r3, #220]	; 0xdc
 8003db8:	f001 bb41 	b.w	800543e <process_write+0x239a>
        case 0x3FU: r->calib_offset.aux_24v_ofs=(int16_t)unpack16(data[0],data[1]); r->calib_offset.aux_24v_curr_ofs=(int16_t)unpack16(data[2],data[3]); break;
 8003dbc:	683b      	ldr	r3, [r7, #0]
 8003dbe:	781a      	ldrb	r2, [r3, #0]
 8003dc0:	683b      	ldr	r3, [r7, #0]
 8003dc2:	3301      	adds	r3, #1
 8003dc4:	781b      	ldrb	r3, [r3, #0]
 8003dc6:	4610      	mov	r0, r2
 8003dc8:	4619      	mov	r1, r3
 8003dca:	f7fc fb1f 	bl	800040c <unpack16>
 8003dce:	4603      	mov	r3, r0
 8003dd0:	b29a      	uxth	r2, r3
 8003dd2:	69fb      	ldr	r3, [r7, #28]
 8003dd4:	f8a3 20de 	strh.w	r2, [r3, #222]	; 0xde
 8003dd8:	683b      	ldr	r3, [r7, #0]
 8003dda:	3302      	adds	r3, #2
 8003ddc:	781a      	ldrb	r2, [r3, #0]
 8003dde:	683b      	ldr	r3, [r7, #0]
 8003de0:	3303      	adds	r3, #3
 8003de2:	781b      	ldrb	r3, [r3, #0]
 8003de4:	4610      	mov	r0, r2
 8003de6:	4619      	mov	r1, r3
 8003de8:	f7fc fb10 	bl	800040c <unpack16>
 8003dec:	4603      	mov	r3, r0
 8003dee:	b29a      	uxth	r2, r3
 8003df0:	69fb      	ldr	r3, [r7, #28]
 8003df2:	f8a3 20e0 	strh.w	r2, [r3, #224]	; 0xe0
 8003df6:	f001 bb22 	b.w	800543e <process_write+0x239a>
        case 0x40U: r->calib_offset.aux_12v_ofs=(int16_t)unpack16(data[0],data[1]); r->calib_offset.aux_12v_curr_ofs=(int16_t)unpack16(data[2],data[3]); break;
 8003dfa:	683b      	ldr	r3, [r7, #0]
 8003dfc:	781a      	ldrb	r2, [r3, #0]
 8003dfe:	683b      	ldr	r3, [r7, #0]
 8003e00:	3301      	adds	r3, #1
 8003e02:	781b      	ldrb	r3, [r3, #0]
 8003e04:	4610      	mov	r0, r2
 8003e06:	4619      	mov	r1, r3
 8003e08:	f7fc fb00 	bl	800040c <unpack16>
 8003e0c:	4603      	mov	r3, r0
 8003e0e:	b29a      	uxth	r2, r3
 8003e10:	69fb      	ldr	r3, [r7, #28]
 8003e12:	f8a3 20e2 	strh.w	r2, [r3, #226]	; 0xe2
 8003e16:	683b      	ldr	r3, [r7, #0]
 8003e18:	3302      	adds	r3, #2
 8003e1a:	781a      	ldrb	r2, [r3, #0]
 8003e1c:	683b      	ldr	r3, [r7, #0]
 8003e1e:	3303      	adds	r3, #3
 8003e20:	781b      	ldrb	r3, [r3, #0]
 8003e22:	4610      	mov	r0, r2
 8003e24:	4619      	mov	r1, r3
 8003e26:	f7fc faf1 	bl	800040c <unpack16>
 8003e2a:	4603      	mov	r3, r0
 8003e2c:	b29a      	uxth	r2, r3
 8003e2e:	69fb      	ldr	r3, [r7, #28]
 8003e30:	f8a3 20e4 	strh.w	r2, [r3, #228]	; 0xe4
 8003e34:	f001 bb03 	b.w	800543e <process_write+0x239a>
        case 0x41U: r->calib_offset.estop_rec_a_12v_ofs=(int16_t)unpack16(data[0],data[1]); r->calib_offset.estop_rec_b_12v_ofs=(int16_t)unpack16(data[2],data[3]); break;
 8003e38:	683b      	ldr	r3, [r7, #0]
 8003e3a:	781a      	ldrb	r2, [r3, #0]
 8003e3c:	683b      	ldr	r3, [r7, #0]
 8003e3e:	3301      	adds	r3, #1
 8003e40:	781b      	ldrb	r3, [r3, #0]
 8003e42:	4610      	mov	r0, r2
 8003e44:	4619      	mov	r1, r3
 8003e46:	f7fc fae1 	bl	800040c <unpack16>
 8003e4a:	4603      	mov	r3, r0
 8003e4c:	b29a      	uxth	r2, r3
 8003e4e:	69fb      	ldr	r3, [r7, #28]
 8003e50:	f8a3 20e6 	strh.w	r2, [r3, #230]	; 0xe6
 8003e54:	683b      	ldr	r3, [r7, #0]
 8003e56:	3302      	adds	r3, #2
 8003e58:	781a      	ldrb	r2, [r3, #0]
 8003e5a:	683b      	ldr	r3, [r7, #0]
 8003e5c:	3303      	adds	r3, #3
 8003e5e:	781b      	ldrb	r3, [r3, #0]
 8003e60:	4610      	mov	r0, r2
 8003e62:	4619      	mov	r1, r3
 8003e64:	f7fc fad2 	bl	800040c <unpack16>
 8003e68:	4603      	mov	r3, r0
 8003e6a:	b29a      	uxth	r2, r3
 8003e6c:	69fb      	ldr	r3, [r7, #28]
 8003e6e:	f8a3 20e8 	strh.w	r2, [r3, #232]	; 0xe8
 8003e72:	f001 bae4 	b.w	800543e <process_write+0x239a>
        case 0x42U: r->calib_offset.v12_b_imon3_ofs=(int16_t)unpack16(data[0],data[1]); r->calib_offset.v12_b_imon4_ofs=(int16_t)unpack16(data[2],data[3]); break;
 8003e76:	683b      	ldr	r3, [r7, #0]
 8003e78:	781a      	ldrb	r2, [r3, #0]
 8003e7a:	683b      	ldr	r3, [r7, #0]
 8003e7c:	3301      	adds	r3, #1
 8003e7e:	781b      	ldrb	r3, [r3, #0]
 8003e80:	4610      	mov	r0, r2
 8003e82:	4619      	mov	r1, r3
 8003e84:	f7fc fac2 	bl	800040c <unpack16>
 8003e88:	4603      	mov	r3, r0
 8003e8a:	b29a      	uxth	r2, r3
 8003e8c:	69fb      	ldr	r3, [r7, #28]
 8003e8e:	f8a3 20ea 	strh.w	r2, [r3, #234]	; 0xea
 8003e92:	683b      	ldr	r3, [r7, #0]
 8003e94:	3302      	adds	r3, #2
 8003e96:	781a      	ldrb	r2, [r3, #0]
 8003e98:	683b      	ldr	r3, [r7, #0]
 8003e9a:	3303      	adds	r3, #3
 8003e9c:	781b      	ldrb	r3, [r3, #0]
 8003e9e:	4610      	mov	r0, r2
 8003ea0:	4619      	mov	r1, r3
 8003ea2:	f7fc fab3 	bl	800040c <unpack16>
 8003ea6:	4603      	mov	r3, r0
 8003ea8:	b29a      	uxth	r2, r3
 8003eaa:	69fb      	ldr	r3, [r7, #28]
 8003eac:	f8a3 20ec 	strh.w	r2, [r3, #236]	; 0xec
 8003eb0:	f001 bac5 	b.w	800543e <process_write+0x239a>
        case 0x43U: r->calib_offset.hv_or_ofs=(int16_t)unpack16(data[0],data[1]); r->calib_offset.mb_sp_imon_ofs=(int16_t)unpack16(data[2],data[3]); break;
 8003eb4:	683b      	ldr	r3, [r7, #0]
 8003eb6:	781a      	ldrb	r2, [r3, #0]
 8003eb8:	683b      	ldr	r3, [r7, #0]
 8003eba:	3301      	adds	r3, #1
 8003ebc:	781b      	ldrb	r3, [r3, #0]
 8003ebe:	4610      	mov	r0, r2
 8003ec0:	4619      	mov	r1, r3
 8003ec2:	f7fc faa3 	bl	800040c <unpack16>
 8003ec6:	4603      	mov	r3, r0
 8003ec8:	b29a      	uxth	r2, r3
 8003eca:	69fb      	ldr	r3, [r7, #28]
 8003ecc:	f8a3 20ee 	strh.w	r2, [r3, #238]	; 0xee
 8003ed0:	683b      	ldr	r3, [r7, #0]
 8003ed2:	3302      	adds	r3, #2
 8003ed4:	781a      	ldrb	r2, [r3, #0]
 8003ed6:	683b      	ldr	r3, [r7, #0]
 8003ed8:	3303      	adds	r3, #3
 8003eda:	781b      	ldrb	r3, [r3, #0]
 8003edc:	4610      	mov	r0, r2
 8003ede:	4619      	mov	r1, r3
 8003ee0:	f7fc fa94 	bl	800040c <unpack16>
 8003ee4:	4603      	mov	r3, r0
 8003ee6:	b29a      	uxth	r2, r3
 8003ee8:	69fb      	ldr	r3, [r7, #28]
 8003eea:	f8a3 20f0 	strh.w	r2, [r3, #240]	; 0xf0
 8003eee:	f001 baa6 	b.w	800543e <process_write+0x239a>
        case 0x44U: r->calib_offset.temp0_ofs=(int16_t)unpack16(data[0],data[1]); r->calib_offset.temp1_ofs=(int16_t)unpack16(data[2],data[3]); r->calib_offset.temp2_ofs=(int16_t)unpack16(data[4],data[5]); break;
 8003ef2:	683b      	ldr	r3, [r7, #0]
 8003ef4:	781a      	ldrb	r2, [r3, #0]
 8003ef6:	683b      	ldr	r3, [r7, #0]
 8003ef8:	3301      	adds	r3, #1
 8003efa:	781b      	ldrb	r3, [r3, #0]
 8003efc:	4610      	mov	r0, r2
 8003efe:	4619      	mov	r1, r3
 8003f00:	f7fc fa84 	bl	800040c <unpack16>
 8003f04:	4603      	mov	r3, r0
 8003f06:	b29a      	uxth	r2, r3
 8003f08:	69fb      	ldr	r3, [r7, #28]
 8003f0a:	f8a3 20f2 	strh.w	r2, [r3, #242]	; 0xf2
 8003f0e:	683b      	ldr	r3, [r7, #0]
 8003f10:	3302      	adds	r3, #2
 8003f12:	781a      	ldrb	r2, [r3, #0]
 8003f14:	683b      	ldr	r3, [r7, #0]
 8003f16:	3303      	adds	r3, #3
 8003f18:	781b      	ldrb	r3, [r3, #0]
 8003f1a:	4610      	mov	r0, r2
 8003f1c:	4619      	mov	r1, r3
 8003f1e:	f7fc fa75 	bl	800040c <unpack16>
 8003f22:	4603      	mov	r3, r0
 8003f24:	b29a      	uxth	r2, r3
 8003f26:	69fb      	ldr	r3, [r7, #28]
 8003f28:	f8a3 20f4 	strh.w	r2, [r3, #244]	; 0xf4
 8003f2c:	683b      	ldr	r3, [r7, #0]
 8003f2e:	3304      	adds	r3, #4
 8003f30:	781a      	ldrb	r2, [r3, #0]
 8003f32:	683b      	ldr	r3, [r7, #0]
 8003f34:	3305      	adds	r3, #5
 8003f36:	781b      	ldrb	r3, [r3, #0]
 8003f38:	4610      	mov	r0, r2
 8003f3a:	4619      	mov	r1, r3
 8003f3c:	f7fc fa66 	bl	800040c <unpack16>
 8003f40:	4603      	mov	r3, r0
 8003f42:	b29a      	uxth	r2, r3
 8003f44:	69fb      	ldr	r3, [r7, #28]
 8003f46:	f8a3 20f6 	strh.w	r2, [r3, #246]	; 0xf6
 8003f4a:	f001 ba78 	b.w	800543e <process_write+0x239a>
        case 0x45U: r->calib_offset.temp3_ofs=(int16_t)unpack16(data[0],data[1]); r->calib_offset.temp4_ofs=(int16_t)unpack16(data[2],data[3]); r->calib_offset.temp5_ofs=(int16_t)unpack16(data[4],data[5]); break;
 8003f4e:	683b      	ldr	r3, [r7, #0]
 8003f50:	781a      	ldrb	r2, [r3, #0]
 8003f52:	683b      	ldr	r3, [r7, #0]
 8003f54:	3301      	adds	r3, #1
 8003f56:	781b      	ldrb	r3, [r3, #0]
 8003f58:	4610      	mov	r0, r2
 8003f5a:	4619      	mov	r1, r3
 8003f5c:	f7fc fa56 	bl	800040c <unpack16>
 8003f60:	4603      	mov	r3, r0
 8003f62:	b29a      	uxth	r2, r3
 8003f64:	69fb      	ldr	r3, [r7, #28]
 8003f66:	f8a3 20f8 	strh.w	r2, [r3, #248]	; 0xf8
 8003f6a:	683b      	ldr	r3, [r7, #0]
 8003f6c:	3302      	adds	r3, #2
 8003f6e:	781a      	ldrb	r2, [r3, #0]
 8003f70:	683b      	ldr	r3, [r7, #0]
 8003f72:	3303      	adds	r3, #3
 8003f74:	781b      	ldrb	r3, [r3, #0]
 8003f76:	4610      	mov	r0, r2
 8003f78:	4619      	mov	r1, r3
 8003f7a:	f7fc fa47 	bl	800040c <unpack16>
 8003f7e:	4603      	mov	r3, r0
 8003f80:	b29a      	uxth	r2, r3
 8003f82:	69fb      	ldr	r3, [r7, #28]
 8003f84:	f8a3 20fa 	strh.w	r2, [r3, #250]	; 0xfa
 8003f88:	683b      	ldr	r3, [r7, #0]
 8003f8a:	3304      	adds	r3, #4
 8003f8c:	781a      	ldrb	r2, [r3, #0]
 8003f8e:	683b      	ldr	r3, [r7, #0]
 8003f90:	3305      	adds	r3, #5
 8003f92:	781b      	ldrb	r3, [r3, #0]
 8003f94:	4610      	mov	r0, r2
 8003f96:	4619      	mov	r1, r3
 8003f98:	f7fc fa38 	bl	800040c <unpack16>
 8003f9c:	4603      	mov	r3, r0
 8003f9e:	b29a      	uxth	r2, r3
 8003fa0:	69fb      	ldr	r3, [r7, #28]
 8003fa2:	f8a3 20fc 	strh.w	r2, [r3, #252]	; 0xfc
 8003fa6:	f001 ba4a 	b.w	800543e <process_write+0x239a>
        case 0x46U: r->calib_offset.ex_temp0_ofs=(int16_t)unpack16(data[0],data[1]); r->calib_offset.ex_temp1_ofs=(int16_t)unpack16(data[2],data[3]); break;
 8003faa:	683b      	ldr	r3, [r7, #0]
 8003fac:	781a      	ldrb	r2, [r3, #0]
 8003fae:	683b      	ldr	r3, [r7, #0]
 8003fb0:	3301      	adds	r3, #1
 8003fb2:	781b      	ldrb	r3, [r3, #0]
 8003fb4:	4610      	mov	r0, r2
 8003fb6:	4619      	mov	r1, r3
 8003fb8:	f7fc fa28 	bl	800040c <unpack16>
 8003fbc:	4603      	mov	r3, r0
 8003fbe:	b29a      	uxth	r2, r3
 8003fc0:	69fb      	ldr	r3, [r7, #28]
 8003fc2:	f8a3 20fe 	strh.w	r2, [r3, #254]	; 0xfe
 8003fc6:	683b      	ldr	r3, [r7, #0]
 8003fc8:	3302      	adds	r3, #2
 8003fca:	781a      	ldrb	r2, [r3, #0]
 8003fcc:	683b      	ldr	r3, [r7, #0]
 8003fce:	3303      	adds	r3, #3
 8003fd0:	781b      	ldrb	r3, [r3, #0]
 8003fd2:	4610      	mov	r0, r2
 8003fd4:	4619      	mov	r1, r3
 8003fd6:	f7fc fa19 	bl	800040c <unpack16>
 8003fda:	4603      	mov	r3, r0
 8003fdc:	b29a      	uxth	r2, r3
 8003fde:	69fb      	ldr	r3, [r7, #28]
 8003fe0:	f8a3 2100 	strh.w	r2, [r3, #256]	; 0x100
 8003fe4:	f001 ba2b 	b.w	800543e <process_write+0x239a>
        case 0x47U: r->calib_offset.lidar_a_12v_ofs=(int16_t)unpack16(data[0],data[1]); r->calib_offset.lidar_b_12v_ofs=(int16_t)unpack16(data[2],data[3]); break;
 8003fe8:	683b      	ldr	r3, [r7, #0]
 8003fea:	781a      	ldrb	r2, [r3, #0]
 8003fec:	683b      	ldr	r3, [r7, #0]
 8003fee:	3301      	adds	r3, #1
 8003ff0:	781b      	ldrb	r3, [r3, #0]
 8003ff2:	4610      	mov	r0, r2
 8003ff4:	4619      	mov	r1, r3
 8003ff6:	f7fc fa09 	bl	800040c <unpack16>
 8003ffa:	4603      	mov	r3, r0
 8003ffc:	b29a      	uxth	r2, r3
 8003ffe:	69fb      	ldr	r3, [r7, #28]
 8004000:	f8a3 2102 	strh.w	r2, [r3, #258]	; 0x102
 8004004:	683b      	ldr	r3, [r7, #0]
 8004006:	3302      	adds	r3, #2
 8004008:	781a      	ldrb	r2, [r3, #0]
 800400a:	683b      	ldr	r3, [r7, #0]
 800400c:	3303      	adds	r3, #3
 800400e:	781b      	ldrb	r3, [r3, #0]
 8004010:	4610      	mov	r0, r2
 8004012:	4619      	mov	r1, r3
 8004014:	f7fc f9fa 	bl	800040c <unpack16>
 8004018:	4603      	mov	r3, r0
 800401a:	b29a      	uxth	r2, r3
 800401c:	69fb      	ldr	r3, [r7, #28]
 800401e:	f8a3 2104 	strh.w	r2, [r3, #260]	; 0x104
 8004022:	f001 ba0c 	b.w	800543e <process_write+0x239a>
        case 0x48U: r->calib_offset.sto_24v_ofs=(int16_t)unpack16(data[0],data[1]); r->calib_offset.chg_hvil_out_ofs=(int16_t)unpack16(data[2],data[3]); break;
 8004026:	683b      	ldr	r3, [r7, #0]
 8004028:	781a      	ldrb	r2, [r3, #0]
 800402a:	683b      	ldr	r3, [r7, #0]
 800402c:	3301      	adds	r3, #1
 800402e:	781b      	ldrb	r3, [r3, #0]
 8004030:	4610      	mov	r0, r2
 8004032:	4619      	mov	r1, r3
 8004034:	f7fc f9ea 	bl	800040c <unpack16>
 8004038:	4603      	mov	r3, r0
 800403a:	b29a      	uxth	r2, r3
 800403c:	69fb      	ldr	r3, [r7, #28]
 800403e:	f8a3 2106 	strh.w	r2, [r3, #262]	; 0x106
 8004042:	683b      	ldr	r3, [r7, #0]
 8004044:	3302      	adds	r3, #2
 8004046:	781a      	ldrb	r2, [r3, #0]
 8004048:	683b      	ldr	r3, [r7, #0]
 800404a:	3303      	adds	r3, #3
 800404c:	781b      	ldrb	r3, [r3, #0]
 800404e:	4610      	mov	r0, r2
 8004050:	4619      	mov	r1, r3
 8004052:	f7fc f9db 	bl	800040c <unpack16>
 8004056:	4603      	mov	r3, r0
 8004058:	b29a      	uxth	r2, r3
 800405a:	69fb      	ldr	r3, [r7, #28]
 800405c:	f8a3 2108 	strh.w	r2, [r3, #264]	; 0x108
 8004060:	f001 b9ed 	b.w	800543e <process_write+0x239a>
        case 0x49U: r->calib_offset.eth_2v5_ofs=(int16_t)unpack16(data[0],data[1]); r->calib_offset.eth_1v2_ofs=(int16_t)unpack16(data[2],data[3]); break;
 8004064:	683b      	ldr	r3, [r7, #0]
 8004066:	781a      	ldrb	r2, [r3, #0]
 8004068:	683b      	ldr	r3, [r7, #0]
 800406a:	3301      	adds	r3, #1
 800406c:	781b      	ldrb	r3, [r3, #0]
 800406e:	4610      	mov	r0, r2
 8004070:	4619      	mov	r1, r3
 8004072:	f7fc f9cb 	bl	800040c <unpack16>
 8004076:	4603      	mov	r3, r0
 8004078:	b29a      	uxth	r2, r3
 800407a:	69fb      	ldr	r3, [r7, #28]
 800407c:	f8a3 210a 	strh.w	r2, [r3, #266]	; 0x10a
 8004080:	683b      	ldr	r3, [r7, #0]
 8004082:	3302      	adds	r3, #2
 8004084:	781a      	ldrb	r2, [r3, #0]
 8004086:	683b      	ldr	r3, [r7, #0]
 8004088:	3303      	adds	r3, #3
 800408a:	781b      	ldrb	r3, [r3, #0]
 800408c:	4610      	mov	r0, r2
 800408e:	4619      	mov	r1, r3
 8004090:	f7fc f9bc 	bl	800040c <unpack16>
 8004094:	4603      	mov	r3, r0
 8004096:	b29a      	uxth	r2, r3
 8004098:	69fb      	ldr	r3, [r7, #28]
 800409a:	f8a3 210c 	strh.w	r2, [r3, #268]	; 0x10c
 800409e:	f001 b9ce 	b.w	800543e <process_write+0x239a>
        case 0x4AU: r->calib_offset.ecat_3v3_ofs=(int16_t)unpack16(data[0],data[1]); r->calib_offset.ecat_1v2_ofs=(int16_t)unpack16(data[2],data[3]); break;
 80040a2:	683b      	ldr	r3, [r7, #0]
 80040a4:	781a      	ldrb	r2, [r3, #0]
 80040a6:	683b      	ldr	r3, [r7, #0]
 80040a8:	3301      	adds	r3, #1
 80040aa:	781b      	ldrb	r3, [r3, #0]
 80040ac:	4610      	mov	r0, r2
 80040ae:	4619      	mov	r1, r3
 80040b0:	f7fc f9ac 	bl	800040c <unpack16>
 80040b4:	4603      	mov	r3, r0
 80040b6:	b29a      	uxth	r2, r3
 80040b8:	69fb      	ldr	r3, [r7, #28]
 80040ba:	f8a3 210e 	strh.w	r2, [r3, #270]	; 0x10e
 80040be:	683b      	ldr	r3, [r7, #0]
 80040c0:	3302      	adds	r3, #2
 80040c2:	781a      	ldrb	r2, [r3, #0]
 80040c4:	683b      	ldr	r3, [r7, #0]
 80040c6:	3303      	adds	r3, #3
 80040c8:	781b      	ldrb	r3, [r3, #0]
 80040ca:	4610      	mov	r0, r2
 80040cc:	4619      	mov	r1, r3
 80040ce:	f7fc f99d 	bl	800040c <unpack16>
 80040d2:	4603      	mov	r3, r0
 80040d4:	b29a      	uxth	r2, r3
 80040d6:	69fb      	ldr	r3, [r7, #28]
 80040d8:	f8a3 2110 	strh.w	r2, [r3, #272]	; 0x110
 80040dc:	f001 b9af 	b.w	800543e <process_write+0x239a>

        /* === 16-BIT SCALES (0x50-0x6A) === */
        case 0x50U: r->calib_scale.chg_curr_scl=(int16_t)unpack16(data[0],data[1]); r->calib_scale.batt1_curr_scl=(int16_t)unpack16(data[2],data[3]); r->calib_scale.batt2_curr_scl=(int16_t)unpack16(data[4],data[5]); break;
 80040e0:	683b      	ldr	r3, [r7, #0]
 80040e2:	781a      	ldrb	r2, [r3, #0]
 80040e4:	683b      	ldr	r3, [r7, #0]
 80040e6:	3301      	adds	r3, #1
 80040e8:	781b      	ldrb	r3, [r3, #0]
 80040ea:	4610      	mov	r0, r2
 80040ec:	4619      	mov	r1, r3
 80040ee:	f7fc f98d 	bl	800040c <unpack16>
 80040f2:	4603      	mov	r3, r0
 80040f4:	b29a      	uxth	r2, r3
 80040f6:	69fb      	ldr	r3, [r7, #28]
 80040f8:	f8a3 2112 	strh.w	r2, [r3, #274]	; 0x112
 80040fc:	683b      	ldr	r3, [r7, #0]
 80040fe:	3302      	adds	r3, #2
 8004100:	781a      	ldrb	r2, [r3, #0]
 8004102:	683b      	ldr	r3, [r7, #0]
 8004104:	3303      	adds	r3, #3
 8004106:	781b      	ldrb	r3, [r3, #0]
 8004108:	4610      	mov	r0, r2
 800410a:	4619      	mov	r1, r3
 800410c:	f7fc f97e 	bl	800040c <unpack16>
 8004110:	4603      	mov	r3, r0
 8004112:	b29a      	uxth	r2, r3
 8004114:	69fb      	ldr	r3, [r7, #28]
 8004116:	f8a3 2114 	strh.w	r2, [r3, #276]	; 0x114
 800411a:	683b      	ldr	r3, [r7, #0]
 800411c:	3304      	adds	r3, #4
 800411e:	781a      	ldrb	r2, [r3, #0]
 8004120:	683b      	ldr	r3, [r7, #0]
 8004122:	3305      	adds	r3, #5
 8004124:	781b      	ldrb	r3, [r3, #0]
 8004126:	4610      	mov	r0, r2
 8004128:	4619      	mov	r1, r3
 800412a:	f7fc f96f 	bl	800040c <unpack16>
 800412e:	4603      	mov	r3, r0
 8004130:	b29a      	uxth	r2, r3
 8004132:	69fb      	ldr	r3, [r7, #28]
 8004134:	f8a3 2116 	strh.w	r2, [r3, #278]	; 0x116
 8004138:	f001 b981 	b.w	800543e <process_write+0x239a>
        case 0x51U: r->calib_scale.ll_imon_scl=(int16_t)unpack16(data[0],data[1]); r->calib_scale.rl_imon_scl=(int16_t)unpack16(data[2],data[3]); r->calib_scale.la_imon_scl=(int16_t)unpack16(data[4],data[5]); break;
 800413c:	683b      	ldr	r3, [r7, #0]
 800413e:	781a      	ldrb	r2, [r3, #0]
 8004140:	683b      	ldr	r3, [r7, #0]
 8004142:	3301      	adds	r3, #1
 8004144:	781b      	ldrb	r3, [r3, #0]
 8004146:	4610      	mov	r0, r2
 8004148:	4619      	mov	r1, r3
 800414a:	f7fc f95f 	bl	800040c <unpack16>
 800414e:	4603      	mov	r3, r0
 8004150:	b29a      	uxth	r2, r3
 8004152:	69fb      	ldr	r3, [r7, #28]
 8004154:	f8a3 2118 	strh.w	r2, [r3, #280]	; 0x118
 8004158:	683b      	ldr	r3, [r7, #0]
 800415a:	3302      	adds	r3, #2
 800415c:	781a      	ldrb	r2, [r3, #0]
 800415e:	683b      	ldr	r3, [r7, #0]
 8004160:	3303      	adds	r3, #3
 8004162:	781b      	ldrb	r3, [r3, #0]
 8004164:	4610      	mov	r0, r2
 8004166:	4619      	mov	r1, r3
 8004168:	f7fc f950 	bl	800040c <unpack16>
 800416c:	4603      	mov	r3, r0
 800416e:	b29a      	uxth	r2, r3
 8004170:	69fb      	ldr	r3, [r7, #28]
 8004172:	f8a3 211a 	strh.w	r2, [r3, #282]	; 0x11a
 8004176:	683b      	ldr	r3, [r7, #0]
 8004178:	3304      	adds	r3, #4
 800417a:	781a      	ldrb	r2, [r3, #0]
 800417c:	683b      	ldr	r3, [r7, #0]
 800417e:	3305      	adds	r3, #5
 8004180:	781b      	ldrb	r3, [r3, #0]
 8004182:	4610      	mov	r0, r2
 8004184:	4619      	mov	r1, r3
 8004186:	f7fc f941 	bl	800040c <unpack16>
 800418a:	4603      	mov	r3, r0
 800418c:	b29a      	uxth	r2, r3
 800418e:	69fb      	ldr	r3, [r7, #28]
 8004190:	f8a3 211c 	strh.w	r2, [r3, #284]	; 0x11c
 8004194:	f001 b953 	b.w	800543e <process_write+0x239a>
        case 0x52U: r->calib_scale.ra_imon_scl=(int16_t)unpack16(data[0],data[1]); r->calib_scale.tr_imon_scl=(int16_t)unpack16(data[2],data[3]); r->calib_scale.chg_in_scl=(int16_t)unpack16(data[4],data[5]); break;
 8004198:	683b      	ldr	r3, [r7, #0]
 800419a:	781a      	ldrb	r2, [r3, #0]
 800419c:	683b      	ldr	r3, [r7, #0]
 800419e:	3301      	adds	r3, #1
 80041a0:	781b      	ldrb	r3, [r3, #0]
 80041a2:	4610      	mov	r0, r2
 80041a4:	4619      	mov	r1, r3
 80041a6:	f7fc f931 	bl	800040c <unpack16>
 80041aa:	4603      	mov	r3, r0
 80041ac:	b29a      	uxth	r2, r3
 80041ae:	69fb      	ldr	r3, [r7, #28]
 80041b0:	f8a3 211e 	strh.w	r2, [r3, #286]	; 0x11e
 80041b4:	683b      	ldr	r3, [r7, #0]
 80041b6:	3302      	adds	r3, #2
 80041b8:	781a      	ldrb	r2, [r3, #0]
 80041ba:	683b      	ldr	r3, [r7, #0]
 80041bc:	3303      	adds	r3, #3
 80041be:	781b      	ldrb	r3, [r3, #0]
 80041c0:	4610      	mov	r0, r2
 80041c2:	4619      	mov	r1, r3
 80041c4:	f7fc f922 	bl	800040c <unpack16>
 80041c8:	4603      	mov	r3, r0
 80041ca:	b29a      	uxth	r2, r3
 80041cc:	69fb      	ldr	r3, [r7, #28]
 80041ce:	f8a3 2120 	strh.w	r2, [r3, #288]	; 0x120
 80041d2:	683b      	ldr	r3, [r7, #0]
 80041d4:	3304      	adds	r3, #4
 80041d6:	781a      	ldrb	r2, [r3, #0]
 80041d8:	683b      	ldr	r3, [r7, #0]
 80041da:	3305      	adds	r3, #5
 80041dc:	781b      	ldrb	r3, [r3, #0]
 80041de:	4610      	mov	r0, r2
 80041e0:	4619      	mov	r1, r3
 80041e2:	f7fc f913 	bl	800040c <unpack16>
 80041e6:	4603      	mov	r3, r0
 80041e8:	b29a      	uxth	r2, r3
 80041ea:	69fb      	ldr	r3, [r7, #28]
 80041ec:	f8a3 2122 	strh.w	r2, [r3, #290]	; 0x122
 80041f0:	f001 b925 	b.w	800543e <process_write+0x239a>
        case 0x53U: r->calib_scale.hv_scl=(int16_t)unpack16(data[0],data[1]); r->calib_scale.batt1_in_scl=(int16_t)unpack16(data[2],data[3]); r->calib_scale.batt2_in_scl=(int16_t)unpack16(data[4],data[5]); break;
 80041f4:	683b      	ldr	r3, [r7, #0]
 80041f6:	781a      	ldrb	r2, [r3, #0]
 80041f8:	683b      	ldr	r3, [r7, #0]
 80041fa:	3301      	adds	r3, #1
 80041fc:	781b      	ldrb	r3, [r3, #0]
 80041fe:	4610      	mov	r0, r2
 8004200:	4619      	mov	r1, r3
 8004202:	f7fc f903 	bl	800040c <unpack16>
 8004206:	4603      	mov	r3, r0
 8004208:	b29a      	uxth	r2, r3
 800420a:	69fb      	ldr	r3, [r7, #28]
 800420c:	f8a3 2124 	strh.w	r2, [r3, #292]	; 0x124
 8004210:	683b      	ldr	r3, [r7, #0]
 8004212:	3302      	adds	r3, #2
 8004214:	781a      	ldrb	r2, [r3, #0]
 8004216:	683b      	ldr	r3, [r7, #0]
 8004218:	3303      	adds	r3, #3
 800421a:	781b      	ldrb	r3, [r3, #0]
 800421c:	4610      	mov	r0, r2
 800421e:	4619      	mov	r1, r3
 8004220:	f7fc f8f4 	bl	800040c <unpack16>
 8004224:	4603      	mov	r3, r0
 8004226:	b29a      	uxth	r2, r3
 8004228:	69fb      	ldr	r3, [r7, #28]
 800422a:	f8a3 2126 	strh.w	r2, [r3, #294]	; 0x126
 800422e:	683b      	ldr	r3, [r7, #0]
 8004230:	3304      	adds	r3, #4
 8004232:	781a      	ldrb	r2, [r3, #0]
 8004234:	683b      	ldr	r3, [r7, #0]
 8004236:	3305      	adds	r3, #5
 8004238:	781b      	ldrb	r3, [r3, #0]
 800423a:	4610      	mov	r0, r2
 800423c:	4619      	mov	r1, r3
 800423e:	f7fc f8e5 	bl	800040c <unpack16>
 8004242:	4603      	mov	r3, r0
 8004244:	b29a      	uxth	r2, r3
 8004246:	69fb      	ldr	r3, [r7, #28]
 8004248:	f8a3 2128 	strh.w	r2, [r3, #296]	; 0x128
 800424c:	f001 b8f7 	b.w	800543e <process_write+0x239a>
        case 0x54U: r->calib_scale.nk_imon_scl=(int16_t)unpack16(data[0],data[1]); r->calib_scale.mot_bus_scl=(int16_t)unpack16(data[2],data[3]); r->calib_scale.chg_hv_scl=(int16_t)unpack16(data[4],data[5]); break;
 8004250:	683b      	ldr	r3, [r7, #0]
 8004252:	781a      	ldrb	r2, [r3, #0]
 8004254:	683b      	ldr	r3, [r7, #0]
 8004256:	3301      	adds	r3, #1
 8004258:	781b      	ldrb	r3, [r3, #0]
 800425a:	4610      	mov	r0, r2
 800425c:	4619      	mov	r1, r3
 800425e:	f7fc f8d5 	bl	800040c <unpack16>
 8004262:	4603      	mov	r3, r0
 8004264:	b29a      	uxth	r2, r3
 8004266:	69fb      	ldr	r3, [r7, #28]
 8004268:	f8a3 212a 	strh.w	r2, [r3, #298]	; 0x12a
 800426c:	683b      	ldr	r3, [r7, #0]
 800426e:	3302      	adds	r3, #2
 8004270:	781a      	ldrb	r2, [r3, #0]
 8004272:	683b      	ldr	r3, [r7, #0]
 8004274:	3303      	adds	r3, #3
 8004276:	781b      	ldrb	r3, [r3, #0]
 8004278:	4610      	mov	r0, r2
 800427a:	4619      	mov	r1, r3
 800427c:	f7fc f8c6 	bl	800040c <unpack16>
 8004280:	4603      	mov	r3, r0
 8004282:	b29a      	uxth	r2, r3
 8004284:	69fb      	ldr	r3, [r7, #28]
 8004286:	f8a3 212c 	strh.w	r2, [r3, #300]	; 0x12c
 800428a:	683b      	ldr	r3, [r7, #0]
 800428c:	3304      	adds	r3, #4
 800428e:	781a      	ldrb	r2, [r3, #0]
 8004290:	683b      	ldr	r3, [r7, #0]
 8004292:	3305      	adds	r3, #5
 8004294:	781b      	ldrb	r3, [r3, #0]
 8004296:	4610      	mov	r0, r2
 8004298:	4619      	mov	r1, r3
 800429a:	f7fc f8b7 	bl	800040c <unpack16>
 800429e:	4603      	mov	r3, r0
 80042a0:	b29a      	uxth	r2, r3
 80042a2:	69fb      	ldr	r3, [r7, #28]
 80042a4:	f8a3 212e 	strh.w	r2, [r3, #302]	; 0x12e
 80042a8:	f001 b8c9 	b.w	800543e <process_write+0x239a>
        case 0x55U: r->calib_scale.user_hv_scl=(int16_t)unpack16(data[0],data[1]); r->calib_scale.user_hv_curr_scl=(int16_t)unpack16(data[2],data[3]); break;
 80042ac:	683b      	ldr	r3, [r7, #0]
 80042ae:	781a      	ldrb	r2, [r3, #0]
 80042b0:	683b      	ldr	r3, [r7, #0]
 80042b2:	3301      	adds	r3, #1
 80042b4:	781b      	ldrb	r3, [r3, #0]
 80042b6:	4610      	mov	r0, r2
 80042b8:	4619      	mov	r1, r3
 80042ba:	f7fc f8a7 	bl	800040c <unpack16>
 80042be:	4603      	mov	r3, r0
 80042c0:	b29a      	uxth	r2, r3
 80042c2:	69fb      	ldr	r3, [r7, #28]
 80042c4:	f8a3 2130 	strh.w	r2, [r3, #304]	; 0x130
 80042c8:	683b      	ldr	r3, [r7, #0]
 80042ca:	3302      	adds	r3, #2
 80042cc:	781a      	ldrb	r2, [r3, #0]
 80042ce:	683b      	ldr	r3, [r7, #0]
 80042d0:	3303      	adds	r3, #3
 80042d2:	781b      	ldrb	r3, [r3, #0]
 80042d4:	4610      	mov	r0, r2
 80042d6:	4619      	mov	r1, r3
 80042d8:	f7fc f898 	bl	800040c <unpack16>
 80042dc:	4603      	mov	r3, r0
 80042de:	b29a      	uxth	r2, r3
 80042e0:	69fb      	ldr	r3, [r7, #28]
 80042e2:	f8a3 2132 	strh.w	r2, [r3, #306]	; 0x132
 80042e6:	f001 b8aa 	b.w	800543e <process_write+0x239a>
        case 0x56U: r->calib_scale.pc_24v_scl=(int16_t)unpack16(data[0],data[1]); r->calib_scale.pc_24v_imon_scl=(int16_t)unpack16(data[2],data[3]); break;
 80042ea:	683b      	ldr	r3, [r7, #0]
 80042ec:	781a      	ldrb	r2, [r3, #0]
 80042ee:	683b      	ldr	r3, [r7, #0]
 80042f0:	3301      	adds	r3, #1
 80042f2:	781b      	ldrb	r3, [r3, #0]
 80042f4:	4610      	mov	r0, r2
 80042f6:	4619      	mov	r1, r3
 80042f8:	f7fc f888 	bl	800040c <unpack16>
 80042fc:	4603      	mov	r3, r0
 80042fe:	b29a      	uxth	r2, r3
 8004300:	69fb      	ldr	r3, [r7, #28]
 8004302:	f8a3 2134 	strh.w	r2, [r3, #308]	; 0x134
 8004306:	683b      	ldr	r3, [r7, #0]
 8004308:	3302      	adds	r3, #2
 800430a:	781a      	ldrb	r2, [r3, #0]
 800430c:	683b      	ldr	r3, [r7, #0]
 800430e:	3303      	adds	r3, #3
 8004310:	781b      	ldrb	r3, [r3, #0]
 8004312:	4610      	mov	r0, r2
 8004314:	4619      	mov	r1, r3
 8004316:	f7fc f879 	bl	800040c <unpack16>
 800431a:	4603      	mov	r3, r0
 800431c:	b29a      	uxth	r2, r3
 800431e:	69fb      	ldr	r3, [r7, #28]
 8004320:	f8a3 2136 	strh.w	r2, [r3, #310]	; 0x136
 8004324:	f001 b88b 	b.w	800543e <process_write+0x239a>
        case 0x57U: r->calib_scale.user_24v_scl=(int16_t)unpack16(data[0],data[1]); r->calib_scale.user_24v_imon_scl=(int16_t)unpack16(data[2],data[3]); break;
 8004328:	683b      	ldr	r3, [r7, #0]
 800432a:	781a      	ldrb	r2, [r3, #0]
 800432c:	683b      	ldr	r3, [r7, #0]
 800432e:	3301      	adds	r3, #1
 8004330:	781b      	ldrb	r3, [r3, #0]
 8004332:	4610      	mov	r0, r2
 8004334:	4619      	mov	r1, r3
 8004336:	f7fc f869 	bl	800040c <unpack16>
 800433a:	4603      	mov	r3, r0
 800433c:	b29a      	uxth	r2, r3
 800433e:	69fb      	ldr	r3, [r7, #28]
 8004340:	f8a3 2138 	strh.w	r2, [r3, #312]	; 0x138
 8004344:	683b      	ldr	r3, [r7, #0]
 8004346:	3302      	adds	r3, #2
 8004348:	781a      	ldrb	r2, [r3, #0]
 800434a:	683b      	ldr	r3, [r7, #0]
 800434c:	3303      	adds	r3, #3
 800434e:	781b      	ldrb	r3, [r3, #0]
 8004350:	4610      	mov	r0, r2
 8004352:	4619      	mov	r1, r3
 8004354:	f7fc f85a 	bl	800040c <unpack16>
 8004358:	4603      	mov	r3, r0
 800435a:	b29a      	uxth	r2, r3
 800435c:	69fb      	ldr	r3, [r7, #28]
 800435e:	f8a3 213a 	strh.w	r2, [r3, #314]	; 0x13a
 8004362:	f001 b86c 	b.w	800543e <process_write+0x239a>
        case 0x58U: r->calib_scale.pc_a_12v_scl=(int16_t)unpack16(data[0],data[1]); r->calib_scale.pc_a_12v_imon_scl=(int16_t)unpack16(data[2],data[3]); break;
 8004366:	683b      	ldr	r3, [r7, #0]
 8004368:	781a      	ldrb	r2, [r3, #0]
 800436a:	683b      	ldr	r3, [r7, #0]
 800436c:	3301      	adds	r3, #1
 800436e:	781b      	ldrb	r3, [r3, #0]
 8004370:	4610      	mov	r0, r2
 8004372:	4619      	mov	r1, r3
 8004374:	f7fc f84a 	bl	800040c <unpack16>
 8004378:	4603      	mov	r3, r0
 800437a:	b29a      	uxth	r2, r3
 800437c:	69fb      	ldr	r3, [r7, #28]
 800437e:	f8a3 213c 	strh.w	r2, [r3, #316]	; 0x13c
 8004382:	683b      	ldr	r3, [r7, #0]
 8004384:	3302      	adds	r3, #2
 8004386:	781a      	ldrb	r2, [r3, #0]
 8004388:	683b      	ldr	r3, [r7, #0]
 800438a:	3303      	adds	r3, #3
 800438c:	781b      	ldrb	r3, [r3, #0]
 800438e:	4610      	mov	r0, r2
 8004390:	4619      	mov	r1, r3
 8004392:	f7fc f83b 	bl	800040c <unpack16>
 8004396:	4603      	mov	r3, r0
 8004398:	b29a      	uxth	r2, r3
 800439a:	69fb      	ldr	r3, [r7, #28]
 800439c:	f8a3 213e 	strh.w	r2, [r3, #318]	; 0x13e
 80043a0:	f001 b84d 	b.w	800543e <process_write+0x239a>
        case 0x59U: r->calib_scale.pc_b_12v_scl=(int16_t)unpack16(data[0],data[1]); r->calib_scale.pc_b_12v_imon_scl=(int16_t)unpack16(data[2],data[3]); break;
 80043a4:	683b      	ldr	r3, [r7, #0]
 80043a6:	781a      	ldrb	r2, [r3, #0]
 80043a8:	683b      	ldr	r3, [r7, #0]
 80043aa:	3301      	adds	r3, #1
 80043ac:	781b      	ldrb	r3, [r3, #0]
 80043ae:	4610      	mov	r0, r2
 80043b0:	4619      	mov	r1, r3
 80043b2:	f7fc f82b 	bl	800040c <unpack16>
 80043b6:	4603      	mov	r3, r0
 80043b8:	b29a      	uxth	r2, r3
 80043ba:	69fb      	ldr	r3, [r7, #28]
 80043bc:	f8a3 2140 	strh.w	r2, [r3, #320]	; 0x140
 80043c0:	683b      	ldr	r3, [r7, #0]
 80043c2:	3302      	adds	r3, #2
 80043c4:	781a      	ldrb	r2, [r3, #0]
 80043c6:	683b      	ldr	r3, [r7, #0]
 80043c8:	3303      	adds	r3, #3
 80043ca:	781b      	ldrb	r3, [r3, #0]
 80043cc:	4610      	mov	r0, r2
 80043ce:	4619      	mov	r1, r3
 80043d0:	f7fc f81c 	bl	800040c <unpack16>
 80043d4:	4603      	mov	r3, r0
 80043d6:	b29a      	uxth	r2, r3
 80043d8:	69fb      	ldr	r3, [r7, #28]
 80043da:	f8a3 2142 	strh.w	r2, [r3, #322]	; 0x142
 80043de:	f001 b82e 	b.w	800543e <process_write+0x239a>
        case 0x5AU: r->calib_scale.v24_imon0_scl=(int16_t)unpack16(data[0],data[1]); r->calib_scale.v24_imon1_scl=(int16_t)unpack16(data[2],data[3]); r->calib_scale.v24_imon2_scl=(int16_t)unpack16(data[4],data[5]); break;
 80043e2:	683b      	ldr	r3, [r7, #0]
 80043e4:	781a      	ldrb	r2, [r3, #0]
 80043e6:	683b      	ldr	r3, [r7, #0]
 80043e8:	3301      	adds	r3, #1
 80043ea:	781b      	ldrb	r3, [r3, #0]
 80043ec:	4610      	mov	r0, r2
 80043ee:	4619      	mov	r1, r3
 80043f0:	f7fc f80c 	bl	800040c <unpack16>
 80043f4:	4603      	mov	r3, r0
 80043f6:	b29a      	uxth	r2, r3
 80043f8:	69fb      	ldr	r3, [r7, #28]
 80043fa:	f8a3 2144 	strh.w	r2, [r3, #324]	; 0x144
 80043fe:	683b      	ldr	r3, [r7, #0]
 8004400:	3302      	adds	r3, #2
 8004402:	781a      	ldrb	r2, [r3, #0]
 8004404:	683b      	ldr	r3, [r7, #0]
 8004406:	3303      	adds	r3, #3
 8004408:	781b      	ldrb	r3, [r3, #0]
 800440a:	4610      	mov	r0, r2
 800440c:	4619      	mov	r1, r3
 800440e:	f7fb fffd 	bl	800040c <unpack16>
 8004412:	4603      	mov	r3, r0
 8004414:	b29a      	uxth	r2, r3
 8004416:	69fb      	ldr	r3, [r7, #28]
 8004418:	f8a3 2146 	strh.w	r2, [r3, #326]	; 0x146
 800441c:	683b      	ldr	r3, [r7, #0]
 800441e:	3304      	adds	r3, #4
 8004420:	781a      	ldrb	r2, [r3, #0]
 8004422:	683b      	ldr	r3, [r7, #0]
 8004424:	3305      	adds	r3, #5
 8004426:	781b      	ldrb	r3, [r3, #0]
 8004428:	4610      	mov	r0, r2
 800442a:	4619      	mov	r1, r3
 800442c:	f7fb ffee 	bl	800040c <unpack16>
 8004430:	4603      	mov	r3, r0
 8004432:	b29a      	uxth	r2, r3
 8004434:	69fb      	ldr	r3, [r7, #28]
 8004436:	f8a3 2148 	strh.w	r2, [r3, #328]	; 0x148
 800443a:	f001 b800 	b.w	800543e <process_write+0x239a>
        case 0x5BU: r->calib_scale.v12_imon0_scl=(int16_t)unpack16(data[0],data[1]); r->calib_scale.v12_imon1_scl=(int16_t)unpack16(data[2],data[3]); r->calib_scale.v12_imon2_scl=(int16_t)unpack16(data[4],data[5]); break;
 800443e:	683b      	ldr	r3, [r7, #0]
 8004440:	781a      	ldrb	r2, [r3, #0]
 8004442:	683b      	ldr	r3, [r7, #0]
 8004444:	3301      	adds	r3, #1
 8004446:	781b      	ldrb	r3, [r3, #0]
 8004448:	4610      	mov	r0, r2
 800444a:	4619      	mov	r1, r3
 800444c:	f7fb ffde 	bl	800040c <unpack16>
 8004450:	4603      	mov	r3, r0
 8004452:	b29a      	uxth	r2, r3
 8004454:	69fb      	ldr	r3, [r7, #28]
 8004456:	f8a3 214a 	strh.w	r2, [r3, #330]	; 0x14a
 800445a:	683b      	ldr	r3, [r7, #0]
 800445c:	3302      	adds	r3, #2
 800445e:	781a      	ldrb	r2, [r3, #0]
 8004460:	683b      	ldr	r3, [r7, #0]
 8004462:	3303      	adds	r3, #3
 8004464:	781b      	ldrb	r3, [r3, #0]
 8004466:	4610      	mov	r0, r2
 8004468:	4619      	mov	r1, r3
 800446a:	f7fb ffcf 	bl	800040c <unpack16>
 800446e:	4603      	mov	r3, r0
 8004470:	b29a      	uxth	r2, r3
 8004472:	69fb      	ldr	r3, [r7, #28]
 8004474:	f8a3 214c 	strh.w	r2, [r3, #332]	; 0x14c
 8004478:	683b      	ldr	r3, [r7, #0]
 800447a:	3304      	adds	r3, #4
 800447c:	781a      	ldrb	r2, [r3, #0]
 800447e:	683b      	ldr	r3, [r7, #0]
 8004480:	3305      	adds	r3, #5
 8004482:	781b      	ldrb	r3, [r3, #0]
 8004484:	4610      	mov	r0, r2
 8004486:	4619      	mov	r1, r3
 8004488:	f7fb ffc0 	bl	800040c <unpack16>
 800448c:	4603      	mov	r3, r0
 800448e:	b29a      	uxth	r2, r3
 8004490:	69fb      	ldr	r3, [r7, #28]
 8004492:	f8a3 214e 	strh.w	r2, [r3, #334]	; 0x14e
 8004496:	f000 bfd2 	b.w	800543e <process_write+0x239a>
        case 0x5CU: r->calib_scale.v24_scl=(int16_t)unpack16(data[0],data[1]); r->calib_scale.v12_scl=(int16_t)unpack16(data[2],data[3]); break;
 800449a:	683b      	ldr	r3, [r7, #0]
 800449c:	781a      	ldrb	r2, [r3, #0]
 800449e:	683b      	ldr	r3, [r7, #0]
 80044a0:	3301      	adds	r3, #1
 80044a2:	781b      	ldrb	r3, [r3, #0]
 80044a4:	4610      	mov	r0, r2
 80044a6:	4619      	mov	r1, r3
 80044a8:	f7fb ffb0 	bl	800040c <unpack16>
 80044ac:	4603      	mov	r3, r0
 80044ae:	b29a      	uxth	r2, r3
 80044b0:	69fb      	ldr	r3, [r7, #28]
 80044b2:	f8a3 2150 	strh.w	r2, [r3, #336]	; 0x150
 80044b6:	683b      	ldr	r3, [r7, #0]
 80044b8:	3302      	adds	r3, #2
 80044ba:	781a      	ldrb	r2, [r3, #0]
 80044bc:	683b      	ldr	r3, [r7, #0]
 80044be:	3303      	adds	r3, #3
 80044c0:	781b      	ldrb	r3, [r3, #0]
 80044c2:	4610      	mov	r0, r2
 80044c4:	4619      	mov	r1, r3
 80044c6:	f7fb ffa1 	bl	800040c <unpack16>
 80044ca:	4603      	mov	r3, r0
 80044cc:	b29a      	uxth	r2, r3
 80044ce:	69fb      	ldr	r3, [r7, #28]
 80044d0:	f8a3 2152 	strh.w	r2, [r3, #338]	; 0x152
 80044d4:	f000 bfb3 	b.w	800543e <process_write+0x239a>
        case 0x5DU: r->calib_scale.v5_scl=(int16_t)unpack16(data[0],data[1]); r->calib_scale.v5_curr_scl=(int16_t)unpack16(data[2],data[3]); break;
 80044d8:	683b      	ldr	r3, [r7, #0]
 80044da:	781a      	ldrb	r2, [r3, #0]
 80044dc:	683b      	ldr	r3, [r7, #0]
 80044de:	3301      	adds	r3, #1
 80044e0:	781b      	ldrb	r3, [r3, #0]
 80044e2:	4610      	mov	r0, r2
 80044e4:	4619      	mov	r1, r3
 80044e6:	f7fb ff91 	bl	800040c <unpack16>
 80044ea:	4603      	mov	r3, r0
 80044ec:	b29a      	uxth	r2, r3
 80044ee:	69fb      	ldr	r3, [r7, #28]
 80044f0:	f8a3 2154 	strh.w	r2, [r3, #340]	; 0x154
 80044f4:	683b      	ldr	r3, [r7, #0]
 80044f6:	3302      	adds	r3, #2
 80044f8:	781a      	ldrb	r2, [r3, #0]
 80044fa:	683b      	ldr	r3, [r7, #0]
 80044fc:	3303      	adds	r3, #3
 80044fe:	781b      	ldrb	r3, [r3, #0]
 8004500:	4610      	mov	r0, r2
 8004502:	4619      	mov	r1, r3
 8004504:	f7fb ff82 	bl	800040c <unpack16>
 8004508:	4603      	mov	r3, r0
 800450a:	b29a      	uxth	r2, r3
 800450c:	69fb      	ldr	r3, [r7, #28]
 800450e:	f8a3 2156 	strh.w	r2, [r3, #342]	; 0x156
 8004512:	f000 bf94 	b.w	800543e <process_write+0x239a>
        case 0x5EU: r->calib_scale.v3v3_scl=(int16_t)unpack16(data[0],data[1]); r->calib_scale.v3v3_curr_scl=(int16_t)unpack16(data[2],data[3]); break;
 8004516:	683b      	ldr	r3, [r7, #0]
 8004518:	781a      	ldrb	r2, [r3, #0]
 800451a:	683b      	ldr	r3, [r7, #0]
 800451c:	3301      	adds	r3, #1
 800451e:	781b      	ldrb	r3, [r3, #0]
 8004520:	4610      	mov	r0, r2
 8004522:	4619      	mov	r1, r3
 8004524:	f7fb ff72 	bl	800040c <unpack16>
 8004528:	4603      	mov	r3, r0
 800452a:	b29a      	uxth	r2, r3
 800452c:	69fb      	ldr	r3, [r7, #28]
 800452e:	f8a3 2158 	strh.w	r2, [r3, #344]	; 0x158
 8004532:	683b      	ldr	r3, [r7, #0]
 8004534:	3302      	adds	r3, #2
 8004536:	781a      	ldrb	r2, [r3, #0]
 8004538:	683b      	ldr	r3, [r7, #0]
 800453a:	3303      	adds	r3, #3
 800453c:	781b      	ldrb	r3, [r3, #0]
 800453e:	4610      	mov	r0, r2
 8004540:	4619      	mov	r1, r3
 8004542:	f7fb ff63 	bl	800040c <unpack16>
 8004546:	4603      	mov	r3, r0
 8004548:	b29a      	uxth	r2, r3
 800454a:	69fb      	ldr	r3, [r7, #28]
 800454c:	f8a3 215a 	strh.w	r2, [r3, #346]	; 0x15a
 8004550:	f000 bf75 	b.w	800543e <process_write+0x239a>
        case 0x5FU: r->calib_scale.aux_24v_scl=(int16_t)unpack16(data[0],data[1]); r->calib_scale.aux_24v_curr_scl=(int16_t)unpack16(data[2],data[3]); break;
 8004554:	683b      	ldr	r3, [r7, #0]
 8004556:	781a      	ldrb	r2, [r3, #0]
 8004558:	683b      	ldr	r3, [r7, #0]
 800455a:	3301      	adds	r3, #1
 800455c:	781b      	ldrb	r3, [r3, #0]
 800455e:	4610      	mov	r0, r2
 8004560:	4619      	mov	r1, r3
 8004562:	f7fb ff53 	bl	800040c <unpack16>
 8004566:	4603      	mov	r3, r0
 8004568:	b29a      	uxth	r2, r3
 800456a:	69fb      	ldr	r3, [r7, #28]
 800456c:	f8a3 215c 	strh.w	r2, [r3, #348]	; 0x15c
 8004570:	683b      	ldr	r3, [r7, #0]
 8004572:	3302      	adds	r3, #2
 8004574:	781a      	ldrb	r2, [r3, #0]
 8004576:	683b      	ldr	r3, [r7, #0]
 8004578:	3303      	adds	r3, #3
 800457a:	781b      	ldrb	r3, [r3, #0]
 800457c:	4610      	mov	r0, r2
 800457e:	4619      	mov	r1, r3
 8004580:	f7fb ff44 	bl	800040c <unpack16>
 8004584:	4603      	mov	r3, r0
 8004586:	b29a      	uxth	r2, r3
 8004588:	69fb      	ldr	r3, [r7, #28]
 800458a:	f8a3 215e 	strh.w	r2, [r3, #350]	; 0x15e
 800458e:	f000 bf56 	b.w	800543e <process_write+0x239a>
        case 0x60U: r->calib_scale.aux_12v_scl=(int16_t)unpack16(data[0],data[1]); r->calib_scale.aux_12v_curr_scl=(int16_t)unpack16(data[2],data[3]); break;
 8004592:	683b      	ldr	r3, [r7, #0]
 8004594:	781a      	ldrb	r2, [r3, #0]
 8004596:	683b      	ldr	r3, [r7, #0]
 8004598:	3301      	adds	r3, #1
 800459a:	781b      	ldrb	r3, [r3, #0]
 800459c:	4610      	mov	r0, r2
 800459e:	4619      	mov	r1, r3
 80045a0:	f7fb ff34 	bl	800040c <unpack16>
 80045a4:	4603      	mov	r3, r0
 80045a6:	b29a      	uxth	r2, r3
 80045a8:	69fb      	ldr	r3, [r7, #28]
 80045aa:	f8a3 2160 	strh.w	r2, [r3, #352]	; 0x160
 80045ae:	683b      	ldr	r3, [r7, #0]
 80045b0:	3302      	adds	r3, #2
 80045b2:	781a      	ldrb	r2, [r3, #0]
 80045b4:	683b      	ldr	r3, [r7, #0]
 80045b6:	3303      	adds	r3, #3
 80045b8:	781b      	ldrb	r3, [r3, #0]
 80045ba:	4610      	mov	r0, r2
 80045bc:	4619      	mov	r1, r3
 80045be:	f7fb ff25 	bl	800040c <unpack16>
 80045c2:	4603      	mov	r3, r0
 80045c4:	b29a      	uxth	r2, r3
 80045c6:	69fb      	ldr	r3, [r7, #28]
 80045c8:	f8a3 2162 	strh.w	r2, [r3, #354]	; 0x162
 80045cc:	f000 bf37 	b.w	800543e <process_write+0x239a>
        case 0x61U: r->calib_scale.estop_rec_a_12v_scl=(int16_t)unpack16(data[0],data[1]); r->calib_scale.estop_rec_b_12v_scl=(int16_t)unpack16(data[2],data[3]); break;
 80045d0:	683b      	ldr	r3, [r7, #0]
 80045d2:	781a      	ldrb	r2, [r3, #0]
 80045d4:	683b      	ldr	r3, [r7, #0]
 80045d6:	3301      	adds	r3, #1
 80045d8:	781b      	ldrb	r3, [r3, #0]
 80045da:	4610      	mov	r0, r2
 80045dc:	4619      	mov	r1, r3
 80045de:	f7fb ff15 	bl	800040c <unpack16>
 80045e2:	4603      	mov	r3, r0
 80045e4:	b29a      	uxth	r2, r3
 80045e6:	69fb      	ldr	r3, [r7, #28]
 80045e8:	f8a3 2164 	strh.w	r2, [r3, #356]	; 0x164
 80045ec:	683b      	ldr	r3, [r7, #0]
 80045ee:	3302      	adds	r3, #2
 80045f0:	781a      	ldrb	r2, [r3, #0]
 80045f2:	683b      	ldr	r3, [r7, #0]
 80045f4:	3303      	adds	r3, #3
 80045f6:	781b      	ldrb	r3, [r3, #0]
 80045f8:	4610      	mov	r0, r2
 80045fa:	4619      	mov	r1, r3
 80045fc:	f7fb ff06 	bl	800040c <unpack16>
 8004600:	4603      	mov	r3, r0
 8004602:	b29a      	uxth	r2, r3
 8004604:	69fb      	ldr	r3, [r7, #28]
 8004606:	f8a3 2166 	strh.w	r2, [r3, #358]	; 0x166
 800460a:	f000 bf18 	b.w	800543e <process_write+0x239a>
        case 0x62U: r->calib_scale.v12_b_imon3_scl=(int16_t)unpack16(data[0],data[1]); r->calib_scale.v12_b_imon4_scl=(int16_t)unpack16(data[2],data[3]); break;
 800460e:	683b      	ldr	r3, [r7, #0]
 8004610:	781a      	ldrb	r2, [r3, #0]
 8004612:	683b      	ldr	r3, [r7, #0]
 8004614:	3301      	adds	r3, #1
 8004616:	781b      	ldrb	r3, [r3, #0]
 8004618:	4610      	mov	r0, r2
 800461a:	4619      	mov	r1, r3
 800461c:	f7fb fef6 	bl	800040c <unpack16>
 8004620:	4603      	mov	r3, r0
 8004622:	b29a      	uxth	r2, r3
 8004624:	69fb      	ldr	r3, [r7, #28]
 8004626:	f8a3 2168 	strh.w	r2, [r3, #360]	; 0x168
 800462a:	683b      	ldr	r3, [r7, #0]
 800462c:	3302      	adds	r3, #2
 800462e:	781a      	ldrb	r2, [r3, #0]
 8004630:	683b      	ldr	r3, [r7, #0]
 8004632:	3303      	adds	r3, #3
 8004634:	781b      	ldrb	r3, [r3, #0]
 8004636:	4610      	mov	r0, r2
 8004638:	4619      	mov	r1, r3
 800463a:	f7fb fee7 	bl	800040c <unpack16>
 800463e:	4603      	mov	r3, r0
 8004640:	b29a      	uxth	r2, r3
 8004642:	69fb      	ldr	r3, [r7, #28]
 8004644:	f8a3 216a 	strh.w	r2, [r3, #362]	; 0x16a
 8004648:	f000 bef9 	b.w	800543e <process_write+0x239a>
        case 0x63U: r->calib_scale.hv_or_scl=(int16_t)unpack16(data[0],data[1]); r->calib_scale.mb_sp_imon_scl=(int16_t)unpack16(data[2],data[3]); break;
 800464c:	683b      	ldr	r3, [r7, #0]
 800464e:	781a      	ldrb	r2, [r3, #0]
 8004650:	683b      	ldr	r3, [r7, #0]
 8004652:	3301      	adds	r3, #1
 8004654:	781b      	ldrb	r3, [r3, #0]
 8004656:	4610      	mov	r0, r2
 8004658:	4619      	mov	r1, r3
 800465a:	f7fb fed7 	bl	800040c <unpack16>
 800465e:	4603      	mov	r3, r0
 8004660:	b29a      	uxth	r2, r3
 8004662:	69fb      	ldr	r3, [r7, #28]
 8004664:	f8a3 216c 	strh.w	r2, [r3, #364]	; 0x16c
 8004668:	683b      	ldr	r3, [r7, #0]
 800466a:	3302      	adds	r3, #2
 800466c:	781a      	ldrb	r2, [r3, #0]
 800466e:	683b      	ldr	r3, [r7, #0]
 8004670:	3303      	adds	r3, #3
 8004672:	781b      	ldrb	r3, [r3, #0]
 8004674:	4610      	mov	r0, r2
 8004676:	4619      	mov	r1, r3
 8004678:	f7fb fec8 	bl	800040c <unpack16>
 800467c:	4603      	mov	r3, r0
 800467e:	b29a      	uxth	r2, r3
 8004680:	69fb      	ldr	r3, [r7, #28]
 8004682:	f8a3 216e 	strh.w	r2, [r3, #366]	; 0x16e
 8004686:	f000 beda 	b.w	800543e <process_write+0x239a>
        case 0x64U: r->calib_scale.temp0_scl=(int16_t)unpack16(data[0],data[1]); r->calib_scale.temp1_scl=(int16_t)unpack16(data[2],data[3]); r->calib_scale.temp2_scl=(int16_t)unpack16(data[4],data[5]); break;
 800468a:	683b      	ldr	r3, [r7, #0]
 800468c:	781a      	ldrb	r2, [r3, #0]
 800468e:	683b      	ldr	r3, [r7, #0]
 8004690:	3301      	adds	r3, #1
 8004692:	781b      	ldrb	r3, [r3, #0]
 8004694:	4610      	mov	r0, r2
 8004696:	4619      	mov	r1, r3
 8004698:	f7fb feb8 	bl	800040c <unpack16>
 800469c:	4603      	mov	r3, r0
 800469e:	b29a      	uxth	r2, r3
 80046a0:	69fb      	ldr	r3, [r7, #28]
 80046a2:	f8a3 2170 	strh.w	r2, [r3, #368]	; 0x170
 80046a6:	683b      	ldr	r3, [r7, #0]
 80046a8:	3302      	adds	r3, #2
 80046aa:	781a      	ldrb	r2, [r3, #0]
 80046ac:	683b      	ldr	r3, [r7, #0]
 80046ae:	3303      	adds	r3, #3
 80046b0:	781b      	ldrb	r3, [r3, #0]
 80046b2:	4610      	mov	r0, r2
 80046b4:	4619      	mov	r1, r3
 80046b6:	f7fb fea9 	bl	800040c <unpack16>
 80046ba:	4603      	mov	r3, r0
 80046bc:	b29a      	uxth	r2, r3
 80046be:	69fb      	ldr	r3, [r7, #28]
 80046c0:	f8a3 2172 	strh.w	r2, [r3, #370]	; 0x172
 80046c4:	683b      	ldr	r3, [r7, #0]
 80046c6:	3304      	adds	r3, #4
 80046c8:	781a      	ldrb	r2, [r3, #0]
 80046ca:	683b      	ldr	r3, [r7, #0]
 80046cc:	3305      	adds	r3, #5
 80046ce:	781b      	ldrb	r3, [r3, #0]
 80046d0:	4610      	mov	r0, r2
 80046d2:	4619      	mov	r1, r3
 80046d4:	f7fb fe9a 	bl	800040c <unpack16>
 80046d8:	4603      	mov	r3, r0
 80046da:	b29a      	uxth	r2, r3
 80046dc:	69fb      	ldr	r3, [r7, #28]
 80046de:	f8a3 2174 	strh.w	r2, [r3, #372]	; 0x174
 80046e2:	f000 beac 	b.w	800543e <process_write+0x239a>
        case 0x65U: r->calib_scale.temp3_scl=(int16_t)unpack16(data[0],data[1]); r->calib_scale.temp4_scl=(int16_t)unpack16(data[2],data[3]); r->calib_scale.temp5_scl=(int16_t)unpack16(data[4],data[5]); break;
 80046e6:	683b      	ldr	r3, [r7, #0]
 80046e8:	781a      	ldrb	r2, [r3, #0]
 80046ea:	683b      	ldr	r3, [r7, #0]
 80046ec:	3301      	adds	r3, #1
 80046ee:	781b      	ldrb	r3, [r3, #0]
 80046f0:	4610      	mov	r0, r2
 80046f2:	4619      	mov	r1, r3
 80046f4:	f7fb fe8a 	bl	800040c <unpack16>
 80046f8:	4603      	mov	r3, r0
 80046fa:	b29a      	uxth	r2, r3
 80046fc:	69fb      	ldr	r3, [r7, #28]
 80046fe:	f8a3 2176 	strh.w	r2, [r3, #374]	; 0x176
 8004702:	683b      	ldr	r3, [r7, #0]
 8004704:	3302      	adds	r3, #2
 8004706:	781a      	ldrb	r2, [r3, #0]
 8004708:	683b      	ldr	r3, [r7, #0]
 800470a:	3303      	adds	r3, #3
 800470c:	781b      	ldrb	r3, [r3, #0]
 800470e:	4610      	mov	r0, r2
 8004710:	4619      	mov	r1, r3
 8004712:	f7fb fe7b 	bl	800040c <unpack16>
 8004716:	4603      	mov	r3, r0
 8004718:	b29a      	uxth	r2, r3
 800471a:	69fb      	ldr	r3, [r7, #28]
 800471c:	f8a3 2178 	strh.w	r2, [r3, #376]	; 0x178
 8004720:	683b      	ldr	r3, [r7, #0]
 8004722:	3304      	adds	r3, #4
 8004724:	781a      	ldrb	r2, [r3, #0]
 8004726:	683b      	ldr	r3, [r7, #0]
 8004728:	3305      	adds	r3, #5
 800472a:	781b      	ldrb	r3, [r3, #0]
 800472c:	4610      	mov	r0, r2
 800472e:	4619      	mov	r1, r3
 8004730:	f7fb fe6c 	bl	800040c <unpack16>
 8004734:	4603      	mov	r3, r0
 8004736:	b29a      	uxth	r2, r3
 8004738:	69fb      	ldr	r3, [r7, #28]
 800473a:	f8a3 217a 	strh.w	r2, [r3, #378]	; 0x17a
 800473e:	f000 be7e 	b.w	800543e <process_write+0x239a>
        case 0x66U: r->calib_scale.ex_temp0_scl=(int16_t)unpack16(data[0],data[1]); r->calib_scale.ex_temp1_scl=(int16_t)unpack16(data[2],data[3]); break;
 8004742:	683b      	ldr	r3, [r7, #0]
 8004744:	781a      	ldrb	r2, [r3, #0]
 8004746:	683b      	ldr	r3, [r7, #0]
 8004748:	3301      	adds	r3, #1
 800474a:	781b      	ldrb	r3, [r3, #0]
 800474c:	4610      	mov	r0, r2
 800474e:	4619      	mov	r1, r3
 8004750:	f7fb fe5c 	bl	800040c <unpack16>
 8004754:	4603      	mov	r3, r0
 8004756:	b29a      	uxth	r2, r3
 8004758:	69fb      	ldr	r3, [r7, #28]
 800475a:	f8a3 217c 	strh.w	r2, [r3, #380]	; 0x17c
 800475e:	683b      	ldr	r3, [r7, #0]
 8004760:	3302      	adds	r3, #2
 8004762:	781a      	ldrb	r2, [r3, #0]
 8004764:	683b      	ldr	r3, [r7, #0]
 8004766:	3303      	adds	r3, #3
 8004768:	781b      	ldrb	r3, [r3, #0]
 800476a:	4610      	mov	r0, r2
 800476c:	4619      	mov	r1, r3
 800476e:	f7fb fe4d 	bl	800040c <unpack16>
 8004772:	4603      	mov	r3, r0
 8004774:	b29a      	uxth	r2, r3
 8004776:	69fb      	ldr	r3, [r7, #28]
 8004778:	f8a3 217e 	strh.w	r2, [r3, #382]	; 0x17e
 800477c:	f000 be5f 	b.w	800543e <process_write+0x239a>
        case 0x67U: r->calib_scale.lidar_a_12v_scl=(int16_t)unpack16(data[0],data[1]); r->calib_scale.lidar_b_12v_scl=(int16_t)unpack16(data[2],data[3]); break;
 8004780:	683b      	ldr	r3, [r7, #0]
 8004782:	781a      	ldrb	r2, [r3, #0]
 8004784:	683b      	ldr	r3, [r7, #0]
 8004786:	3301      	adds	r3, #1
 8004788:	781b      	ldrb	r3, [r3, #0]
 800478a:	4610      	mov	r0, r2
 800478c:	4619      	mov	r1, r3
 800478e:	f7fb fe3d 	bl	800040c <unpack16>
 8004792:	4603      	mov	r3, r0
 8004794:	b29a      	uxth	r2, r3
 8004796:	69fb      	ldr	r3, [r7, #28]
 8004798:	f8a3 2180 	strh.w	r2, [r3, #384]	; 0x180
 800479c:	683b      	ldr	r3, [r7, #0]
 800479e:	3302      	adds	r3, #2
 80047a0:	781a      	ldrb	r2, [r3, #0]
 80047a2:	683b      	ldr	r3, [r7, #0]
 80047a4:	3303      	adds	r3, #3
 80047a6:	781b      	ldrb	r3, [r3, #0]
 80047a8:	4610      	mov	r0, r2
 80047aa:	4619      	mov	r1, r3
 80047ac:	f7fb fe2e 	bl	800040c <unpack16>
 80047b0:	4603      	mov	r3, r0
 80047b2:	b29a      	uxth	r2, r3
 80047b4:	69fb      	ldr	r3, [r7, #28]
 80047b6:	f8a3 2182 	strh.w	r2, [r3, #386]	; 0x182
 80047ba:	f000 be40 	b.w	800543e <process_write+0x239a>
        case 0x68U: r->calib_scale.sto_24v_scl=(int16_t)unpack16(data[0],data[1]); r->calib_scale.chg_hvil_out_scl=(int16_t)unpack16(data[2],data[3]); break;
 80047be:	683b      	ldr	r3, [r7, #0]
 80047c0:	781a      	ldrb	r2, [r3, #0]
 80047c2:	683b      	ldr	r3, [r7, #0]
 80047c4:	3301      	adds	r3, #1
 80047c6:	781b      	ldrb	r3, [r3, #0]
 80047c8:	4610      	mov	r0, r2
 80047ca:	4619      	mov	r1, r3
 80047cc:	f7fb fe1e 	bl	800040c <unpack16>
 80047d0:	4603      	mov	r3, r0
 80047d2:	b29a      	uxth	r2, r3
 80047d4:	69fb      	ldr	r3, [r7, #28]
 80047d6:	f8a3 2184 	strh.w	r2, [r3, #388]	; 0x184
 80047da:	683b      	ldr	r3, [r7, #0]
 80047dc:	3302      	adds	r3, #2
 80047de:	781a      	ldrb	r2, [r3, #0]
 80047e0:	683b      	ldr	r3, [r7, #0]
 80047e2:	3303      	adds	r3, #3
 80047e4:	781b      	ldrb	r3, [r3, #0]
 80047e6:	4610      	mov	r0, r2
 80047e8:	4619      	mov	r1, r3
 80047ea:	f7fb fe0f 	bl	800040c <unpack16>
 80047ee:	4603      	mov	r3, r0
 80047f0:	b29a      	uxth	r2, r3
 80047f2:	69fb      	ldr	r3, [r7, #28]
 80047f4:	f8a3 2186 	strh.w	r2, [r3, #390]	; 0x186
 80047f8:	f000 be21 	b.w	800543e <process_write+0x239a>
        case 0x69U: r->calib_scale.eth_2v5_scl=(int16_t)unpack16(data[0],data[1]); r->calib_scale.eth_1v2_scl=(int16_t)unpack16(data[2],data[3]); break;
 80047fc:	683b      	ldr	r3, [r7, #0]
 80047fe:	781a      	ldrb	r2, [r3, #0]
 8004800:	683b      	ldr	r3, [r7, #0]
 8004802:	3301      	adds	r3, #1
 8004804:	781b      	ldrb	r3, [r3, #0]
 8004806:	4610      	mov	r0, r2
 8004808:	4619      	mov	r1, r3
 800480a:	f7fb fdff 	bl	800040c <unpack16>
 800480e:	4603      	mov	r3, r0
 8004810:	b29a      	uxth	r2, r3
 8004812:	69fb      	ldr	r3, [r7, #28]
 8004814:	f8a3 2188 	strh.w	r2, [r3, #392]	; 0x188
 8004818:	683b      	ldr	r3, [r7, #0]
 800481a:	3302      	adds	r3, #2
 800481c:	781a      	ldrb	r2, [r3, #0]
 800481e:	683b      	ldr	r3, [r7, #0]
 8004820:	3303      	adds	r3, #3
 8004822:	781b      	ldrb	r3, [r3, #0]
 8004824:	4610      	mov	r0, r2
 8004826:	4619      	mov	r1, r3
 8004828:	f7fb fdf0 	bl	800040c <unpack16>
 800482c:	4603      	mov	r3, r0
 800482e:	b29a      	uxth	r2, r3
 8004830:	69fb      	ldr	r3, [r7, #28]
 8004832:	f8a3 218a 	strh.w	r2, [r3, #394]	; 0x18a
 8004836:	f000 be02 	b.w	800543e <process_write+0x239a>
        case 0x6AU: r->calib_scale.ecat_3v3_scl=(int16_t)unpack16(data[0],data[1]); r->calib_scale.ecat_1v2_scl=(int16_t)unpack16(data[2],data[3]); break;
 800483a:	683b      	ldr	r3, [r7, #0]
 800483c:	781a      	ldrb	r2, [r3, #0]
 800483e:	683b      	ldr	r3, [r7, #0]
 8004840:	3301      	adds	r3, #1
 8004842:	781b      	ldrb	r3, [r3, #0]
 8004844:	4610      	mov	r0, r2
 8004846:	4619      	mov	r1, r3
 8004848:	f7fb fde0 	bl	800040c <unpack16>
 800484c:	4603      	mov	r3, r0
 800484e:	b29a      	uxth	r2, r3
 8004850:	69fb      	ldr	r3, [r7, #28]
 8004852:	f8a3 218c 	strh.w	r2, [r3, #396]	; 0x18c
 8004856:	683b      	ldr	r3, [r7, #0]
 8004858:	3302      	adds	r3, #2
 800485a:	781a      	ldrb	r2, [r3, #0]
 800485c:	683b      	ldr	r3, [r7, #0]
 800485e:	3303      	adds	r3, #3
 8004860:	781b      	ldrb	r3, [r3, #0]
 8004862:	4610      	mov	r0, r2
 8004864:	4619      	mov	r1, r3
 8004866:	f7fb fdd1 	bl	800040c <unpack16>
 800486a:	4603      	mov	r3, r0
 800486c:	b29a      	uxth	r2, r3
 800486e:	69fb      	ldr	r3, [r7, #28]
 8004870:	f8a3 218e 	strh.w	r2, [r3, #398]	; 0x18e
 8004874:	f000 bde3 	b.w	800543e <process_write+0x239a>

        /* === 16-BIT LIMITS (0xB0-0xCF) === */
        case 0xB0U: r->soft_limits.chg_curr_lim=(int16_t)unpack16(data[0],data[1]); r->soft_limits.batt1_curr_plim=(int16_t)unpack16(data[2],data[3]); r->soft_limits.batt2_curr_plim=(int16_t)unpack16(data[4],data[5]); break;
 8004878:	683b      	ldr	r3, [r7, #0]
 800487a:	781a      	ldrb	r2, [r3, #0]
 800487c:	683b      	ldr	r3, [r7, #0]
 800487e:	3301      	adds	r3, #1
 8004880:	781b      	ldrb	r3, [r3, #0]
 8004882:	4610      	mov	r0, r2
 8004884:	4619      	mov	r1, r3
 8004886:	f7fb fdc1 	bl	800040c <unpack16>
 800488a:	4603      	mov	r3, r0
 800488c:	b29a      	uxth	r2, r3
 800488e:	69fb      	ldr	r3, [r7, #28]
 8004890:	f8a3 2224 	strh.w	r2, [r3, #548]	; 0x224
 8004894:	683b      	ldr	r3, [r7, #0]
 8004896:	3302      	adds	r3, #2
 8004898:	781a      	ldrb	r2, [r3, #0]
 800489a:	683b      	ldr	r3, [r7, #0]
 800489c:	3303      	adds	r3, #3
 800489e:	781b      	ldrb	r3, [r3, #0]
 80048a0:	4610      	mov	r0, r2
 80048a2:	4619      	mov	r1, r3
 80048a4:	f7fb fdb2 	bl	800040c <unpack16>
 80048a8:	4603      	mov	r3, r0
 80048aa:	b29a      	uxth	r2, r3
 80048ac:	69fb      	ldr	r3, [r7, #28]
 80048ae:	f8a3 2226 	strh.w	r2, [r3, #550]	; 0x226
 80048b2:	683b      	ldr	r3, [r7, #0]
 80048b4:	3304      	adds	r3, #4
 80048b6:	781a      	ldrb	r2, [r3, #0]
 80048b8:	683b      	ldr	r3, [r7, #0]
 80048ba:	3305      	adds	r3, #5
 80048bc:	781b      	ldrb	r3, [r3, #0]
 80048be:	4610      	mov	r0, r2
 80048c0:	4619      	mov	r1, r3
 80048c2:	f7fb fda3 	bl	800040c <unpack16>
 80048c6:	4603      	mov	r3, r0
 80048c8:	b29a      	uxth	r2, r3
 80048ca:	69fb      	ldr	r3, [r7, #28]
 80048cc:	f8a3 2228 	strh.w	r2, [r3, #552]	; 0x228
 80048d0:	f000 bdb5 	b.w	800543e <process_write+0x239a>
        case 0xB1U: r->soft_limits.ll_imon_lim=(int16_t)unpack16(data[0],data[1]); r->soft_limits.rl_imon_lim=(int16_t)unpack16(data[2],data[3]); r->soft_limits.la_imon_lim=(int16_t)unpack16(data[4],data[5]); break;
 80048d4:	683b      	ldr	r3, [r7, #0]
 80048d6:	781a      	ldrb	r2, [r3, #0]
 80048d8:	683b      	ldr	r3, [r7, #0]
 80048da:	3301      	adds	r3, #1
 80048dc:	781b      	ldrb	r3, [r3, #0]
 80048de:	4610      	mov	r0, r2
 80048e0:	4619      	mov	r1, r3
 80048e2:	f7fb fd93 	bl	800040c <unpack16>
 80048e6:	4603      	mov	r3, r0
 80048e8:	b29a      	uxth	r2, r3
 80048ea:	69fb      	ldr	r3, [r7, #28]
 80048ec:	f8a3 222a 	strh.w	r2, [r3, #554]	; 0x22a
 80048f0:	683b      	ldr	r3, [r7, #0]
 80048f2:	3302      	adds	r3, #2
 80048f4:	781a      	ldrb	r2, [r3, #0]
 80048f6:	683b      	ldr	r3, [r7, #0]
 80048f8:	3303      	adds	r3, #3
 80048fa:	781b      	ldrb	r3, [r3, #0]
 80048fc:	4610      	mov	r0, r2
 80048fe:	4619      	mov	r1, r3
 8004900:	f7fb fd84 	bl	800040c <unpack16>
 8004904:	4603      	mov	r3, r0
 8004906:	b29a      	uxth	r2, r3
 8004908:	69fb      	ldr	r3, [r7, #28]
 800490a:	f8a3 222c 	strh.w	r2, [r3, #556]	; 0x22c
 800490e:	683b      	ldr	r3, [r7, #0]
 8004910:	3304      	adds	r3, #4
 8004912:	781a      	ldrb	r2, [r3, #0]
 8004914:	683b      	ldr	r3, [r7, #0]
 8004916:	3305      	adds	r3, #5
 8004918:	781b      	ldrb	r3, [r3, #0]
 800491a:	4610      	mov	r0, r2
 800491c:	4619      	mov	r1, r3
 800491e:	f7fb fd75 	bl	800040c <unpack16>
 8004922:	4603      	mov	r3, r0
 8004924:	b29a      	uxth	r2, r3
 8004926:	69fb      	ldr	r3, [r7, #28]
 8004928:	f8a3 222e 	strh.w	r2, [r3, #558]	; 0x22e
 800492c:	f000 bd87 	b.w	800543e <process_write+0x239a>
        case 0xB2U: r->soft_limits.ra_imon_lim=(int16_t)unpack16(data[0],data[1]); r->soft_limits.tr_imon_lim=(int16_t)unpack16(data[2],data[3]); r->soft_limits.chg_in_lim=(int16_t)unpack16(data[4],data[5]); break;
 8004930:	683b      	ldr	r3, [r7, #0]
 8004932:	781a      	ldrb	r2, [r3, #0]
 8004934:	683b      	ldr	r3, [r7, #0]
 8004936:	3301      	adds	r3, #1
 8004938:	781b      	ldrb	r3, [r3, #0]
 800493a:	4610      	mov	r0, r2
 800493c:	4619      	mov	r1, r3
 800493e:	f7fb fd65 	bl	800040c <unpack16>
 8004942:	4603      	mov	r3, r0
 8004944:	b29a      	uxth	r2, r3
 8004946:	69fb      	ldr	r3, [r7, #28]
 8004948:	f8a3 2230 	strh.w	r2, [r3, #560]	; 0x230
 800494c:	683b      	ldr	r3, [r7, #0]
 800494e:	3302      	adds	r3, #2
 8004950:	781a      	ldrb	r2, [r3, #0]
 8004952:	683b      	ldr	r3, [r7, #0]
 8004954:	3303      	adds	r3, #3
 8004956:	781b      	ldrb	r3, [r3, #0]
 8004958:	4610      	mov	r0, r2
 800495a:	4619      	mov	r1, r3
 800495c:	f7fb fd56 	bl	800040c <unpack16>
 8004960:	4603      	mov	r3, r0
 8004962:	b29a      	uxth	r2, r3
 8004964:	69fb      	ldr	r3, [r7, #28]
 8004966:	f8a3 2232 	strh.w	r2, [r3, #562]	; 0x232
 800496a:	683b      	ldr	r3, [r7, #0]
 800496c:	3304      	adds	r3, #4
 800496e:	781a      	ldrb	r2, [r3, #0]
 8004970:	683b      	ldr	r3, [r7, #0]
 8004972:	3305      	adds	r3, #5
 8004974:	781b      	ldrb	r3, [r3, #0]
 8004976:	4610      	mov	r0, r2
 8004978:	4619      	mov	r1, r3
 800497a:	f7fb fd47 	bl	800040c <unpack16>
 800497e:	4603      	mov	r3, r0
 8004980:	b29a      	uxth	r2, r3
 8004982:	69fb      	ldr	r3, [r7, #28]
 8004984:	f8a3 2234 	strh.w	r2, [r3, #564]	; 0x234
 8004988:	f000 bd59 	b.w	800543e <process_write+0x239a>
        case 0xB3U: r->soft_limits.hv_lim=(int16_t)unpack16(data[0],data[1]); r->soft_limits.batt1_in_lim=(int16_t)unpack16(data[2],data[3]); r->soft_limits.batt2_in_lim=(int16_t)unpack16(data[4],data[5]); break;
 800498c:	683b      	ldr	r3, [r7, #0]
 800498e:	781a      	ldrb	r2, [r3, #0]
 8004990:	683b      	ldr	r3, [r7, #0]
 8004992:	3301      	adds	r3, #1
 8004994:	781b      	ldrb	r3, [r3, #0]
 8004996:	4610      	mov	r0, r2
 8004998:	4619      	mov	r1, r3
 800499a:	f7fb fd37 	bl	800040c <unpack16>
 800499e:	4603      	mov	r3, r0
 80049a0:	b29a      	uxth	r2, r3
 80049a2:	69fb      	ldr	r3, [r7, #28]
 80049a4:	f8a3 2236 	strh.w	r2, [r3, #566]	; 0x236
 80049a8:	683b      	ldr	r3, [r7, #0]
 80049aa:	3302      	adds	r3, #2
 80049ac:	781a      	ldrb	r2, [r3, #0]
 80049ae:	683b      	ldr	r3, [r7, #0]
 80049b0:	3303      	adds	r3, #3
 80049b2:	781b      	ldrb	r3, [r3, #0]
 80049b4:	4610      	mov	r0, r2
 80049b6:	4619      	mov	r1, r3
 80049b8:	f7fb fd28 	bl	800040c <unpack16>
 80049bc:	4603      	mov	r3, r0
 80049be:	b29a      	uxth	r2, r3
 80049c0:	69fb      	ldr	r3, [r7, #28]
 80049c2:	f8a3 2238 	strh.w	r2, [r3, #568]	; 0x238
 80049c6:	683b      	ldr	r3, [r7, #0]
 80049c8:	3304      	adds	r3, #4
 80049ca:	781a      	ldrb	r2, [r3, #0]
 80049cc:	683b      	ldr	r3, [r7, #0]
 80049ce:	3305      	adds	r3, #5
 80049d0:	781b      	ldrb	r3, [r3, #0]
 80049d2:	4610      	mov	r0, r2
 80049d4:	4619      	mov	r1, r3
 80049d6:	f7fb fd19 	bl	800040c <unpack16>
 80049da:	4603      	mov	r3, r0
 80049dc:	b29a      	uxth	r2, r3
 80049de:	69fb      	ldr	r3, [r7, #28]
 80049e0:	f8a3 223a 	strh.w	r2, [r3, #570]	; 0x23a
 80049e4:	f000 bd2b 	b.w	800543e <process_write+0x239a>
        case 0xB4U: r->soft_limits.nk_imon_lim=(int16_t)unpack16(data[0],data[1]); r->soft_limits.mot_bus_lim=(int16_t)unpack16(data[2],data[3]); r->soft_limits.chg_hv_lim=(int16_t)unpack16(data[4],data[5]); break;
 80049e8:	683b      	ldr	r3, [r7, #0]
 80049ea:	781a      	ldrb	r2, [r3, #0]
 80049ec:	683b      	ldr	r3, [r7, #0]
 80049ee:	3301      	adds	r3, #1
 80049f0:	781b      	ldrb	r3, [r3, #0]
 80049f2:	4610      	mov	r0, r2
 80049f4:	4619      	mov	r1, r3
 80049f6:	f7fb fd09 	bl	800040c <unpack16>
 80049fa:	4603      	mov	r3, r0
 80049fc:	b29a      	uxth	r2, r3
 80049fe:	69fb      	ldr	r3, [r7, #28]
 8004a00:	f8a3 223c 	strh.w	r2, [r3, #572]	; 0x23c
 8004a04:	683b      	ldr	r3, [r7, #0]
 8004a06:	3302      	adds	r3, #2
 8004a08:	781a      	ldrb	r2, [r3, #0]
 8004a0a:	683b      	ldr	r3, [r7, #0]
 8004a0c:	3303      	adds	r3, #3
 8004a0e:	781b      	ldrb	r3, [r3, #0]
 8004a10:	4610      	mov	r0, r2
 8004a12:	4619      	mov	r1, r3
 8004a14:	f7fb fcfa 	bl	800040c <unpack16>
 8004a18:	4603      	mov	r3, r0
 8004a1a:	b29a      	uxth	r2, r3
 8004a1c:	69fb      	ldr	r3, [r7, #28]
 8004a1e:	f8a3 223e 	strh.w	r2, [r3, #574]	; 0x23e
 8004a22:	683b      	ldr	r3, [r7, #0]
 8004a24:	3304      	adds	r3, #4
 8004a26:	781a      	ldrb	r2, [r3, #0]
 8004a28:	683b      	ldr	r3, [r7, #0]
 8004a2a:	3305      	adds	r3, #5
 8004a2c:	781b      	ldrb	r3, [r3, #0]
 8004a2e:	4610      	mov	r0, r2
 8004a30:	4619      	mov	r1, r3
 8004a32:	f7fb fceb 	bl	800040c <unpack16>
 8004a36:	4603      	mov	r3, r0
 8004a38:	b29a      	uxth	r2, r3
 8004a3a:	69fb      	ldr	r3, [r7, #28]
 8004a3c:	f8a3 2240 	strh.w	r2, [r3, #576]	; 0x240
 8004a40:	f000 bcfd 	b.w	800543e <process_write+0x239a>
        case 0xB5U: r->soft_limits.user_hv_lim=(int16_t)unpack16(data[0],data[1]); r->soft_limits.user_hv_curr_lim=(int16_t)unpack16(data[2],data[3]); break;
 8004a44:	683b      	ldr	r3, [r7, #0]
 8004a46:	781a      	ldrb	r2, [r3, #0]
 8004a48:	683b      	ldr	r3, [r7, #0]
 8004a4a:	3301      	adds	r3, #1
 8004a4c:	781b      	ldrb	r3, [r3, #0]
 8004a4e:	4610      	mov	r0, r2
 8004a50:	4619      	mov	r1, r3
 8004a52:	f7fb fcdb 	bl	800040c <unpack16>
 8004a56:	4603      	mov	r3, r0
 8004a58:	b29a      	uxth	r2, r3
 8004a5a:	69fb      	ldr	r3, [r7, #28]
 8004a5c:	f8a3 2242 	strh.w	r2, [r3, #578]	; 0x242
 8004a60:	683b      	ldr	r3, [r7, #0]
 8004a62:	3302      	adds	r3, #2
 8004a64:	781a      	ldrb	r2, [r3, #0]
 8004a66:	683b      	ldr	r3, [r7, #0]
 8004a68:	3303      	adds	r3, #3
 8004a6a:	781b      	ldrb	r3, [r3, #0]
 8004a6c:	4610      	mov	r0, r2
 8004a6e:	4619      	mov	r1, r3
 8004a70:	f7fb fccc 	bl	800040c <unpack16>
 8004a74:	4603      	mov	r3, r0
 8004a76:	b29a      	uxth	r2, r3
 8004a78:	69fb      	ldr	r3, [r7, #28]
 8004a7a:	f8a3 2244 	strh.w	r2, [r3, #580]	; 0x244
 8004a7e:	f000 bcde 	b.w	800543e <process_write+0x239a>
        case 0xB6U: r->soft_limits.pc_24v_lim=(int16_t)unpack16(data[0],data[1]); r->soft_limits.pc_24v_imon_lim=(int16_t)unpack16(data[2],data[3]); break;
 8004a82:	683b      	ldr	r3, [r7, #0]
 8004a84:	781a      	ldrb	r2, [r3, #0]
 8004a86:	683b      	ldr	r3, [r7, #0]
 8004a88:	3301      	adds	r3, #1
 8004a8a:	781b      	ldrb	r3, [r3, #0]
 8004a8c:	4610      	mov	r0, r2
 8004a8e:	4619      	mov	r1, r3
 8004a90:	f7fb fcbc 	bl	800040c <unpack16>
 8004a94:	4603      	mov	r3, r0
 8004a96:	b29a      	uxth	r2, r3
 8004a98:	69fb      	ldr	r3, [r7, #28]
 8004a9a:	f8a3 2246 	strh.w	r2, [r3, #582]	; 0x246
 8004a9e:	683b      	ldr	r3, [r7, #0]
 8004aa0:	3302      	adds	r3, #2
 8004aa2:	781a      	ldrb	r2, [r3, #0]
 8004aa4:	683b      	ldr	r3, [r7, #0]
 8004aa6:	3303      	adds	r3, #3
 8004aa8:	781b      	ldrb	r3, [r3, #0]
 8004aaa:	4610      	mov	r0, r2
 8004aac:	4619      	mov	r1, r3
 8004aae:	f7fb fcad 	bl	800040c <unpack16>
 8004ab2:	4603      	mov	r3, r0
 8004ab4:	b29a      	uxth	r2, r3
 8004ab6:	69fb      	ldr	r3, [r7, #28]
 8004ab8:	f8a3 2248 	strh.w	r2, [r3, #584]	; 0x248
 8004abc:	f000 bcbf 	b.w	800543e <process_write+0x239a>
        case 0xB7U: r->soft_limits.user_24v_lim=(int16_t)unpack16(data[0],data[1]); r->soft_limits.user_24v_imon_lim=(int16_t)unpack16(data[2],data[3]); break;
 8004ac0:	683b      	ldr	r3, [r7, #0]
 8004ac2:	781a      	ldrb	r2, [r3, #0]
 8004ac4:	683b      	ldr	r3, [r7, #0]
 8004ac6:	3301      	adds	r3, #1
 8004ac8:	781b      	ldrb	r3, [r3, #0]
 8004aca:	4610      	mov	r0, r2
 8004acc:	4619      	mov	r1, r3
 8004ace:	f7fb fc9d 	bl	800040c <unpack16>
 8004ad2:	4603      	mov	r3, r0
 8004ad4:	b29a      	uxth	r2, r3
 8004ad6:	69fb      	ldr	r3, [r7, #28]
 8004ad8:	f8a3 224a 	strh.w	r2, [r3, #586]	; 0x24a
 8004adc:	683b      	ldr	r3, [r7, #0]
 8004ade:	3302      	adds	r3, #2
 8004ae0:	781a      	ldrb	r2, [r3, #0]
 8004ae2:	683b      	ldr	r3, [r7, #0]
 8004ae4:	3303      	adds	r3, #3
 8004ae6:	781b      	ldrb	r3, [r3, #0]
 8004ae8:	4610      	mov	r0, r2
 8004aea:	4619      	mov	r1, r3
 8004aec:	f7fb fc8e 	bl	800040c <unpack16>
 8004af0:	4603      	mov	r3, r0
 8004af2:	b29a      	uxth	r2, r3
 8004af4:	69fb      	ldr	r3, [r7, #28]
 8004af6:	f8a3 224c 	strh.w	r2, [r3, #588]	; 0x24c
 8004afa:	f000 bca0 	b.w	800543e <process_write+0x239a>
        case 0xB8U: r->soft_limits.pc_a_12v_lim=(int16_t)unpack16(data[0],data[1]); r->soft_limits.pc_a_12v_imon_lim=(int16_t)unpack16(data[2],data[3]); break;
 8004afe:	683b      	ldr	r3, [r7, #0]
 8004b00:	781a      	ldrb	r2, [r3, #0]
 8004b02:	683b      	ldr	r3, [r7, #0]
 8004b04:	3301      	adds	r3, #1
 8004b06:	781b      	ldrb	r3, [r3, #0]
 8004b08:	4610      	mov	r0, r2
 8004b0a:	4619      	mov	r1, r3
 8004b0c:	f7fb fc7e 	bl	800040c <unpack16>
 8004b10:	4603      	mov	r3, r0
 8004b12:	b29a      	uxth	r2, r3
 8004b14:	69fb      	ldr	r3, [r7, #28]
 8004b16:	f8a3 224e 	strh.w	r2, [r3, #590]	; 0x24e
 8004b1a:	683b      	ldr	r3, [r7, #0]
 8004b1c:	3302      	adds	r3, #2
 8004b1e:	781a      	ldrb	r2, [r3, #0]
 8004b20:	683b      	ldr	r3, [r7, #0]
 8004b22:	3303      	adds	r3, #3
 8004b24:	781b      	ldrb	r3, [r3, #0]
 8004b26:	4610      	mov	r0, r2
 8004b28:	4619      	mov	r1, r3
 8004b2a:	f7fb fc6f 	bl	800040c <unpack16>
 8004b2e:	4603      	mov	r3, r0
 8004b30:	b29a      	uxth	r2, r3
 8004b32:	69fb      	ldr	r3, [r7, #28]
 8004b34:	f8a3 2250 	strh.w	r2, [r3, #592]	; 0x250
 8004b38:	f000 bc81 	b.w	800543e <process_write+0x239a>
        case 0xB9U: r->soft_limits.pc_b_12v_lim=(int16_t)unpack16(data[0],data[1]); r->soft_limits.pc_b_12v_imon_lim=(int16_t)unpack16(data[2],data[3]); break;
 8004b3c:	683b      	ldr	r3, [r7, #0]
 8004b3e:	781a      	ldrb	r2, [r3, #0]
 8004b40:	683b      	ldr	r3, [r7, #0]
 8004b42:	3301      	adds	r3, #1
 8004b44:	781b      	ldrb	r3, [r3, #0]
 8004b46:	4610      	mov	r0, r2
 8004b48:	4619      	mov	r1, r3
 8004b4a:	f7fb fc5f 	bl	800040c <unpack16>
 8004b4e:	4603      	mov	r3, r0
 8004b50:	b29a      	uxth	r2, r3
 8004b52:	69fb      	ldr	r3, [r7, #28]
 8004b54:	f8a3 2252 	strh.w	r2, [r3, #594]	; 0x252
 8004b58:	683b      	ldr	r3, [r7, #0]
 8004b5a:	3302      	adds	r3, #2
 8004b5c:	781a      	ldrb	r2, [r3, #0]
 8004b5e:	683b      	ldr	r3, [r7, #0]
 8004b60:	3303      	adds	r3, #3
 8004b62:	781b      	ldrb	r3, [r3, #0]
 8004b64:	4610      	mov	r0, r2
 8004b66:	4619      	mov	r1, r3
 8004b68:	f7fb fc50 	bl	800040c <unpack16>
 8004b6c:	4603      	mov	r3, r0
 8004b6e:	b29a      	uxth	r2, r3
 8004b70:	69fb      	ldr	r3, [r7, #28]
 8004b72:	f8a3 2254 	strh.w	r2, [r3, #596]	; 0x254
 8004b76:	f000 bc62 	b.w	800543e <process_write+0x239a>
        case 0xBAU: r->soft_limits.v24_imon0_lim=(int16_t)unpack16(data[0],data[1]); r->soft_limits.v24_imon1_lim=(int16_t)unpack16(data[2],data[3]); r->soft_limits.v24_imon2_lim=(int16_t)unpack16(data[4],data[5]); break;
 8004b7a:	683b      	ldr	r3, [r7, #0]
 8004b7c:	781a      	ldrb	r2, [r3, #0]
 8004b7e:	683b      	ldr	r3, [r7, #0]
 8004b80:	3301      	adds	r3, #1
 8004b82:	781b      	ldrb	r3, [r3, #0]
 8004b84:	4610      	mov	r0, r2
 8004b86:	4619      	mov	r1, r3
 8004b88:	f7fb fc40 	bl	800040c <unpack16>
 8004b8c:	4603      	mov	r3, r0
 8004b8e:	b29a      	uxth	r2, r3
 8004b90:	69fb      	ldr	r3, [r7, #28]
 8004b92:	f8a3 2256 	strh.w	r2, [r3, #598]	; 0x256
 8004b96:	683b      	ldr	r3, [r7, #0]
 8004b98:	3302      	adds	r3, #2
 8004b9a:	781a      	ldrb	r2, [r3, #0]
 8004b9c:	683b      	ldr	r3, [r7, #0]
 8004b9e:	3303      	adds	r3, #3
 8004ba0:	781b      	ldrb	r3, [r3, #0]
 8004ba2:	4610      	mov	r0, r2
 8004ba4:	4619      	mov	r1, r3
 8004ba6:	f7fb fc31 	bl	800040c <unpack16>
 8004baa:	4603      	mov	r3, r0
 8004bac:	b29a      	uxth	r2, r3
 8004bae:	69fb      	ldr	r3, [r7, #28]
 8004bb0:	f8a3 2258 	strh.w	r2, [r3, #600]	; 0x258
 8004bb4:	683b      	ldr	r3, [r7, #0]
 8004bb6:	3304      	adds	r3, #4
 8004bb8:	781a      	ldrb	r2, [r3, #0]
 8004bba:	683b      	ldr	r3, [r7, #0]
 8004bbc:	3305      	adds	r3, #5
 8004bbe:	781b      	ldrb	r3, [r3, #0]
 8004bc0:	4610      	mov	r0, r2
 8004bc2:	4619      	mov	r1, r3
 8004bc4:	f7fb fc22 	bl	800040c <unpack16>
 8004bc8:	4603      	mov	r3, r0
 8004bca:	b29a      	uxth	r2, r3
 8004bcc:	69fb      	ldr	r3, [r7, #28]
 8004bce:	f8a3 225a 	strh.w	r2, [r3, #602]	; 0x25a
 8004bd2:	f000 bc34 	b.w	800543e <process_write+0x239a>
        case 0xBBU: r->soft_limits.v12_imon0_lim=(int16_t)unpack16(data[0],data[1]); r->soft_limits.v12_imon1_lim=(int16_t)unpack16(data[2],data[3]); r->soft_limits.v12_imon2_lim=(int16_t)unpack16(data[4],data[5]); break;
 8004bd6:	683b      	ldr	r3, [r7, #0]
 8004bd8:	781a      	ldrb	r2, [r3, #0]
 8004bda:	683b      	ldr	r3, [r7, #0]
 8004bdc:	3301      	adds	r3, #1
 8004bde:	781b      	ldrb	r3, [r3, #0]
 8004be0:	4610      	mov	r0, r2
 8004be2:	4619      	mov	r1, r3
 8004be4:	f7fb fc12 	bl	800040c <unpack16>
 8004be8:	4603      	mov	r3, r0
 8004bea:	b29a      	uxth	r2, r3
 8004bec:	69fb      	ldr	r3, [r7, #28]
 8004bee:	f8a3 225c 	strh.w	r2, [r3, #604]	; 0x25c
 8004bf2:	683b      	ldr	r3, [r7, #0]
 8004bf4:	3302      	adds	r3, #2
 8004bf6:	781a      	ldrb	r2, [r3, #0]
 8004bf8:	683b      	ldr	r3, [r7, #0]
 8004bfa:	3303      	adds	r3, #3
 8004bfc:	781b      	ldrb	r3, [r3, #0]
 8004bfe:	4610      	mov	r0, r2
 8004c00:	4619      	mov	r1, r3
 8004c02:	f7fb fc03 	bl	800040c <unpack16>
 8004c06:	4603      	mov	r3, r0
 8004c08:	b29a      	uxth	r2, r3
 8004c0a:	69fb      	ldr	r3, [r7, #28]
 8004c0c:	f8a3 225e 	strh.w	r2, [r3, #606]	; 0x25e
 8004c10:	683b      	ldr	r3, [r7, #0]
 8004c12:	3304      	adds	r3, #4
 8004c14:	781a      	ldrb	r2, [r3, #0]
 8004c16:	683b      	ldr	r3, [r7, #0]
 8004c18:	3305      	adds	r3, #5
 8004c1a:	781b      	ldrb	r3, [r3, #0]
 8004c1c:	4610      	mov	r0, r2
 8004c1e:	4619      	mov	r1, r3
 8004c20:	f7fb fbf4 	bl	800040c <unpack16>
 8004c24:	4603      	mov	r3, r0
 8004c26:	b29a      	uxth	r2, r3
 8004c28:	69fb      	ldr	r3, [r7, #28]
 8004c2a:	f8a3 2260 	strh.w	r2, [r3, #608]	; 0x260
 8004c2e:	f000 bc06 	b.w	800543e <process_write+0x239a>
        case 0xBCU: r->soft_limits.v24_lim=(int16_t)unpack16(data[0],data[1]); r->soft_limits.v12_lim=(int16_t)unpack16(data[2],data[3]); break;
 8004c32:	683b      	ldr	r3, [r7, #0]
 8004c34:	781a      	ldrb	r2, [r3, #0]
 8004c36:	683b      	ldr	r3, [r7, #0]
 8004c38:	3301      	adds	r3, #1
 8004c3a:	781b      	ldrb	r3, [r3, #0]
 8004c3c:	4610      	mov	r0, r2
 8004c3e:	4619      	mov	r1, r3
 8004c40:	f7fb fbe4 	bl	800040c <unpack16>
 8004c44:	4603      	mov	r3, r0
 8004c46:	b29a      	uxth	r2, r3
 8004c48:	69fb      	ldr	r3, [r7, #28]
 8004c4a:	f8a3 2262 	strh.w	r2, [r3, #610]	; 0x262
 8004c4e:	683b      	ldr	r3, [r7, #0]
 8004c50:	3302      	adds	r3, #2
 8004c52:	781a      	ldrb	r2, [r3, #0]
 8004c54:	683b      	ldr	r3, [r7, #0]
 8004c56:	3303      	adds	r3, #3
 8004c58:	781b      	ldrb	r3, [r3, #0]
 8004c5a:	4610      	mov	r0, r2
 8004c5c:	4619      	mov	r1, r3
 8004c5e:	f7fb fbd5 	bl	800040c <unpack16>
 8004c62:	4603      	mov	r3, r0
 8004c64:	b29a      	uxth	r2, r3
 8004c66:	69fb      	ldr	r3, [r7, #28]
 8004c68:	f8a3 2264 	strh.w	r2, [r3, #612]	; 0x264
 8004c6c:	e3e7      	b.n	800543e <process_write+0x239a>
        case 0xBDU: r->soft_limits.v5_lim=(int16_t)unpack16(data[0],data[1]); r->soft_limits.v5_curr_lim=(int16_t)unpack16(data[2],data[3]); break;
 8004c6e:	683b      	ldr	r3, [r7, #0]
 8004c70:	781a      	ldrb	r2, [r3, #0]
 8004c72:	683b      	ldr	r3, [r7, #0]
 8004c74:	3301      	adds	r3, #1
 8004c76:	781b      	ldrb	r3, [r3, #0]
 8004c78:	4610      	mov	r0, r2
 8004c7a:	4619      	mov	r1, r3
 8004c7c:	f7fb fbc6 	bl	800040c <unpack16>
 8004c80:	4603      	mov	r3, r0
 8004c82:	b29a      	uxth	r2, r3
 8004c84:	69fb      	ldr	r3, [r7, #28]
 8004c86:	f8a3 2266 	strh.w	r2, [r3, #614]	; 0x266
 8004c8a:	683b      	ldr	r3, [r7, #0]
 8004c8c:	3302      	adds	r3, #2
 8004c8e:	781a      	ldrb	r2, [r3, #0]
 8004c90:	683b      	ldr	r3, [r7, #0]
 8004c92:	3303      	adds	r3, #3
 8004c94:	781b      	ldrb	r3, [r3, #0]
 8004c96:	4610      	mov	r0, r2
 8004c98:	4619      	mov	r1, r3
 8004c9a:	f7fb fbb7 	bl	800040c <unpack16>
 8004c9e:	4603      	mov	r3, r0
 8004ca0:	b29a      	uxth	r2, r3
 8004ca2:	69fb      	ldr	r3, [r7, #28]
 8004ca4:	f8a3 2268 	strh.w	r2, [r3, #616]	; 0x268
 8004ca8:	e3c9      	b.n	800543e <process_write+0x239a>
        case 0xBEU: r->soft_limits.v3v3_lim=(int16_t)unpack16(data[0],data[1]); r->soft_limits.v3v3_curr_lim=(int16_t)unpack16(data[2],data[3]); break;
 8004caa:	683b      	ldr	r3, [r7, #0]
 8004cac:	781a      	ldrb	r2, [r3, #0]
 8004cae:	683b      	ldr	r3, [r7, #0]
 8004cb0:	3301      	adds	r3, #1
 8004cb2:	781b      	ldrb	r3, [r3, #0]
 8004cb4:	4610      	mov	r0, r2
 8004cb6:	4619      	mov	r1, r3
 8004cb8:	f7fb fba8 	bl	800040c <unpack16>
 8004cbc:	4603      	mov	r3, r0
 8004cbe:	b29a      	uxth	r2, r3
 8004cc0:	69fb      	ldr	r3, [r7, #28]
 8004cc2:	f8a3 226a 	strh.w	r2, [r3, #618]	; 0x26a
 8004cc6:	683b      	ldr	r3, [r7, #0]
 8004cc8:	3302      	adds	r3, #2
 8004cca:	781a      	ldrb	r2, [r3, #0]
 8004ccc:	683b      	ldr	r3, [r7, #0]
 8004cce:	3303      	adds	r3, #3
 8004cd0:	781b      	ldrb	r3, [r3, #0]
 8004cd2:	4610      	mov	r0, r2
 8004cd4:	4619      	mov	r1, r3
 8004cd6:	f7fb fb99 	bl	800040c <unpack16>
 8004cda:	4603      	mov	r3, r0
 8004cdc:	b29a      	uxth	r2, r3
 8004cde:	69fb      	ldr	r3, [r7, #28]
 8004ce0:	f8a3 226c 	strh.w	r2, [r3, #620]	; 0x26c
 8004ce4:	e3ab      	b.n	800543e <process_write+0x239a>
        case 0xBFU: r->soft_limits.aux_24v_lim=(int16_t)unpack16(data[0],data[1]); r->soft_limits.aux_24v_curr_lim=(int16_t)unpack16(data[2],data[3]); break;
 8004ce6:	683b      	ldr	r3, [r7, #0]
 8004ce8:	781a      	ldrb	r2, [r3, #0]
 8004cea:	683b      	ldr	r3, [r7, #0]
 8004cec:	3301      	adds	r3, #1
 8004cee:	781b      	ldrb	r3, [r3, #0]
 8004cf0:	4610      	mov	r0, r2
 8004cf2:	4619      	mov	r1, r3
 8004cf4:	f7fb fb8a 	bl	800040c <unpack16>
 8004cf8:	4603      	mov	r3, r0
 8004cfa:	b29a      	uxth	r2, r3
 8004cfc:	69fb      	ldr	r3, [r7, #28]
 8004cfe:	f8a3 226e 	strh.w	r2, [r3, #622]	; 0x26e
 8004d02:	683b      	ldr	r3, [r7, #0]
 8004d04:	3302      	adds	r3, #2
 8004d06:	781a      	ldrb	r2, [r3, #0]
 8004d08:	683b      	ldr	r3, [r7, #0]
 8004d0a:	3303      	adds	r3, #3
 8004d0c:	781b      	ldrb	r3, [r3, #0]
 8004d0e:	4610      	mov	r0, r2
 8004d10:	4619      	mov	r1, r3
 8004d12:	f7fb fb7b 	bl	800040c <unpack16>
 8004d16:	4603      	mov	r3, r0
 8004d18:	b29a      	uxth	r2, r3
 8004d1a:	69fb      	ldr	r3, [r7, #28]
 8004d1c:	f8a3 2270 	strh.w	r2, [r3, #624]	; 0x270
 8004d20:	e38d      	b.n	800543e <process_write+0x239a>
        case 0xC0U: r->soft_limits.aux_12v_lim=(int16_t)unpack16(data[0],data[1]); r->soft_limits.aux_12v_curr_lim=(int16_t)unpack16(data[2],data[3]); break;
 8004d22:	683b      	ldr	r3, [r7, #0]
 8004d24:	781a      	ldrb	r2, [r3, #0]
 8004d26:	683b      	ldr	r3, [r7, #0]
 8004d28:	3301      	adds	r3, #1
 8004d2a:	781b      	ldrb	r3, [r3, #0]
 8004d2c:	4610      	mov	r0, r2
 8004d2e:	4619      	mov	r1, r3
 8004d30:	f7fb fb6c 	bl	800040c <unpack16>
 8004d34:	4603      	mov	r3, r0
 8004d36:	b29a      	uxth	r2, r3
 8004d38:	69fb      	ldr	r3, [r7, #28]
 8004d3a:	f8a3 2272 	strh.w	r2, [r3, #626]	; 0x272
 8004d3e:	683b      	ldr	r3, [r7, #0]
 8004d40:	3302      	adds	r3, #2
 8004d42:	781a      	ldrb	r2, [r3, #0]
 8004d44:	683b      	ldr	r3, [r7, #0]
 8004d46:	3303      	adds	r3, #3
 8004d48:	781b      	ldrb	r3, [r3, #0]
 8004d4a:	4610      	mov	r0, r2
 8004d4c:	4619      	mov	r1, r3
 8004d4e:	f7fb fb5d 	bl	800040c <unpack16>
 8004d52:	4603      	mov	r3, r0
 8004d54:	b29a      	uxth	r2, r3
 8004d56:	69fb      	ldr	r3, [r7, #28]
 8004d58:	f8a3 2274 	strh.w	r2, [r3, #628]	; 0x274
 8004d5c:	e36f      	b.n	800543e <process_write+0x239a>
        case 0xC1U: r->soft_limits.estop_rec_a_12v_lim=(int16_t)unpack16(data[0],data[1]); r->soft_limits.estop_rec_b_12v_lim=(int16_t)unpack16(data[2],data[3]); break;
 8004d5e:	683b      	ldr	r3, [r7, #0]
 8004d60:	781a      	ldrb	r2, [r3, #0]
 8004d62:	683b      	ldr	r3, [r7, #0]
 8004d64:	3301      	adds	r3, #1
 8004d66:	781b      	ldrb	r3, [r3, #0]
 8004d68:	4610      	mov	r0, r2
 8004d6a:	4619      	mov	r1, r3
 8004d6c:	f7fb fb4e 	bl	800040c <unpack16>
 8004d70:	4603      	mov	r3, r0
 8004d72:	b29a      	uxth	r2, r3
 8004d74:	69fb      	ldr	r3, [r7, #28]
 8004d76:	f8a3 2276 	strh.w	r2, [r3, #630]	; 0x276
 8004d7a:	683b      	ldr	r3, [r7, #0]
 8004d7c:	3302      	adds	r3, #2
 8004d7e:	781a      	ldrb	r2, [r3, #0]
 8004d80:	683b      	ldr	r3, [r7, #0]
 8004d82:	3303      	adds	r3, #3
 8004d84:	781b      	ldrb	r3, [r3, #0]
 8004d86:	4610      	mov	r0, r2
 8004d88:	4619      	mov	r1, r3
 8004d8a:	f7fb fb3f 	bl	800040c <unpack16>
 8004d8e:	4603      	mov	r3, r0
 8004d90:	b29a      	uxth	r2, r3
 8004d92:	69fb      	ldr	r3, [r7, #28]
 8004d94:	f8a3 2278 	strh.w	r2, [r3, #632]	; 0x278
 8004d98:	e351      	b.n	800543e <process_write+0x239a>
        case 0xC2U: r->soft_limits.v12_b_imon3_lim=(int16_t)unpack16(data[0],data[1]); r->soft_limits.v12_b_imon4_lim=(int16_t)unpack16(data[2],data[3]); break;
 8004d9a:	683b      	ldr	r3, [r7, #0]
 8004d9c:	781a      	ldrb	r2, [r3, #0]
 8004d9e:	683b      	ldr	r3, [r7, #0]
 8004da0:	3301      	adds	r3, #1
 8004da2:	781b      	ldrb	r3, [r3, #0]
 8004da4:	4610      	mov	r0, r2
 8004da6:	4619      	mov	r1, r3
 8004da8:	f7fb fb30 	bl	800040c <unpack16>
 8004dac:	4603      	mov	r3, r0
 8004dae:	b29a      	uxth	r2, r3
 8004db0:	69fb      	ldr	r3, [r7, #28]
 8004db2:	f8a3 227a 	strh.w	r2, [r3, #634]	; 0x27a
 8004db6:	683b      	ldr	r3, [r7, #0]
 8004db8:	3302      	adds	r3, #2
 8004dba:	781a      	ldrb	r2, [r3, #0]
 8004dbc:	683b      	ldr	r3, [r7, #0]
 8004dbe:	3303      	adds	r3, #3
 8004dc0:	781b      	ldrb	r3, [r3, #0]
 8004dc2:	4610      	mov	r0, r2
 8004dc4:	4619      	mov	r1, r3
 8004dc6:	f7fb fb21 	bl	800040c <unpack16>
 8004dca:	4603      	mov	r3, r0
 8004dcc:	b29a      	uxth	r2, r3
 8004dce:	69fb      	ldr	r3, [r7, #28]
 8004dd0:	f8a3 227c 	strh.w	r2, [r3, #636]	; 0x27c
 8004dd4:	e333      	b.n	800543e <process_write+0x239a>
        case 0xC3U: r->soft_limits.hv_or_lim=(int16_t)unpack16(data[0],data[1]); r->soft_limits.mb_sp_imon_lim=(int16_t)unpack16(data[2],data[3]); break;
 8004dd6:	683b      	ldr	r3, [r7, #0]
 8004dd8:	781a      	ldrb	r2, [r3, #0]
 8004dda:	683b      	ldr	r3, [r7, #0]
 8004ddc:	3301      	adds	r3, #1
 8004dde:	781b      	ldrb	r3, [r3, #0]
 8004de0:	4610      	mov	r0, r2
 8004de2:	4619      	mov	r1, r3
 8004de4:	f7fb fb12 	bl	800040c <unpack16>
 8004de8:	4603      	mov	r3, r0
 8004dea:	b29a      	uxth	r2, r3
 8004dec:	69fb      	ldr	r3, [r7, #28]
 8004dee:	f8a3 227e 	strh.w	r2, [r3, #638]	; 0x27e
 8004df2:	683b      	ldr	r3, [r7, #0]
 8004df4:	3302      	adds	r3, #2
 8004df6:	781a      	ldrb	r2, [r3, #0]
 8004df8:	683b      	ldr	r3, [r7, #0]
 8004dfa:	3303      	adds	r3, #3
 8004dfc:	781b      	ldrb	r3, [r3, #0]
 8004dfe:	4610      	mov	r0, r2
 8004e00:	4619      	mov	r1, r3
 8004e02:	f7fb fb03 	bl	800040c <unpack16>
 8004e06:	4603      	mov	r3, r0
 8004e08:	b29a      	uxth	r2, r3
 8004e0a:	69fb      	ldr	r3, [r7, #28]
 8004e0c:	f8a3 2280 	strh.w	r2, [r3, #640]	; 0x280
 8004e10:	e315      	b.n	800543e <process_write+0x239a>
        case 0xC4U: r->soft_limits.temp0_plim=(int16_t)unpack16(data[0],data[1]); r->soft_limits.temp1_plim=(int16_t)unpack16(data[2],data[3]); r->soft_limits.temp2_plim=(int16_t)unpack16(data[4],data[5]); break;
 8004e12:	683b      	ldr	r3, [r7, #0]
 8004e14:	781a      	ldrb	r2, [r3, #0]
 8004e16:	683b      	ldr	r3, [r7, #0]
 8004e18:	3301      	adds	r3, #1
 8004e1a:	781b      	ldrb	r3, [r3, #0]
 8004e1c:	4610      	mov	r0, r2
 8004e1e:	4619      	mov	r1, r3
 8004e20:	f7fb faf4 	bl	800040c <unpack16>
 8004e24:	4603      	mov	r3, r0
 8004e26:	b29a      	uxth	r2, r3
 8004e28:	69fb      	ldr	r3, [r7, #28]
 8004e2a:	f8a3 2282 	strh.w	r2, [r3, #642]	; 0x282
 8004e2e:	683b      	ldr	r3, [r7, #0]
 8004e30:	3302      	adds	r3, #2
 8004e32:	781a      	ldrb	r2, [r3, #0]
 8004e34:	683b      	ldr	r3, [r7, #0]
 8004e36:	3303      	adds	r3, #3
 8004e38:	781b      	ldrb	r3, [r3, #0]
 8004e3a:	4610      	mov	r0, r2
 8004e3c:	4619      	mov	r1, r3
 8004e3e:	f7fb fae5 	bl	800040c <unpack16>
 8004e42:	4603      	mov	r3, r0
 8004e44:	b29a      	uxth	r2, r3
 8004e46:	69fb      	ldr	r3, [r7, #28]
 8004e48:	f8a3 2284 	strh.w	r2, [r3, #644]	; 0x284
 8004e4c:	683b      	ldr	r3, [r7, #0]
 8004e4e:	3304      	adds	r3, #4
 8004e50:	781a      	ldrb	r2, [r3, #0]
 8004e52:	683b      	ldr	r3, [r7, #0]
 8004e54:	3305      	adds	r3, #5
 8004e56:	781b      	ldrb	r3, [r3, #0]
 8004e58:	4610      	mov	r0, r2
 8004e5a:	4619      	mov	r1, r3
 8004e5c:	f7fb fad6 	bl	800040c <unpack16>
 8004e60:	4603      	mov	r3, r0
 8004e62:	b29a      	uxth	r2, r3
 8004e64:	69fb      	ldr	r3, [r7, #28]
 8004e66:	f8a3 2286 	strh.w	r2, [r3, #646]	; 0x286
 8004e6a:	e2e8      	b.n	800543e <process_write+0x239a>
        case 0xC5U: r->soft_limits.temp3_plim=(int16_t)unpack16(data[0],data[1]); r->soft_limits.temp4_plim=(int16_t)unpack16(data[2],data[3]); r->soft_limits.temp5_plim=(int16_t)unpack16(data[4],data[5]); break;
 8004e6c:	683b      	ldr	r3, [r7, #0]
 8004e6e:	781a      	ldrb	r2, [r3, #0]
 8004e70:	683b      	ldr	r3, [r7, #0]
 8004e72:	3301      	adds	r3, #1
 8004e74:	781b      	ldrb	r3, [r3, #0]
 8004e76:	4610      	mov	r0, r2
 8004e78:	4619      	mov	r1, r3
 8004e7a:	f7fb fac7 	bl	800040c <unpack16>
 8004e7e:	4603      	mov	r3, r0
 8004e80:	b29a      	uxth	r2, r3
 8004e82:	69fb      	ldr	r3, [r7, #28]
 8004e84:	f8a3 2288 	strh.w	r2, [r3, #648]	; 0x288
 8004e88:	683b      	ldr	r3, [r7, #0]
 8004e8a:	3302      	adds	r3, #2
 8004e8c:	781a      	ldrb	r2, [r3, #0]
 8004e8e:	683b      	ldr	r3, [r7, #0]
 8004e90:	3303      	adds	r3, #3
 8004e92:	781b      	ldrb	r3, [r3, #0]
 8004e94:	4610      	mov	r0, r2
 8004e96:	4619      	mov	r1, r3
 8004e98:	f7fb fab8 	bl	800040c <unpack16>
 8004e9c:	4603      	mov	r3, r0
 8004e9e:	b29a      	uxth	r2, r3
 8004ea0:	69fb      	ldr	r3, [r7, #28]
 8004ea2:	f8a3 228a 	strh.w	r2, [r3, #650]	; 0x28a
 8004ea6:	683b      	ldr	r3, [r7, #0]
 8004ea8:	3304      	adds	r3, #4
 8004eaa:	781a      	ldrb	r2, [r3, #0]
 8004eac:	683b      	ldr	r3, [r7, #0]
 8004eae:	3305      	adds	r3, #5
 8004eb0:	781b      	ldrb	r3, [r3, #0]
 8004eb2:	4610      	mov	r0, r2
 8004eb4:	4619      	mov	r1, r3
 8004eb6:	f7fb faa9 	bl	800040c <unpack16>
 8004eba:	4603      	mov	r3, r0
 8004ebc:	b29a      	uxth	r2, r3
 8004ebe:	69fb      	ldr	r3, [r7, #28]
 8004ec0:	f8a3 228c 	strh.w	r2, [r3, #652]	; 0x28c
 8004ec4:	e2bb      	b.n	800543e <process_write+0x239a>
        case 0xC6U: r->soft_limits.ex_temp0_plim=(int16_t)unpack16(data[0],data[1]); r->soft_limits.ex_temp1_plim=(int16_t)unpack16(data[2],data[3]); break;
 8004ec6:	683b      	ldr	r3, [r7, #0]
 8004ec8:	781a      	ldrb	r2, [r3, #0]
 8004eca:	683b      	ldr	r3, [r7, #0]
 8004ecc:	3301      	adds	r3, #1
 8004ece:	781b      	ldrb	r3, [r3, #0]
 8004ed0:	4610      	mov	r0, r2
 8004ed2:	4619      	mov	r1, r3
 8004ed4:	f7fb fa9a 	bl	800040c <unpack16>
 8004ed8:	4603      	mov	r3, r0
 8004eda:	b29a      	uxth	r2, r3
 8004edc:	69fb      	ldr	r3, [r7, #28]
 8004ede:	f8a3 228e 	strh.w	r2, [r3, #654]	; 0x28e
 8004ee2:	683b      	ldr	r3, [r7, #0]
 8004ee4:	3302      	adds	r3, #2
 8004ee6:	781a      	ldrb	r2, [r3, #0]
 8004ee8:	683b      	ldr	r3, [r7, #0]
 8004eea:	3303      	adds	r3, #3
 8004eec:	781b      	ldrb	r3, [r3, #0]
 8004eee:	4610      	mov	r0, r2
 8004ef0:	4619      	mov	r1, r3
 8004ef2:	f7fb fa8b 	bl	800040c <unpack16>
 8004ef6:	4603      	mov	r3, r0
 8004ef8:	b29a      	uxth	r2, r3
 8004efa:	69fb      	ldr	r3, [r7, #28]
 8004efc:	f8a3 2290 	strh.w	r2, [r3, #656]	; 0x290
 8004f00:	e29d      	b.n	800543e <process_write+0x239a>
        case 0xC7U: r->soft_limits.lidar_a_12v_lim=(int16_t)unpack16(data[0],data[1]); r->soft_limits.lidar_b_12v_lim=(int16_t)unpack16(data[2],data[3]); break;
 8004f02:	683b      	ldr	r3, [r7, #0]
 8004f04:	781a      	ldrb	r2, [r3, #0]
 8004f06:	683b      	ldr	r3, [r7, #0]
 8004f08:	3301      	adds	r3, #1
 8004f0a:	781b      	ldrb	r3, [r3, #0]
 8004f0c:	4610      	mov	r0, r2
 8004f0e:	4619      	mov	r1, r3
 8004f10:	f7fb fa7c 	bl	800040c <unpack16>
 8004f14:	4603      	mov	r3, r0
 8004f16:	b29a      	uxth	r2, r3
 8004f18:	69fb      	ldr	r3, [r7, #28]
 8004f1a:	f8a3 2292 	strh.w	r2, [r3, #658]	; 0x292
 8004f1e:	683b      	ldr	r3, [r7, #0]
 8004f20:	3302      	adds	r3, #2
 8004f22:	781a      	ldrb	r2, [r3, #0]
 8004f24:	683b      	ldr	r3, [r7, #0]
 8004f26:	3303      	adds	r3, #3
 8004f28:	781b      	ldrb	r3, [r3, #0]
 8004f2a:	4610      	mov	r0, r2
 8004f2c:	4619      	mov	r1, r3
 8004f2e:	f7fb fa6d 	bl	800040c <unpack16>
 8004f32:	4603      	mov	r3, r0
 8004f34:	b29a      	uxth	r2, r3
 8004f36:	69fb      	ldr	r3, [r7, #28]
 8004f38:	f8a3 2294 	strh.w	r2, [r3, #660]	; 0x294
 8004f3c:	e27f      	b.n	800543e <process_write+0x239a>
        case 0xC8U: r->soft_limits.sto_24v_lim=(int16_t)unpack16(data[0],data[1]); r->soft_limits.chg_hvil_out_lim=(int16_t)unpack16(data[2],data[3]); break;
 8004f3e:	683b      	ldr	r3, [r7, #0]
 8004f40:	781a      	ldrb	r2, [r3, #0]
 8004f42:	683b      	ldr	r3, [r7, #0]
 8004f44:	3301      	adds	r3, #1
 8004f46:	781b      	ldrb	r3, [r3, #0]
 8004f48:	4610      	mov	r0, r2
 8004f4a:	4619      	mov	r1, r3
 8004f4c:	f7fb fa5e 	bl	800040c <unpack16>
 8004f50:	4603      	mov	r3, r0
 8004f52:	b29a      	uxth	r2, r3
 8004f54:	69fb      	ldr	r3, [r7, #28]
 8004f56:	f8a3 2296 	strh.w	r2, [r3, #662]	; 0x296
 8004f5a:	683b      	ldr	r3, [r7, #0]
 8004f5c:	3302      	adds	r3, #2
 8004f5e:	781a      	ldrb	r2, [r3, #0]
 8004f60:	683b      	ldr	r3, [r7, #0]
 8004f62:	3303      	adds	r3, #3
 8004f64:	781b      	ldrb	r3, [r3, #0]
 8004f66:	4610      	mov	r0, r2
 8004f68:	4619      	mov	r1, r3
 8004f6a:	f7fb fa4f 	bl	800040c <unpack16>
 8004f6e:	4603      	mov	r3, r0
 8004f70:	b29a      	uxth	r2, r3
 8004f72:	69fb      	ldr	r3, [r7, #28]
 8004f74:	f8a3 2298 	strh.w	r2, [r3, #664]	; 0x298
 8004f78:	e261      	b.n	800543e <process_write+0x239a>
        case 0xC9U: r->soft_limits.eth_2v5_lim=(int16_t)unpack16(data[0],data[1]); r->soft_limits.eth_1v2_lim=(int16_t)unpack16(data[2],data[3]); break;
 8004f7a:	683b      	ldr	r3, [r7, #0]
 8004f7c:	781a      	ldrb	r2, [r3, #0]
 8004f7e:	683b      	ldr	r3, [r7, #0]
 8004f80:	3301      	adds	r3, #1
 8004f82:	781b      	ldrb	r3, [r3, #0]
 8004f84:	4610      	mov	r0, r2
 8004f86:	4619      	mov	r1, r3
 8004f88:	f7fb fa40 	bl	800040c <unpack16>
 8004f8c:	4603      	mov	r3, r0
 8004f8e:	b29a      	uxth	r2, r3
 8004f90:	69fb      	ldr	r3, [r7, #28]
 8004f92:	f8a3 229a 	strh.w	r2, [r3, #666]	; 0x29a
 8004f96:	683b      	ldr	r3, [r7, #0]
 8004f98:	3302      	adds	r3, #2
 8004f9a:	781a      	ldrb	r2, [r3, #0]
 8004f9c:	683b      	ldr	r3, [r7, #0]
 8004f9e:	3303      	adds	r3, #3
 8004fa0:	781b      	ldrb	r3, [r3, #0]
 8004fa2:	4610      	mov	r0, r2
 8004fa4:	4619      	mov	r1, r3
 8004fa6:	f7fb fa31 	bl	800040c <unpack16>
 8004faa:	4603      	mov	r3, r0
 8004fac:	b29a      	uxth	r2, r3
 8004fae:	69fb      	ldr	r3, [r7, #28]
 8004fb0:	f8a3 229c 	strh.w	r2, [r3, #668]	; 0x29c
 8004fb4:	e243      	b.n	800543e <process_write+0x239a>
        case 0xCAU: r->soft_limits.ecat_3v3_lim=(int16_t)unpack16(data[0],data[1]); r->soft_limits.ecat_1v2_lim=(int16_t)unpack16(data[2],data[3]); break;
 8004fb6:	683b      	ldr	r3, [r7, #0]
 8004fb8:	781a      	ldrb	r2, [r3, #0]
 8004fba:	683b      	ldr	r3, [r7, #0]
 8004fbc:	3301      	adds	r3, #1
 8004fbe:	781b      	ldrb	r3, [r3, #0]
 8004fc0:	4610      	mov	r0, r2
 8004fc2:	4619      	mov	r1, r3
 8004fc4:	f7fb fa22 	bl	800040c <unpack16>
 8004fc8:	4603      	mov	r3, r0
 8004fca:	b29a      	uxth	r2, r3
 8004fcc:	69fb      	ldr	r3, [r7, #28]
 8004fce:	f8a3 229e 	strh.w	r2, [r3, #670]	; 0x29e
 8004fd2:	683b      	ldr	r3, [r7, #0]
 8004fd4:	3302      	adds	r3, #2
 8004fd6:	781a      	ldrb	r2, [r3, #0]
 8004fd8:	683b      	ldr	r3, [r7, #0]
 8004fda:	3303      	adds	r3, #3
 8004fdc:	781b      	ldrb	r3, [r3, #0]
 8004fde:	4610      	mov	r0, r2
 8004fe0:	4619      	mov	r1, r3
 8004fe2:	f7fb fa13 	bl	800040c <unpack16>
 8004fe6:	4603      	mov	r3, r0
 8004fe8:	b29a      	uxth	r2, r3
 8004fea:	69fb      	ldr	r3, [r7, #28]
 8004fec:	f8a3 22a0 	strh.w	r2, [r3, #672]	; 0x2a0
 8004ff0:	e225      	b.n	800543e <process_write+0x239a>
        case 0xCBU: r->soft_limits.v12_a_total_curr_lim=(int16_t)unpack16(data[0],data[1]); r->soft_limits.v12_b_total_curr_lim=(int16_t)unpack16(data[2],data[3]); r->soft_limits.v24_total_curr_lim=(int16_t)unpack16(data[4],data[5]); break;
 8004ff2:	683b      	ldr	r3, [r7, #0]
 8004ff4:	781a      	ldrb	r2, [r3, #0]
 8004ff6:	683b      	ldr	r3, [r7, #0]
 8004ff8:	3301      	adds	r3, #1
 8004ffa:	781b      	ldrb	r3, [r3, #0]
 8004ffc:	4610      	mov	r0, r2
 8004ffe:	4619      	mov	r1, r3
 8005000:	f7fb fa04 	bl	800040c <unpack16>
 8005004:	4603      	mov	r3, r0
 8005006:	b29a      	uxth	r2, r3
 8005008:	69fb      	ldr	r3, [r7, #28]
 800500a:	f8a3 22a2 	strh.w	r2, [r3, #674]	; 0x2a2
 800500e:	683b      	ldr	r3, [r7, #0]
 8005010:	3302      	adds	r3, #2
 8005012:	781a      	ldrb	r2, [r3, #0]
 8005014:	683b      	ldr	r3, [r7, #0]
 8005016:	3303      	adds	r3, #3
 8005018:	781b      	ldrb	r3, [r3, #0]
 800501a:	4610      	mov	r0, r2
 800501c:	4619      	mov	r1, r3
 800501e:	f7fb f9f5 	bl	800040c <unpack16>
 8005022:	4603      	mov	r3, r0
 8005024:	b29a      	uxth	r2, r3
 8005026:	69fb      	ldr	r3, [r7, #28]
 8005028:	f8a3 22a4 	strh.w	r2, [r3, #676]	; 0x2a4
 800502c:	683b      	ldr	r3, [r7, #0]
 800502e:	3304      	adds	r3, #4
 8005030:	781a      	ldrb	r2, [r3, #0]
 8005032:	683b      	ldr	r3, [r7, #0]
 8005034:	3305      	adds	r3, #5
 8005036:	781b      	ldrb	r3, [r3, #0]
 8005038:	4610      	mov	r0, r2
 800503a:	4619      	mov	r1, r3
 800503c:	f7fb f9e6 	bl	800040c <unpack16>
 8005040:	4603      	mov	r3, r0
 8005042:	b29a      	uxth	r2, r3
 8005044:	69fb      	ldr	r3, [r7, #28]
 8005046:	f8a3 22a6 	strh.w	r2, [r3, #678]	; 0x2a6
 800504a:	e1f8      	b.n	800543e <process_write+0x239a>
        case 0xCCU: r->soft_limits.batt1_curr_nlim=(int16_t)unpack16(data[2],data[3]); r->soft_limits.batt2_curr_nlim=(int16_t)unpack16(data[4],data[5]); break;
 800504c:	683b      	ldr	r3, [r7, #0]
 800504e:	3302      	adds	r3, #2
 8005050:	781a      	ldrb	r2, [r3, #0]
 8005052:	683b      	ldr	r3, [r7, #0]
 8005054:	3303      	adds	r3, #3
 8005056:	781b      	ldrb	r3, [r3, #0]
 8005058:	4610      	mov	r0, r2
 800505a:	4619      	mov	r1, r3
 800505c:	f7fb f9d6 	bl	800040c <unpack16>
 8005060:	4603      	mov	r3, r0
 8005062:	b29a      	uxth	r2, r3
 8005064:	69fb      	ldr	r3, [r7, #28]
 8005066:	f8a3 22a8 	strh.w	r2, [r3, #680]	; 0x2a8
 800506a:	683b      	ldr	r3, [r7, #0]
 800506c:	3304      	adds	r3, #4
 800506e:	781a      	ldrb	r2, [r3, #0]
 8005070:	683b      	ldr	r3, [r7, #0]
 8005072:	3305      	adds	r3, #5
 8005074:	781b      	ldrb	r3, [r3, #0]
 8005076:	4610      	mov	r0, r2
 8005078:	4619      	mov	r1, r3
 800507a:	f7fb f9c7 	bl	800040c <unpack16>
 800507e:	4603      	mov	r3, r0
 8005080:	b29a      	uxth	r2, r3
 8005082:	69fb      	ldr	r3, [r7, #28]
 8005084:	f8a3 22aa 	strh.w	r2, [r3, #682]	; 0x2aa
 8005088:	e1d9      	b.n	800543e <process_write+0x239a>
        case 0xCDU: r->soft_limits.temp0_nlim=(int16_t)unpack16(data[0],data[1]); r->soft_limits.temp1_nlim=(int16_t)unpack16(data[2],data[3]); r->soft_limits.temp2_nlim=(int16_t)unpack16(data[4],data[5]); break;
 800508a:	683b      	ldr	r3, [r7, #0]
 800508c:	781a      	ldrb	r2, [r3, #0]
 800508e:	683b      	ldr	r3, [r7, #0]
 8005090:	3301      	adds	r3, #1
 8005092:	781b      	ldrb	r3, [r3, #0]
 8005094:	4610      	mov	r0, r2
 8005096:	4619      	mov	r1, r3
 8005098:	f7fb f9b8 	bl	800040c <unpack16>
 800509c:	4603      	mov	r3, r0
 800509e:	b29a      	uxth	r2, r3
 80050a0:	69fb      	ldr	r3, [r7, #28]
 80050a2:	f8a3 22ac 	strh.w	r2, [r3, #684]	; 0x2ac
 80050a6:	683b      	ldr	r3, [r7, #0]
 80050a8:	3302      	adds	r3, #2
 80050aa:	781a      	ldrb	r2, [r3, #0]
 80050ac:	683b      	ldr	r3, [r7, #0]
 80050ae:	3303      	adds	r3, #3
 80050b0:	781b      	ldrb	r3, [r3, #0]
 80050b2:	4610      	mov	r0, r2
 80050b4:	4619      	mov	r1, r3
 80050b6:	f7fb f9a9 	bl	800040c <unpack16>
 80050ba:	4603      	mov	r3, r0
 80050bc:	b29a      	uxth	r2, r3
 80050be:	69fb      	ldr	r3, [r7, #28]
 80050c0:	f8a3 22ae 	strh.w	r2, [r3, #686]	; 0x2ae
 80050c4:	683b      	ldr	r3, [r7, #0]
 80050c6:	3304      	adds	r3, #4
 80050c8:	781a      	ldrb	r2, [r3, #0]
 80050ca:	683b      	ldr	r3, [r7, #0]
 80050cc:	3305      	adds	r3, #5
 80050ce:	781b      	ldrb	r3, [r3, #0]
 80050d0:	4610      	mov	r0, r2
 80050d2:	4619      	mov	r1, r3
 80050d4:	f7fb f99a 	bl	800040c <unpack16>
 80050d8:	4603      	mov	r3, r0
 80050da:	b29a      	uxth	r2, r3
 80050dc:	69fb      	ldr	r3, [r7, #28]
 80050de:	f8a3 22b0 	strh.w	r2, [r3, #688]	; 0x2b0
 80050e2:	e1ac      	b.n	800543e <process_write+0x239a>
        case 0xCEU: r->soft_limits.temp3_nlim=(int16_t)unpack16(data[0],data[1]); r->soft_limits.temp4_nlim=(int16_t)unpack16(data[2],data[3]); r->soft_limits.temp5_nlim=(int16_t)unpack16(data[4],data[5]); break;
 80050e4:	683b      	ldr	r3, [r7, #0]
 80050e6:	781a      	ldrb	r2, [r3, #0]
 80050e8:	683b      	ldr	r3, [r7, #0]
 80050ea:	3301      	adds	r3, #1
 80050ec:	781b      	ldrb	r3, [r3, #0]
 80050ee:	4610      	mov	r0, r2
 80050f0:	4619      	mov	r1, r3
 80050f2:	f7fb f98b 	bl	800040c <unpack16>
 80050f6:	4603      	mov	r3, r0
 80050f8:	b29a      	uxth	r2, r3
 80050fa:	69fb      	ldr	r3, [r7, #28]
 80050fc:	f8a3 22b2 	strh.w	r2, [r3, #690]	; 0x2b2
 8005100:	683b      	ldr	r3, [r7, #0]
 8005102:	3302      	adds	r3, #2
 8005104:	781a      	ldrb	r2, [r3, #0]
 8005106:	683b      	ldr	r3, [r7, #0]
 8005108:	3303      	adds	r3, #3
 800510a:	781b      	ldrb	r3, [r3, #0]
 800510c:	4610      	mov	r0, r2
 800510e:	4619      	mov	r1, r3
 8005110:	f7fb f97c 	bl	800040c <unpack16>
 8005114:	4603      	mov	r3, r0
 8005116:	b29a      	uxth	r2, r3
 8005118:	69fb      	ldr	r3, [r7, #28]
 800511a:	f8a3 22b4 	strh.w	r2, [r3, #692]	; 0x2b4
 800511e:	683b      	ldr	r3, [r7, #0]
 8005120:	3304      	adds	r3, #4
 8005122:	781a      	ldrb	r2, [r3, #0]
 8005124:	683b      	ldr	r3, [r7, #0]
 8005126:	3305      	adds	r3, #5
 8005128:	781b      	ldrb	r3, [r3, #0]
 800512a:	4610      	mov	r0, r2
 800512c:	4619      	mov	r1, r3
 800512e:	f7fb f96d 	bl	800040c <unpack16>
 8005132:	4603      	mov	r3, r0
 8005134:	b29a      	uxth	r2, r3
 8005136:	69fb      	ldr	r3, [r7, #28]
 8005138:	f8a3 22b6 	strh.w	r2, [r3, #694]	; 0x2b6
 800513c:	e17f      	b.n	800543e <process_write+0x239a>
        case 0xCFU: r->soft_limits.ex_temp0_nlim=(int16_t)unpack16(data[0],data[1]); r->soft_limits.ex_temp1_nlim=(int16_t)unpack16(data[2],data[3]); break;
 800513e:	683b      	ldr	r3, [r7, #0]
 8005140:	781a      	ldrb	r2, [r3, #0]
 8005142:	683b      	ldr	r3, [r7, #0]
 8005144:	3301      	adds	r3, #1
 8005146:	781b      	ldrb	r3, [r3, #0]
 8005148:	4610      	mov	r0, r2
 800514a:	4619      	mov	r1, r3
 800514c:	f7fb f95e 	bl	800040c <unpack16>
 8005150:	4603      	mov	r3, r0
 8005152:	b29a      	uxth	r2, r3
 8005154:	69fb      	ldr	r3, [r7, #28]
 8005156:	f8a3 22b8 	strh.w	r2, [r3, #696]	; 0x2b8
 800515a:	683b      	ldr	r3, [r7, #0]
 800515c:	3302      	adds	r3, #2
 800515e:	781a      	ldrb	r2, [r3, #0]
 8005160:	683b      	ldr	r3, [r7, #0]
 8005162:	3303      	adds	r3, #3
 8005164:	781b      	ldrb	r3, [r3, #0]
 8005166:	4610      	mov	r0, r2
 8005168:	4619      	mov	r1, r3
 800516a:	f7fb f94f 	bl	800040c <unpack16>
 800516e:	4603      	mov	r3, r0
 8005170:	b29a      	uxth	r2, r3
 8005172:	69fb      	ldr	r3, [r7, #28]
 8005174:	f8a3 22ba 	strh.w	r2, [r3, #698]	; 0x2ba
 8005178:	e161      	b.n	800543e <process_write+0x239a>

        /* === FAULT REGISTERS: writing 1 clears the fault === */
        case 0xA8U: g_regs.fault_regs.reg1    &= ~data[0]; break;
 800517a:	4ba2      	ldr	r3, [pc, #648]	; (8005404 <process_write+0x2360>)
 800517c:	f893 321c 	ldrb.w	r3, [r3, #540]	; 0x21c
 8005180:	b2da      	uxtb	r2, r3
 8005182:	683b      	ldr	r3, [r7, #0]
 8005184:	781b      	ldrb	r3, [r3, #0]
 8005186:	b2db      	uxtb	r3, r3
 8005188:	43db      	mvns	r3, r3
 800518a:	b2db      	uxtb	r3, r3
 800518c:	4013      	ands	r3, r2
 800518e:	b2db      	uxtb	r3, r3
 8005190:	b2da      	uxtb	r2, r3
 8005192:	4b9c      	ldr	r3, [pc, #624]	; (8005404 <process_write+0x2360>)
 8005194:	f883 221c 	strb.w	r2, [r3, #540]	; 0x21c
 8005198:	e151      	b.n	800543e <process_write+0x239a>
        case 0xA9U:
            g_regs.fault_regs.reg2[0] &= ~data[0];
 800519a:	4b9a      	ldr	r3, [pc, #616]	; (8005404 <process_write+0x2360>)
 800519c:	f893 321d 	ldrb.w	r3, [r3, #541]	; 0x21d
 80051a0:	b2da      	uxtb	r2, r3
 80051a2:	683b      	ldr	r3, [r7, #0]
 80051a4:	781b      	ldrb	r3, [r3, #0]
 80051a6:	b2db      	uxtb	r3, r3
 80051a8:	43db      	mvns	r3, r3
 80051aa:	b2db      	uxtb	r3, r3
 80051ac:	4013      	ands	r3, r2
 80051ae:	b2db      	uxtb	r3, r3
 80051b0:	b2da      	uxtb	r2, r3
 80051b2:	4b94      	ldr	r3, [pc, #592]	; (8005404 <process_write+0x2360>)
 80051b4:	f883 221d 	strb.w	r2, [r3, #541]	; 0x21d
            g_regs.fault_regs.reg2[1] &= ~data[1];
 80051b8:	4b92      	ldr	r3, [pc, #584]	; (8005404 <process_write+0x2360>)
 80051ba:	f893 321e 	ldrb.w	r3, [r3, #542]	; 0x21e
 80051be:	b2da      	uxtb	r2, r3
 80051c0:	683b      	ldr	r3, [r7, #0]
 80051c2:	3301      	adds	r3, #1
 80051c4:	781b      	ldrb	r3, [r3, #0]
 80051c6:	b2db      	uxtb	r3, r3
 80051c8:	43db      	mvns	r3, r3
 80051ca:	b2db      	uxtb	r3, r3
 80051cc:	4013      	ands	r3, r2
 80051ce:	b2db      	uxtb	r3, r3
 80051d0:	b2da      	uxtb	r2, r3
 80051d2:	4b8c      	ldr	r3, [pc, #560]	; (8005404 <process_write+0x2360>)
 80051d4:	f883 221e 	strb.w	r2, [r3, #542]	; 0x21e
            g_regs.fault_regs.reg2[2] &= ~data[2];
 80051d8:	4b8a      	ldr	r3, [pc, #552]	; (8005404 <process_write+0x2360>)
 80051da:	f893 321f 	ldrb.w	r3, [r3, #543]	; 0x21f
 80051de:	b2da      	uxtb	r2, r3
 80051e0:	683b      	ldr	r3, [r7, #0]
 80051e2:	3302      	adds	r3, #2
 80051e4:	781b      	ldrb	r3, [r3, #0]
 80051e6:	b2db      	uxtb	r3, r3
 80051e8:	43db      	mvns	r3, r3
 80051ea:	b2db      	uxtb	r3, r3
 80051ec:	4013      	ands	r3, r2
 80051ee:	b2db      	uxtb	r3, r3
 80051f0:	b2da      	uxtb	r2, r3
 80051f2:	4b84      	ldr	r3, [pc, #528]	; (8005404 <process_write+0x2360>)
 80051f4:	f883 221f 	strb.w	r2, [r3, #543]	; 0x21f
            break;
 80051f8:	e121      	b.n	800543e <process_write+0x239a>
        case 0xAAU:
            g_regs.fault_regs.reg3[0] &= ~data[0];
 80051fa:	4b82      	ldr	r3, [pc, #520]	; (8005404 <process_write+0x2360>)
 80051fc:	f893 3220 	ldrb.w	r3, [r3, #544]	; 0x220
 8005200:	b2da      	uxtb	r2, r3
 8005202:	683b      	ldr	r3, [r7, #0]
 8005204:	781b      	ldrb	r3, [r3, #0]
 8005206:	b2db      	uxtb	r3, r3
 8005208:	43db      	mvns	r3, r3
 800520a:	b2db      	uxtb	r3, r3
 800520c:	4013      	ands	r3, r2
 800520e:	b2db      	uxtb	r3, r3
 8005210:	b2da      	uxtb	r2, r3
 8005212:	4b7c      	ldr	r3, [pc, #496]	; (8005404 <process_write+0x2360>)
 8005214:	f883 2220 	strb.w	r2, [r3, #544]	; 0x220
            g_regs.fault_regs.reg3[1] &= ~data[1];
 8005218:	4b7a      	ldr	r3, [pc, #488]	; (8005404 <process_write+0x2360>)
 800521a:	f893 3221 	ldrb.w	r3, [r3, #545]	; 0x221
 800521e:	b2da      	uxtb	r2, r3
 8005220:	683b      	ldr	r3, [r7, #0]
 8005222:	3301      	adds	r3, #1
 8005224:	781b      	ldrb	r3, [r3, #0]
 8005226:	b2db      	uxtb	r3, r3
 8005228:	43db      	mvns	r3, r3
 800522a:	b2db      	uxtb	r3, r3
 800522c:	4013      	ands	r3, r2
 800522e:	b2db      	uxtb	r3, r3
 8005230:	b2da      	uxtb	r2, r3
 8005232:	4b74      	ldr	r3, [pc, #464]	; (8005404 <process_write+0x2360>)
 8005234:	f883 2221 	strb.w	r2, [r3, #545]	; 0x221
            g_regs.fault_regs.reg3[2] &= ~data[2];
 8005238:	4b72      	ldr	r3, [pc, #456]	; (8005404 <process_write+0x2360>)
 800523a:	f893 3222 	ldrb.w	r3, [r3, #546]	; 0x222
 800523e:	b2da      	uxtb	r2, r3
 8005240:	683b      	ldr	r3, [r7, #0]
 8005242:	3302      	adds	r3, #2
 8005244:	781b      	ldrb	r3, [r3, #0]
 8005246:	b2db      	uxtb	r3, r3
 8005248:	43db      	mvns	r3, r3
 800524a:	b2db      	uxtb	r3, r3
 800524c:	4013      	ands	r3, r2
 800524e:	b2db      	uxtb	r3, r3
 8005250:	b2da      	uxtb	r2, r3
 8005252:	4b6c      	ldr	r3, [pc, #432]	; (8005404 <process_write+0x2360>)
 8005254:	f883 2222 	strb.w	r2, [r3, #546]	; 0x222
            g_regs.fault_regs.reg3[3] &= ~data[3];
 8005258:	4b6a      	ldr	r3, [pc, #424]	; (8005404 <process_write+0x2360>)
 800525a:	f893 3223 	ldrb.w	r3, [r3, #547]	; 0x223
 800525e:	b2da      	uxtb	r2, r3
 8005260:	683b      	ldr	r3, [r7, #0]
 8005262:	3303      	adds	r3, #3
 8005264:	781b      	ldrb	r3, [r3, #0]
 8005266:	b2db      	uxtb	r3, r3
 8005268:	43db      	mvns	r3, r3
 800526a:	b2db      	uxtb	r3, r3
 800526c:	4013      	ands	r3, r2
 800526e:	b2db      	uxtb	r3, r3
 8005270:	b2da      	uxtb	r2, r3
 8005272:	4b64      	ldr	r3, [pc, #400]	; (8005404 <process_write+0x2360>)
 8005274:	f883 2223 	strb.w	r2, [r3, #547]	; 0x223
            break;
 8005278:	e0e1      	b.n	800543e <process_write+0x239a>

        /* === LIMIT FAULT FLAGS: clear-on-write-1 === */
        case 0xD0U:
            { int _i; for (_i = 0; _i < 6; _i++) g_regs.lim_faults.soft_grp1[_i] &= ~data[_i]; }
 800527a:	2300      	movs	r3, #0
 800527c:	627b      	str	r3, [r7, #36]	; 0x24
 800527e:	e01b      	b.n	80052b8 <process_write+0x2214>
 8005280:	4a60      	ldr	r2, [pc, #384]	; (8005404 <process_write+0x2360>)
 8005282:	6a7b      	ldr	r3, [r7, #36]	; 0x24
 8005284:	4413      	add	r3, r2
 8005286:	f503 732e 	add.w	r3, r3, #696	; 0x2b8
 800528a:	791b      	ldrb	r3, [r3, #4]
 800528c:	b2d9      	uxtb	r1, r3
 800528e:	6a7b      	ldr	r3, [r7, #36]	; 0x24
 8005290:	683a      	ldr	r2, [r7, #0]
 8005292:	4413      	add	r3, r2
 8005294:	781b      	ldrb	r3, [r3, #0]
 8005296:	b2db      	uxtb	r3, r3
 8005298:	43db      	mvns	r3, r3
 800529a:	b2db      	uxtb	r3, r3
 800529c:	460a      	mov	r2, r1
 800529e:	4013      	ands	r3, r2
 80052a0:	b2db      	uxtb	r3, r3
 80052a2:	b2d9      	uxtb	r1, r3
 80052a4:	4a57      	ldr	r2, [pc, #348]	; (8005404 <process_write+0x2360>)
 80052a6:	6a7b      	ldr	r3, [r7, #36]	; 0x24
 80052a8:	4413      	add	r3, r2
 80052aa:	f503 732e 	add.w	r3, r3, #696	; 0x2b8
 80052ae:	460a      	mov	r2, r1
 80052b0:	711a      	strb	r2, [r3, #4]
 80052b2:	6a7b      	ldr	r3, [r7, #36]	; 0x24
 80052b4:	3301      	adds	r3, #1
 80052b6:	627b      	str	r3, [r7, #36]	; 0x24
 80052b8:	6a7b      	ldr	r3, [r7, #36]	; 0x24
 80052ba:	2b05      	cmp	r3, #5
 80052bc:	dde0      	ble.n	8005280 <process_write+0x21dc>
            break;
 80052be:	e0be      	b.n	800543e <process_write+0x239a>
        case 0xD1U:
            g_regs.lim_faults.soft_grp2[0] &= ~data[0];
 80052c0:	4b50      	ldr	r3, [pc, #320]	; (8005404 <process_write+0x2360>)
 80052c2:	f893 32c2 	ldrb.w	r3, [r3, #706]	; 0x2c2
 80052c6:	b2da      	uxtb	r2, r3
 80052c8:	683b      	ldr	r3, [r7, #0]
 80052ca:	781b      	ldrb	r3, [r3, #0]
 80052cc:	b2db      	uxtb	r3, r3
 80052ce:	43db      	mvns	r3, r3
 80052d0:	b2db      	uxtb	r3, r3
 80052d2:	4013      	ands	r3, r2
 80052d4:	b2db      	uxtb	r3, r3
 80052d6:	b2da      	uxtb	r2, r3
 80052d8:	4b4a      	ldr	r3, [pc, #296]	; (8005404 <process_write+0x2360>)
 80052da:	f883 22c2 	strb.w	r2, [r3, #706]	; 0x2c2
            g_regs.lim_faults.soft_grp2[1] &= ~data[1];
 80052de:	4b49      	ldr	r3, [pc, #292]	; (8005404 <process_write+0x2360>)
 80052e0:	f893 32c3 	ldrb.w	r3, [r3, #707]	; 0x2c3
 80052e4:	b2da      	uxtb	r2, r3
 80052e6:	683b      	ldr	r3, [r7, #0]
 80052e8:	3301      	adds	r3, #1
 80052ea:	781b      	ldrb	r3, [r3, #0]
 80052ec:	b2db      	uxtb	r3, r3
 80052ee:	43db      	mvns	r3, r3
 80052f0:	b2db      	uxtb	r3, r3
 80052f2:	4013      	ands	r3, r2
 80052f4:	b2db      	uxtb	r3, r3
 80052f6:	b2da      	uxtb	r2, r3
 80052f8:	4b42      	ldr	r3, [pc, #264]	; (8005404 <process_write+0x2360>)
 80052fa:	f883 22c3 	strb.w	r2, [r3, #707]	; 0x2c3
            g_regs.lim_faults.soft_grp2[2] &= ~data[2];
 80052fe:	4b41      	ldr	r3, [pc, #260]	; (8005404 <process_write+0x2360>)
 8005300:	f893 32c4 	ldrb.w	r3, [r3, #708]	; 0x2c4
 8005304:	b2da      	uxtb	r2, r3
 8005306:	683b      	ldr	r3, [r7, #0]
 8005308:	3302      	adds	r3, #2
 800530a:	781b      	ldrb	r3, [r3, #0]
 800530c:	b2db      	uxtb	r3, r3
 800530e:	43db      	mvns	r3, r3
 8005310:	b2db      	uxtb	r3, r3
 8005312:	4013      	ands	r3, r2
 8005314:	b2db      	uxtb	r3, r3
 8005316:	b2da      	uxtb	r2, r3
 8005318:	4b3a      	ldr	r3, [pc, #232]	; (8005404 <process_write+0x2360>)
 800531a:	f883 22c4 	strb.w	r2, [r3, #708]	; 0x2c4
            break;
 800531e:	e08e      	b.n	800543e <process_write+0x239a>
        case 0xD8U:
            { int _i; for (_i = 0; _i < 6; _i++) g_regs.lim_faults.hard_grp1[_i] &= ~data[_i]; }
 8005320:	2300      	movs	r3, #0
 8005322:	623b      	str	r3, [r7, #32]
 8005324:	e01b      	b.n	800535e <process_write+0x22ba>
 8005326:	4a37      	ldr	r2, [pc, #220]	; (8005404 <process_write+0x2360>)
 8005328:	6a3b      	ldr	r3, [r7, #32]
 800532a:	4413      	add	r3, r2
 800532c:	f503 7330 	add.w	r3, r3, #704	; 0x2c0
 8005330:	795b      	ldrb	r3, [r3, #5]
 8005332:	b2d9      	uxtb	r1, r3
 8005334:	6a3b      	ldr	r3, [r7, #32]
 8005336:	683a      	ldr	r2, [r7, #0]
 8005338:	4413      	add	r3, r2
 800533a:	781b      	ldrb	r3, [r3, #0]
 800533c:	b2db      	uxtb	r3, r3
 800533e:	43db      	mvns	r3, r3
 8005340:	b2db      	uxtb	r3, r3
 8005342:	460a      	mov	r2, r1
 8005344:	4013      	ands	r3, r2
 8005346:	b2db      	uxtb	r3, r3
 8005348:	b2d9      	uxtb	r1, r3
 800534a:	4a2e      	ldr	r2, [pc, #184]	; (8005404 <process_write+0x2360>)
 800534c:	6a3b      	ldr	r3, [r7, #32]
 800534e:	4413      	add	r3, r2
 8005350:	f503 7330 	add.w	r3, r3, #704	; 0x2c0
 8005354:	460a      	mov	r2, r1
 8005356:	715a      	strb	r2, [r3, #5]
 8005358:	6a3b      	ldr	r3, [r7, #32]
 800535a:	3301      	adds	r3, #1
 800535c:	623b      	str	r3, [r7, #32]
 800535e:	6a3b      	ldr	r3, [r7, #32]
 8005360:	2b05      	cmp	r3, #5
 8005362:	dde0      	ble.n	8005326 <process_write+0x2282>
            break;
 8005364:	e06b      	b.n	800543e <process_write+0x239a>
        case 0xD9U:
            g_regs.lim_faults.hard_grp2[0] &= ~data[0];
 8005366:	4b27      	ldr	r3, [pc, #156]	; (8005404 <process_write+0x2360>)
 8005368:	f893 32cb 	ldrb.w	r3, [r3, #715]	; 0x2cb
 800536c:	b2da      	uxtb	r2, r3
 800536e:	683b      	ldr	r3, [r7, #0]
 8005370:	781b      	ldrb	r3, [r3, #0]
 8005372:	b2db      	uxtb	r3, r3
 8005374:	43db      	mvns	r3, r3
 8005376:	b2db      	uxtb	r3, r3
 8005378:	4013      	ands	r3, r2
 800537a:	b2db      	uxtb	r3, r3
 800537c:	b2da      	uxtb	r2, r3
 800537e:	4b21      	ldr	r3, [pc, #132]	; (8005404 <process_write+0x2360>)
 8005380:	f883 22cb 	strb.w	r2, [r3, #715]	; 0x2cb
            g_regs.lim_faults.hard_grp2[1] &= ~data[1];
 8005384:	4b1f      	ldr	r3, [pc, #124]	; (8005404 <process_write+0x2360>)
 8005386:	f893 32cc 	ldrb.w	r3, [r3, #716]	; 0x2cc
 800538a:	b2da      	uxtb	r2, r3
 800538c:	683b      	ldr	r3, [r7, #0]
 800538e:	3301      	adds	r3, #1
 8005390:	781b      	ldrb	r3, [r3, #0]
 8005392:	b2db      	uxtb	r3, r3
 8005394:	43db      	mvns	r3, r3
 8005396:	b2db      	uxtb	r3, r3
 8005398:	4013      	ands	r3, r2
 800539a:	b2db      	uxtb	r3, r3
 800539c:	b2da      	uxtb	r2, r3
 800539e:	4b19      	ldr	r3, [pc, #100]	; (8005404 <process_write+0x2360>)
 80053a0:	f883 22cc 	strb.w	r2, [r3, #716]	; 0x2cc
            g_regs.lim_faults.hard_grp2[2] &= ~data[2];
 80053a4:	4b17      	ldr	r3, [pc, #92]	; (8005404 <process_write+0x2360>)
 80053a6:	f893 32cd 	ldrb.w	r3, [r3, #717]	; 0x2cd
 80053aa:	b2da      	uxtb	r2, r3
 80053ac:	683b      	ldr	r3, [r7, #0]
 80053ae:	3302      	adds	r3, #2
 80053b0:	781b      	ldrb	r3, [r3, #0]
 80053b2:	b2db      	uxtb	r3, r3
 80053b4:	43db      	mvns	r3, r3
 80053b6:	b2db      	uxtb	r3, r3
 80053b8:	4013      	ands	r3, r2
 80053ba:	b2db      	uxtb	r3, r3
 80053bc:	b2da      	uxtb	r2, r3
 80053be:	4b11      	ldr	r3, [pc, #68]	; (8005404 <process_write+0x2360>)
 80053c0:	f883 22cd 	strb.w	r2, [r3, #717]	; 0x2cd
            break;
 80053c4:	e03b      	b.n	800543e <process_write+0x239a>

        /* === BUILD INFO + WRITE PROTECT === */
        case 0x1F8U:
            g_regs.build_info.hw_rev = unpack16(data[0], data[1]);
 80053c6:	683b      	ldr	r3, [r7, #0]
 80053c8:	781a      	ldrb	r2, [r3, #0]
 80053ca:	683b      	ldr	r3, [r7, #0]
 80053cc:	3301      	adds	r3, #1
 80053ce:	781b      	ldrb	r3, [r3, #0]
 80053d0:	4610      	mov	r0, r2
 80053d2:	4619      	mov	r1, r3
 80053d4:	f7fb f81a 	bl	800040c <unpack16>
 80053d8:	4603      	mov	r3, r0
 80053da:	461a      	mov	r2, r3
 80053dc:	4b09      	ldr	r3, [pc, #36]	; (8005404 <process_write+0x2360>)
 80053de:	f8a3 22ce 	strh.w	r2, [r3, #718]	; 0x2ce
            g_regs.build_info.fw_rev = unpack16(data[2], data[3]);
 80053e2:	683b      	ldr	r3, [r7, #0]
 80053e4:	3302      	adds	r3, #2
 80053e6:	781a      	ldrb	r2, [r3, #0]
 80053e8:	683b      	ldr	r3, [r7, #0]
 80053ea:	3303      	adds	r3, #3
 80053ec:	781b      	ldrb	r3, [r3, #0]
 80053ee:	4610      	mov	r0, r2
 80053f0:	4619      	mov	r1, r3
 80053f2:	f7fb f80b 	bl	800040c <unpack16>
 80053f6:	4603      	mov	r3, r0
 80053f8:	461a      	mov	r2, r3
 80053fa:	4b02      	ldr	r3, [pc, #8]	; (8005404 <process_write+0x2360>)
 80053fc:	f8a3 22d0 	strh.w	r2, [r3, #720]	; 0x2d0
            break;
 8005400:	e01d      	b.n	800543e <process_write+0x239a>
 8005402:	bf00      	nop
 8005404:	1ffe89b0 	.word	0x1ffe89b0
        case 0x1FAU:
            g_regs.write_protect.b1 = data[0];
 8005408:	683b      	ldr	r3, [r7, #0]
 800540a:	781a      	ldrb	r2, [r3, #0]
 800540c:	4b0d      	ldr	r3, [pc, #52]	; (8005444 <process_write+0x23a0>)
 800540e:	f883 22d2 	strb.w	r2, [r3, #722]	; 0x2d2
            g_regs.write_protect.b2 = data[1];
 8005412:	683b      	ldr	r3, [r7, #0]
 8005414:	785a      	ldrb	r2, [r3, #1]
 8005416:	4b0b      	ldr	r3, [pc, #44]	; (8005444 <process_write+0x23a0>)
 8005418:	f883 22d3 	strb.w	r2, [r3, #723]	; 0x2d3
            g_regs.write_protect.b3 = data[2];
 800541c:	683b      	ldr	r3, [r7, #0]
 800541e:	789a      	ldrb	r2, [r3, #2]
 8005420:	4b08      	ldr	r3, [pc, #32]	; (8005444 <process_write+0x23a0>)
 8005422:	f883 22d4 	strb.w	r2, [r3, #724]	; 0x2d4
            g_regs.write_protect.b4 = data[3];
 8005426:	683b      	ldr	r3, [r7, #0]
 8005428:	78da      	ldrb	r2, [r3, #3]
 800542a:	4b06      	ldr	r3, [pc, #24]	; (8005444 <process_write+0x23a0>)
 800542c:	f883 22d5 	strb.w	r2, [r3, #725]	; 0x2d5
            g_regs.write_protect.b5 = data[4];
 8005430:	683b      	ldr	r3, [r7, #0]
 8005432:	791a      	ldrb	r2, [r3, #4]
 8005434:	4b03      	ldr	r3, [pc, #12]	; (8005444 <process_write+0x23a0>)
 8005436:	f883 22d6 	strb.w	r2, [r3, #726]	; 0x2d6
            break;
 800543a:	e000      	b.n	800543e <process_write+0x239a>

        default:
            break;
 800543c:	bf00      	nop
    }
}
 800543e:	3728      	adds	r7, #40	; 0x28
 8005440:	46bd      	mov	sp, r7
 8005442:	bd80      	pop	{r7, pc}
 8005444:	1ffe89b0 	.word	0x1ffe89b0

08005448 <transmit_response>:

/* ============================================================
 * transmit_response() — build and send the response frame
 * ============================================================ */
static void transmit_response(uint8_t src, uint16_t data_id, uint8_t data[8])
{
 8005448:	b580      	push	{r7, lr}
 800544a:	b084      	sub	sp, #16
 800544c:	af00      	add	r7, sp, #0
 800544e:	4603      	mov	r3, r0
 8005450:	603a      	str	r2, [r7, #0]
 8005452:	71fb      	strb	r3, [r7, #7]
 8005454:	460b      	mov	r3, r1
 8005456:	80bb      	strh	r3, [r7, #4]
    XMC_CAN_MO_t *mo = MULTICAN_CONFIG_0.lmobj_ptr[PMB_TX_MO]->mo_ptr;
 8005458:	4b20      	ldr	r3, [pc, #128]	; (80054dc <transmit_response+0x94>)
 800545a:	689b      	ldr	r3, [r3, #8]
 800545c:	681b      	ldr	r3, [r3, #0]
 800545e:	60bb      	str	r3, [r7, #8]

    /* Echo the packet counter from the request */
    data[6] = s_pkt_lo;
 8005460:	683b      	ldr	r3, [r7, #0]
 8005462:	3306      	adds	r3, #6
 8005464:	4a1e      	ldr	r2, [pc, #120]	; (80054e0 <transmit_response+0x98>)
 8005466:	7812      	ldrb	r2, [r2, #0]
 8005468:	701a      	strb	r2, [r3, #0]
    data[7] = s_pkt_hi;
 800546a:	683b      	ldr	r3, [r7, #0]
 800546c:	3307      	adds	r3, #7
 800546e:	4a1d      	ldr	r2, [pc, #116]	; (80054e4 <transmit_response+0x9c>)
 8005470:	7812      	ldrb	r2, [r2, #0]
 8005472:	701a      	strb	r2, [r3, #0]

    /* 29-bit extended CAN ID: priority=4, data_id, dst=src, src=PMB_ADDR */
    mo->can_identifier = PMB_CAN_BUILD_ID(4U, data_id, src, PMB_ADDR);
 8005474:	88bb      	ldrh	r3, [r7, #4]
 8005476:	041a      	lsls	r2, r3, #16
 8005478:	79fb      	ldrb	r3, [r7, #7]
 800547a:	021b      	lsls	r3, r3, #8
 800547c:	4313      	orrs	r3, r2
 800547e:	f043 5380 	orr.w	r3, r3, #268435456	; 0x10000000
 8005482:	f043 03c0 	orr.w	r3, r3, #192	; 0xc0
 8005486:	f023 4160 	bic.w	r1, r3, #3758096384	; 0xe0000000
 800548a:	68ba      	ldr	r2, [r7, #8]
 800548c:	6853      	ldr	r3, [r2, #4]
 800548e:	f361 031c 	bfi	r3, r1, #0, #29
 8005492:	6053      	str	r3, [r2, #4]
    mo->can_id_mode    = XMC_CAN_FRAME_TYPE_EXTENDED_29BITS;
 8005494:	68ba      	ldr	r2, [r7, #8]
 8005496:	79d3      	ldrb	r3, [r2, #7]
 8005498:	f043 0320 	orr.w	r3, r3, #32
 800549c:	71d3      	strb	r3, [r2, #7]
    mo->can_data_length = 8U;
 800549e:	68bb      	ldr	r3, [r7, #8]
 80054a0:	2208      	movs	r2, #8
 80054a2:	731a      	strb	r2, [r3, #12]

    uint8_t i;
    for (i = 0U; i < 8U; i++) {
 80054a4:	2300      	movs	r3, #0
 80054a6:	73fb      	strb	r3, [r7, #15]
 80054a8:	e00b      	b.n	80054c2 <transmit_response+0x7a>
        mo->can_data_byte[i] = data[i];
 80054aa:	7bfb      	ldrb	r3, [r7, #15]
 80054ac:	7bfa      	ldrb	r2, [r7, #15]
 80054ae:	6839      	ldr	r1, [r7, #0]
 80054b0:	440a      	add	r2, r1
 80054b2:	7811      	ldrb	r1, [r2, #0]
 80054b4:	68ba      	ldr	r2, [r7, #8]
 80054b6:	4413      	add	r3, r2
 80054b8:	460a      	mov	r2, r1
 80054ba:	741a      	strb	r2, [r3, #16]
    mo->can_identifier = PMB_CAN_BUILD_ID(4U, data_id, src, PMB_ADDR);
    mo->can_id_mode    = XMC_CAN_FRAME_TYPE_EXTENDED_29BITS;
    mo->can_data_length = 8U;

    uint8_t i;
    for (i = 0U; i < 8U; i++) {
 80054bc:	7bfb      	ldrb	r3, [r7, #15]
 80054be:	3301      	adds	r3, #1
 80054c0:	73fb      	strb	r3, [r7, #15]
 80054c2:	7bfb      	ldrb	r3, [r7, #15]
 80054c4:	2b07      	cmp	r3, #7
 80054c6:	d9f0      	bls.n	80054aa <transmit_response+0x62>
        mo->can_data_byte[i] = data[i];
    }

    XMC_CAN_MO_UpdateData(mo);
 80054c8:	68b8      	ldr	r0, [r7, #8]
 80054ca:	f001 f8ad 	bl	8006628 <XMC_CAN_MO_UpdateData>
    XMC_CAN_MO_Transmit(mo);
 80054ce:	68b8      	ldr	r0, [r7, #8]
 80054d0:	f001 f8e2 	bl	8006698 <XMC_CAN_MO_Transmit>
}
 80054d4:	3710      	adds	r7, #16
 80054d6:	46bd      	mov	sp, r7
 80054d8:	bd80      	pop	{r7, pc}
 80054da:	bf00      	nop
 80054dc:	1ffe8918 	.word	0x1ffe8918
 80054e0:	1ffe8c89 	.word	0x1ffe8c89
 80054e4:	1ffe8c88 	.word	0x1ffe8c88

080054e8 <PMB_Emulator_Init>:
/* ============================================================
 * Public API
 * ============================================================ */

void PMB_Emulator_Init(void)
{
 80054e8:	b580      	push	{r7, lr}
 80054ea:	b082      	sub	sp, #8
 80054ec:	af00      	add	r7, sp, #0
    XMC_CAN_MO_t *rx_mo = MULTICAN_CONFIG_0.lmobj_ptr[PMB_RX_MO]->mo_ptr;
 80054ee:	4b1d      	ldr	r3, [pc, #116]	; (8005564 <PMB_Emulator_Init+0x7c>)
 80054f0:	685b      	ldr	r3, [r3, #4]
 80054f2:	681b      	ldr	r3, [r3, #0]
 80054f4:	607b      	str	r3, [r7, #4]
    XMC_CAN_MO_t *tx_mo = MULTICAN_CONFIG_0.lmobj_ptr[PMB_TX_MO]->mo_ptr;
 80054f6:	4b1b      	ldr	r3, [pc, #108]	; (8005564 <PMB_Emulator_Init+0x7c>)
 80054f8:	689b      	ldr	r3, [r3, #8]
 80054fa:	681b      	ldr	r3, [r3, #0]
 80054fc:	603b      	str	r3, [r7, #0]

    memset(&g_regs, 0, sizeof(g_regs));
 80054fe:	481a      	ldr	r0, [pc, #104]	; (8005568 <PMB_Emulator_Init+0x80>)
 8005500:	2100      	movs	r1, #0
 8005502:	f44f 7236 	mov.w	r2, #728	; 0x2d8
 8005506:	f002 f92c 	bl	8007762 <memset>

    /* Configure RX MO to accept any 29-bit extended frame where dst byte = PMB_ADDR.
     * Mask checks bits[15:8] (the dst field) only. */
    rx_mo->can_identifier         = PMB_CAN_BUILD_ID(0U, 0U, PMB_ADDR, 0U);
 800550a:	687a      	ldr	r2, [r7, #4]
 800550c:	6853      	ldr	r3, [r2, #4]
 800550e:	f44f 4140 	mov.w	r1, #49152	; 0xc000
 8005512:	f361 031c 	bfi	r3, r1, #0, #29
 8005516:	6053      	str	r3, [r2, #4]
    rx_mo->can_id_mask            = 0x0000FF00UL;   /* mask dst field only */
 8005518:	687a      	ldr	r2, [r7, #4]
 800551a:	6893      	ldr	r3, [r2, #8]
 800551c:	f44f 417f 	mov.w	r1, #65280	; 0xff00
 8005520:	f361 031c 	bfi	r3, r1, #0, #29
 8005524:	6093      	str	r3, [r2, #8]
    rx_mo->can_id_mode            = XMC_CAN_FRAME_TYPE_EXTENDED_29BITS;
 8005526:	687a      	ldr	r2, [r7, #4]
 8005528:	79d3      	ldrb	r3, [r2, #7]
 800552a:	f043 0320 	orr.w	r3, r3, #32
 800552e:	71d3      	strb	r3, [r2, #7]
    rx_mo->can_mo_type            = XMC_CAN_MO_TYPE_RECMSGOBJ;
 8005530:	687b      	ldr	r3, [r7, #4]
 8005532:	2200      	movs	r2, #0
 8005534:	761a      	strb	r2, [r3, #24]
    rx_mo->can_data_length        = 8U;
 8005536:	687b      	ldr	r3, [r7, #4]
 8005538:	2208      	movs	r2, #8
 800553a:	731a      	strb	r2, [r3, #12]
    XMC_CAN_MO_Config(rx_mo);
 800553c:	6878      	ldr	r0, [r7, #4]
 800553e:	f000 ffd7 	bl	80064f0 <XMC_CAN_MO_Config>

    /* TX MO: extended frame, DLC=8; ID is set per-message in transmit_response */
    tx_mo->can_id_mode     = XMC_CAN_FRAME_TYPE_EXTENDED_29BITS;
 8005542:	683a      	ldr	r2, [r7, #0]
 8005544:	79d3      	ldrb	r3, [r2, #7]
 8005546:	f043 0320 	orr.w	r3, r3, #32
 800554a:	71d3      	strb	r3, [r2, #7]
    tx_mo->can_mo_type     = XMC_CAN_MO_TYPE_TRANSMSGOBJ;
 800554c:	683b      	ldr	r3, [r7, #0]
 800554e:	2201      	movs	r2, #1
 8005550:	761a      	strb	r2, [r3, #24]
    tx_mo->can_data_length = 8U;
 8005552:	683b      	ldr	r3, [r7, #0]
 8005554:	2208      	movs	r2, #8
 8005556:	731a      	strb	r2, [r3, #12]
    XMC_CAN_MO_Config(tx_mo);
 8005558:	6838      	ldr	r0, [r7, #0]
 800555a:	f000 ffc9 	bl	80064f0 <XMC_CAN_MO_Config>
}
 800555e:	3708      	adds	r7, #8
 8005560:	46bd      	mov	sp, r7
 8005562:	bd80      	pop	{r7, pc}
 8005564:	1ffe8918 	.word	0x1ffe8918
 8005568:	1ffe89b0 	.word	0x1ffe89b0

0800556c <PMB_Emulator_Run>:

void PMB_Emulator_Run(void)
{
 800556c:	b580      	push	{r7, lr}
 800556e:	b086      	sub	sp, #24
 8005570:	af00      	add	r7, sp, #0
    XMC_CAN_MO_t *rx_mo = MULTICAN_CONFIG_0.lmobj_ptr[PMB_RX_MO]->mo_ptr;
 8005572:	4b2c      	ldr	r3, [pc, #176]	; (8005624 <PMB_Emulator_Run+0xb8>)
 8005574:	685b      	ldr	r3, [r3, #4]
 8005576:	681b      	ldr	r3, [r3, #0]
 8005578:	613b      	str	r3, [r7, #16]

    if (!(XMC_CAN_MO_GetStatus(rx_mo) & (uint32_t)XMC_CAN_MO_STATUS_RX_PENDING)) {
 800557a:	6938      	ldr	r0, [r7, #16]
 800557c:	f7fa ff08 	bl	8000390 <XMC_CAN_MO_GetStatus>
 8005580:	4603      	mov	r3, r0
 8005582:	f003 0301 	and.w	r3, r3, #1
 8005586:	2b00      	cmp	r3, #0
 8005588:	d049      	beq.n	800561e <PMB_Emulator_Run+0xb2>
        return;
    }

    XMC_CAN_MO_Receive(rx_mo);
 800558a:	6938      	ldr	r0, [r7, #16]
 800558c:	f001 f8b2 	bl	80066f4 <XMC_CAN_MO_Receive>

    uint32_t can_id  = rx_mo->can_identifier;
 8005590:	693b      	ldr	r3, [r7, #16]
 8005592:	685b      	ldr	r3, [r3, #4]
 8005594:	f3c3 031c 	ubfx	r3, r3, #0, #29
 8005598:	60fb      	str	r3, [r7, #12]
    uint16_t data_id = (uint16_t)PMB_GET_DATA_ID(can_id);
 800559a:	68fb      	ldr	r3, [r7, #12]
 800559c:	0c1b      	lsrs	r3, r3, #16
 800559e:	b29b      	uxth	r3, r3
 80055a0:	f3c3 0309 	ubfx	r3, r3, #0, #10
 80055a4:	817b      	strh	r3, [r7, #10]
    uint8_t  src     = (uint8_t) PMB_GET_SRC(can_id);
 80055a6:	68fb      	ldr	r3, [r7, #12]
 80055a8:	727b      	strb	r3, [r7, #9]

    /* Save packet counter from bytes 7-8 (data[6] and data[7]) */
    s_pkt_lo = rx_mo->can_data_byte[6];
 80055aa:	693b      	ldr	r3, [r7, #16]
 80055ac:	7d9a      	ldrb	r2, [r3, #22]
 80055ae:	4b1e      	ldr	r3, [pc, #120]	; (8005628 <PMB_Emulator_Run+0xbc>)
 80055b0:	701a      	strb	r2, [r3, #0]
    s_pkt_hi = rx_mo->can_data_byte[7];
 80055b2:	693b      	ldr	r3, [r7, #16]
 80055b4:	7dda      	ldrb	r2, [r3, #23]
 80055b6:	4b1d      	ldr	r3, [pc, #116]	; (800562c <PMB_Emulator_Run+0xc0>)
 80055b8:	701a      	strb	r2, [r3, #0]

    uint8_t resp[8];
    memset(resp, 0, sizeof(resp));
 80055ba:	463b      	mov	r3, r7
 80055bc:	4618      	mov	r0, r3
 80055be:	2100      	movs	r1, #0
 80055c0:	2208      	movs	r2, #8
 80055c2:	f002 f8ce 	bl	8007762 <memset>

    /* Determine read vs. write: all-zero payload = read request */
    uint8_t is_write = 0U;
 80055c6:	2300      	movs	r3, #0
 80055c8:	75fb      	strb	r3, [r7, #23]
    uint8_t j;
    for (j = 0U; j < 6U; j++) {
 80055ca:	2300      	movs	r3, #0
 80055cc:	75bb      	strb	r3, [r7, #22]
 80055ce:	e00b      	b.n	80055e8 <PMB_Emulator_Run+0x7c>
        if (rx_mo->can_data_byte[j] != 0U) { is_write = 1U; break; }
 80055d0:	7dbb      	ldrb	r3, [r7, #22]
 80055d2:	693a      	ldr	r2, [r7, #16]
 80055d4:	4413      	add	r3, r2
 80055d6:	7c1b      	ldrb	r3, [r3, #16]
 80055d8:	2b00      	cmp	r3, #0
 80055da:	d002      	beq.n	80055e2 <PMB_Emulator_Run+0x76>
 80055dc:	2301      	movs	r3, #1
 80055de:	75fb      	strb	r3, [r7, #23]
 80055e0:	e005      	b.n	80055ee <PMB_Emulator_Run+0x82>
    memset(resp, 0, sizeof(resp));

    /* Determine read vs. write: all-zero payload = read request */
    uint8_t is_write = 0U;
    uint8_t j;
    for (j = 0U; j < 6U; j++) {
 80055e2:	7dbb      	ldrb	r3, [r7, #22]
 80055e4:	3301      	adds	r3, #1
 80055e6:	75bb      	strb	r3, [r7, #22]
 80055e8:	7dbb      	ldrb	r3, [r7, #22]
 80055ea:	2b05      	cmp	r3, #5
 80055ec:	d9f0      	bls.n	80055d0 <PMB_Emulator_Run+0x64>
        if (rx_mo->can_data_byte[j] != 0U) { is_write = 1U; break; }
    }

    if (is_write) {
 80055ee:	7dfb      	ldrb	r3, [r7, #23]
 80055f0:	2b00      	cmp	r3, #0
 80055f2:	d006      	beq.n	8005602 <PMB_Emulator_Run+0x96>
        process_write(data_id, rx_mo->can_data_byte);
 80055f4:	693b      	ldr	r3, [r7, #16]
 80055f6:	3310      	adds	r3, #16
 80055f8:	897a      	ldrh	r2, [r7, #10]
 80055fa:	4610      	mov	r0, r2
 80055fc:	4619      	mov	r1, r3
 80055fe:	f7fd fd51 	bl	80030a4 <process_write>
    }

    build_response(data_id, resp);
 8005602:	897a      	ldrh	r2, [r7, #10]
 8005604:	463b      	mov	r3, r7
 8005606:	4610      	mov	r0, r2
 8005608:	4619      	mov	r1, r3
 800560a:	f7fa ff8b 	bl	8000524 <build_response>
    transmit_response(src, data_id, resp);
 800560e:	7a79      	ldrb	r1, [r7, #9]
 8005610:	897a      	ldrh	r2, [r7, #10]
 8005612:	463b      	mov	r3, r7
 8005614:	4608      	mov	r0, r1
 8005616:	4611      	mov	r1, r2
 8005618:	461a      	mov	r2, r3
 800561a:	f7ff ff15 	bl	8005448 <transmit_response>
}
 800561e:	3718      	adds	r7, #24
 8005620:	46bd      	mov	sp, r7
 8005622:	bd80      	pop	{r7, pc}
 8005624:	1ffe8918 	.word	0x1ffe8918
 8005628:	1ffe8c89 	.word	0x1ffe8c89
 800562c:	1ffe8c88 	.word	0x1ffe8c88

08005630 <PMB_GetRegsMutable>:
{
    return &g_regs;
}

PMB_Registers_t *PMB_GetRegsMutable(void)
{
 8005630:	b480      	push	{r7}
 8005632:	af00      	add	r7, sp, #0
    return &g_regs;
 8005634:	4b02      	ldr	r3, [pc, #8]	; (8005640 <PMB_GetRegsMutable+0x10>)
}
 8005636:	4618      	mov	r0, r3
 8005638:	46bd      	mov	sp, r7
 800563a:	f85d 7b04 	ldr.w	r7, [sp], #4
 800563e:	4770      	bx	lr
 8005640:	1ffe89b0 	.word	0x1ffe89b0

08005644 <XMC_GPIO_Init>:
/*******************************************************************************
 * API IMPLEMENTATION
 *******************************************************************************/

void XMC_GPIO_Init(XMC_GPIO_PORT_t *const port, const uint8_t pin, const XMC_GPIO_CONFIG_t *const config)
{
 8005644:	b480      	push	{r7}
 8005646:	b085      	sub	sp, #20
 8005648:	af00      	add	r7, sp, #0
 800564a:	60f8      	str	r0, [r7, #12]
 800564c:	460b      	mov	r3, r1
 800564e:	607a      	str	r2, [r7, #4]
 8005650:	72fb      	strb	r3, [r7, #11]
  XMC_ASSERT("XMC_GPIO_Init: Invalid port", XMC_GPIO_CHECK_PORT(port));
  XMC_ASSERT("XMC_GPIO_Init: Invalid mode", XMC_GPIO_IsModeValid(config->mode));

  /* Switch to input */
  port->IOCR[pin >> 2U] &= (uint32_t)~(PORT_IOCR_PC_Msk << (PORT_IOCR_PC_Size * (pin & 0x3U)));
 8005652:	7afb      	ldrb	r3, [r7, #11]
 8005654:	089b      	lsrs	r3, r3, #2
 8005656:	b2db      	uxtb	r3, r3
 8005658:	4618      	mov	r0, r3
 800565a:	7afb      	ldrb	r3, [r7, #11]
 800565c:	089b      	lsrs	r3, r3, #2
 800565e:	b2db      	uxtb	r3, r3
 8005660:	461a      	mov	r2, r3
 8005662:	68fb      	ldr	r3, [r7, #12]
 8005664:	3204      	adds	r2, #4
 8005666:	f853 2022 	ldr.w	r2, [r3, r2, lsl #2]
 800566a:	7afb      	ldrb	r3, [r7, #11]
 800566c:	f003 0303 	and.w	r3, r3, #3
 8005670:	00db      	lsls	r3, r3, #3
 8005672:	4619      	mov	r1, r3
 8005674:	23f8      	movs	r3, #248	; 0xf8
 8005676:	408b      	lsls	r3, r1
 8005678:	43db      	mvns	r3, r3
 800567a:	ea02 0103 	and.w	r1, r2, r3
 800567e:	68fb      	ldr	r3, [r7, #12]
 8005680:	1d02      	adds	r2, r0, #4
 8005682:	f843 1022 	str.w	r1, [r3, r2, lsl #2]

  /* HW port control is disabled */
  port->HWSEL &= ~(uint32_t)((uint32_t)PORT_HWSEL_Msk << ((uint32_t)pin << 1U));
 8005686:	68fb      	ldr	r3, [r7, #12]
 8005688:	6f5a      	ldr	r2, [r3, #116]	; 0x74
 800568a:	7afb      	ldrb	r3, [r7, #11]
 800568c:	005b      	lsls	r3, r3, #1
 800568e:	4619      	mov	r1, r3
 8005690:	2303      	movs	r3, #3
 8005692:	408b      	lsls	r3, r1
 8005694:	43db      	mvns	r3, r3
 8005696:	401a      	ands	r2, r3
 8005698:	68fb      	ldr	r3, [r7, #12]
 800569a:	675a      	str	r2, [r3, #116]	; 0x74


  /* Enable digital input */
  if (XMC_GPIO_CHECK_ANALOG_PORT(port))
 800569c:	68fb      	ldr	r3, [r7, #12]
 800569e:	4a3a      	ldr	r2, [pc, #232]	; (8005788 <XMC_GPIO_Init+0x144>)
 80056a0:	4293      	cmp	r3, r2
 80056a2:	d003      	beq.n	80056ac <XMC_GPIO_Init+0x68>
 80056a4:	68fb      	ldr	r3, [r7, #12]
 80056a6:	4a39      	ldr	r2, [pc, #228]	; (800578c <XMC_GPIO_Init+0x148>)
 80056a8:	4293      	cmp	r3, r2
 80056aa:	d10a      	bne.n	80056c2 <XMC_GPIO_Init+0x7e>
  {
    port->PDISC &= ~(uint32_t)((uint32_t)0x1U << pin);
 80056ac:	68fb      	ldr	r3, [r7, #12]
 80056ae:	6e1a      	ldr	r2, [r3, #96]	; 0x60
 80056b0:	7afb      	ldrb	r3, [r7, #11]
 80056b2:	2101      	movs	r1, #1
 80056b4:	fa01 f303 	lsl.w	r3, r1, r3
 80056b8:	43db      	mvns	r3, r3
 80056ba:	401a      	ands	r2, r3
 80056bc:	68fb      	ldr	r3, [r7, #12]
 80056be:	661a      	str	r2, [r3, #96]	; 0x60
 80056c0:	e042      	b.n	8005748 <XMC_GPIO_Init+0x104>
  }
  else
  {
    if ((config->mode & XMC_GPIO_MODE_OE) != 0)
 80056c2:	687b      	ldr	r3, [r7, #4]
 80056c4:	781b      	ldrb	r3, [r3, #0]
 80056c6:	b2db      	uxtb	r3, r3
 80056c8:	b25b      	sxtb	r3, r3
 80056ca:	2b00      	cmp	r3, #0
 80056cc:	da3c      	bge.n	8005748 <XMC_GPIO_Init+0x104>
    {
      /* If output is enabled */

      /* Set output level */
      port->OMR = (uint32_t)config->output_level << pin;
 80056ce:	687b      	ldr	r3, [r7, #4]
 80056d0:	685a      	ldr	r2, [r3, #4]
 80056d2:	7afb      	ldrb	r3, [r7, #11]
 80056d4:	409a      	lsls	r2, r3
 80056d6:	68fb      	ldr	r3, [r7, #12]
 80056d8:	605a      	str	r2, [r3, #4]

      /* Set output driver strength */
      port->PDR[pin >> 3U] &= (uint32_t)~(PORT_PDR_Msk << ((uint32_t)PORT_PDR_Size * ((uint32_t)pin & 0x7U)));
 80056da:	7afb      	ldrb	r3, [r7, #11]
 80056dc:	08db      	lsrs	r3, r3, #3
 80056de:	b2db      	uxtb	r3, r3
 80056e0:	4618      	mov	r0, r3
 80056e2:	7afb      	ldrb	r3, [r7, #11]
 80056e4:	08db      	lsrs	r3, r3, #3
 80056e6:	b2db      	uxtb	r3, r3
 80056e8:	461a      	mov	r2, r3
 80056ea:	68fb      	ldr	r3, [r7, #12]
 80056ec:	3210      	adds	r2, #16
 80056ee:	f853 2022 	ldr.w	r2, [r3, r2, lsl #2]
 80056f2:	7afb      	ldrb	r3, [r7, #11]
 80056f4:	f003 0307 	and.w	r3, r3, #7
 80056f8:	009b      	lsls	r3, r3, #2
 80056fa:	4619      	mov	r1, r3
 80056fc:	2307      	movs	r3, #7
 80056fe:	408b      	lsls	r3, r1
 8005700:	43db      	mvns	r3, r3
 8005702:	ea02 0103 	and.w	r1, r2, r3
 8005706:	68fb      	ldr	r3, [r7, #12]
 8005708:	f100 0210 	add.w	r2, r0, #16
 800570c:	f843 1022 	str.w	r1, [r3, r2, lsl #2]
      port->PDR[pin >> 3U] |= (uint32_t)config->output_strength << ((uint32_t)PORT_PDR_Size * ((uint32_t)pin & 0x7U));
 8005710:	7afb      	ldrb	r3, [r7, #11]
 8005712:	08db      	lsrs	r3, r3, #3
 8005714:	b2db      	uxtb	r3, r3
 8005716:	4618      	mov	r0, r3
 8005718:	7afb      	ldrb	r3, [r7, #11]
 800571a:	08db      	lsrs	r3, r3, #3
 800571c:	b2db      	uxtb	r3, r3
 800571e:	461a      	mov	r2, r3
 8005720:	68fb      	ldr	r3, [r7, #12]
 8005722:	3210      	adds	r2, #16
 8005724:	f853 2022 	ldr.w	r2, [r3, r2, lsl #2]
 8005728:	687b      	ldr	r3, [r7, #4]
 800572a:	7a1b      	ldrb	r3, [r3, #8]
 800572c:	4619      	mov	r1, r3
 800572e:	7afb      	ldrb	r3, [r7, #11]
 8005730:	f003 0307 	and.w	r3, r3, #7
 8005734:	009b      	lsls	r3, r3, #2
 8005736:	fa01 f303 	lsl.w	r3, r1, r3
 800573a:	ea42 0103 	orr.w	r1, r2, r3
 800573e:	68fb      	ldr	r3, [r7, #12]
 8005740:	f100 0210 	add.w	r2, r0, #16
 8005744:	f843 1022 	str.w	r1, [r3, r2, lsl #2]
    }
  }

  /* Set mode */
  port->IOCR[pin >> 2U] |= (uint32_t)config->mode << ((uint32_t)PORT_IOCR_PC_Size * ((uint32_t)pin & 0x3U));
 8005748:	7afb      	ldrb	r3, [r7, #11]
 800574a:	089b      	lsrs	r3, r3, #2
 800574c:	b2db      	uxtb	r3, r3
 800574e:	4618      	mov	r0, r3
 8005750:	7afb      	ldrb	r3, [r7, #11]
 8005752:	089b      	lsrs	r3, r3, #2
 8005754:	b2db      	uxtb	r3, r3
 8005756:	461a      	mov	r2, r3
 8005758:	68fb      	ldr	r3, [r7, #12]
 800575a:	3204      	adds	r2, #4
 800575c:	f853 2022 	ldr.w	r2, [r3, r2, lsl #2]
 8005760:	687b      	ldr	r3, [r7, #4]
 8005762:	781b      	ldrb	r3, [r3, #0]
 8005764:	4619      	mov	r1, r3
 8005766:	7afb      	ldrb	r3, [r7, #11]
 8005768:	f003 0303 	and.w	r3, r3, #3
 800576c:	00db      	lsls	r3, r3, #3
 800576e:	fa01 f303 	lsl.w	r3, r1, r3
 8005772:	ea42 0103 	orr.w	r1, r2, r3
 8005776:	68fb      	ldr	r3, [r7, #12]
 8005778:	1d02      	adds	r2, r0, #4
 800577a:	f843 1022 	str.w	r1, [r3, r2, lsl #2]
}
 800577e:	3714      	adds	r7, #20
 8005780:	46bd      	mov	sp, r7
 8005782:	f85d 7b04 	ldr.w	r7, [sp], #4
 8005786:	4770      	bx	lr
 8005788:	48028e00 	.word	0x48028e00
 800578c:	48028f00 	.word	0x48028f00

08005790 <XMC_SCU_CLOCK_GetCpuClockFrequency>:
 *
 * \par<b>Related APIs:</b><BR>
 * XMC_SCU_CLOCK_GetPeripheralClockFrequency(), XMC_SCU_CLOCK_GatePeripheralClock() \n\n\n
 */
__STATIC_INLINE uint32_t XMC_SCU_CLOCK_GetCpuClockFrequency(void)
{
 8005790:	b480      	push	{r7}
 8005792:	af00      	add	r7, sp, #0
  return SystemCoreClock;
 8005794:	4b03      	ldr	r3, [pc, #12]	; (80057a4 <XMC_SCU_CLOCK_GetCpuClockFrequency+0x14>)
 8005796:	681b      	ldr	r3, [r3, #0]
}
 8005798:	4618      	mov	r0, r3
 800579a:	46bd      	mov	sp, r7
 800579c:	f85d 7b04 	ldr.w	r7, [sp], #4
 80057a0:	4770      	bx	lr
 80057a2:	bf00      	nop
 80057a4:	2003ffc0 	.word	0x2003ffc0

080057a8 <XMC_SCU_GetMirrorStatus>:
 * that a corresponding register of the hibernate domain is ready to accept a write or that the communication interface
 * is busy with executing the previous operation.\n
 * Note: There is no hibernate domain in XMC1x devices. This register is retained for legacy purpose.
 */
__STATIC_INLINE uint32_t XMC_SCU_GetMirrorStatus(void)
{
 80057a8:	b480      	push	{r7}
 80057aa:	af00      	add	r7, sp, #0
  return (SCU_GENERAL->MIRRSTS);
 80057ac:	4b03      	ldr	r3, [pc, #12]	; (80057bc <XMC_SCU_GetMirrorStatus+0x14>)
 80057ae:	f8d3 30c4 	ldr.w	r3, [r3, #196]	; 0xc4
}
 80057b2:	4618      	mov	r0, r3
 80057b4:	46bd      	mov	sp, r7
 80057b6:	f85d 7b04 	ldr.w	r7, [sp], #4
 80057ba:	4770      	bx	lr
 80057bc:	50004000 	.word	0x50004000

080057c0 <XMC_SCU_lDelay>:
/*********************************************************************************************************************
 * API IMPLEMENTATION
 ********************************************************************************************************************/
/* This is a local function used to generate the delay until register get updated with new configured value.  */
void XMC_SCU_lDelay(uint32_t delay)
{
 80057c0:	b580      	push	{r7, lr}
 80057c2:	b084      	sub	sp, #16
 80057c4:	af00      	add	r7, sp, #0
 80057c6:	6078      	str	r0, [r7, #4]
  uint32_t i;

  SystemCoreClockUpdate();
 80057c8:	f7fa fd78 	bl	80002bc <SystemCoreClockUpdate>
  delay =  delay * (uint32_t)(SystemCoreClock / FREQ_1MHZ);
 80057cc:	4b0b      	ldr	r3, [pc, #44]	; (80057fc <XMC_SCU_lDelay+0x3c>)
 80057ce:	681b      	ldr	r3, [r3, #0]
 80057d0:	4a0b      	ldr	r2, [pc, #44]	; (8005800 <XMC_SCU_lDelay+0x40>)
 80057d2:	fba2 2303 	umull	r2, r3, r2, r3
 80057d6:	0c9a      	lsrs	r2, r3, #18
 80057d8:	687b      	ldr	r3, [r7, #4]
 80057da:	fb02 f303 	mul.w	r3, r2, r3
 80057de:	607b      	str	r3, [r7, #4]

  for (i = 0U; i < delay; ++i)
 80057e0:	2300      	movs	r3, #0
 80057e2:	60fb      	str	r3, [r7, #12]
 80057e4:	e003      	b.n	80057ee <XMC_SCU_lDelay+0x2e>
  {
    __NOP();
 80057e6:	bf00      	nop
  uint32_t i;

  SystemCoreClockUpdate();
  delay =  delay * (uint32_t)(SystemCoreClock / FREQ_1MHZ);

  for (i = 0U; i < delay; ++i)
 80057e8:	68fb      	ldr	r3, [r7, #12]
 80057ea:	3301      	adds	r3, #1
 80057ec:	60fb      	str	r3, [r7, #12]
 80057ee:	68fa      	ldr	r2, [r7, #12]
 80057f0:	687b      	ldr	r3, [r7, #4]
 80057f2:	429a      	cmp	r2, r3
 80057f4:	d3f7      	bcc.n	80057e6 <XMC_SCU_lDelay+0x26>
  {
    __NOP();
  }
}
 80057f6:	3710      	adds	r7, #16
 80057f8:	46bd      	mov	sp, r7
 80057fa:	bd80      	pop	{r7, pc}
 80057fc:	2003ffc0 	.word	0x2003ffc0
 8005800:	431bde83 	.word	0x431bde83

08005804 <XMC_SCU_INTERUPT_GetEventStatus>:
  SCU_INTERRUPT->SRSET |= (uint32_t)event;
}

/* API to retrieve the SCU event status */
XMC_SCU_INTERRUPT_EVENT_t XMC_SCU_INTERUPT_GetEventStatus(void)
{
 8005804:	b480      	push	{r7}
 8005806:	af00      	add	r7, sp, #0
  return (SCU_INTERRUPT->SRRAW);
 8005808:	4b03      	ldr	r3, [pc, #12]	; (8005818 <XMC_SCU_INTERUPT_GetEventStatus+0x14>)
 800580a:	685b      	ldr	r3, [r3, #4]
}
 800580c:	4618      	mov	r0, r3
 800580e:	46bd      	mov	sp, r7
 8005810:	f85d 7b04 	ldr.w	r7, [sp], #4
 8005814:	4770      	bx	lr
 8005816:	bf00      	nop
 8005818:	50004074 	.word	0x50004074

0800581c <XMC_SCU_INTERRUPT_ClearEventStatus>:

/* API to clear the SCU event status */
void XMC_SCU_INTERRUPT_ClearEventStatus(const XMC_SCU_INTERRUPT_EVENT_t event)
{
 800581c:	b480      	push	{r7}
 800581e:	b083      	sub	sp, #12
 8005820:	af00      	add	r7, sp, #0
 8005822:	6078      	str	r0, [r7, #4]
  SCU_INTERRUPT->SRCLR = (uint32_t)event;
 8005824:	4a03      	ldr	r2, [pc, #12]	; (8005834 <XMC_SCU_INTERRUPT_ClearEventStatus+0x18>)
 8005826:	687b      	ldr	r3, [r7, #4]
 8005828:	60d3      	str	r3, [r2, #12]
}
 800582a:	370c      	adds	r7, #12
 800582c:	46bd      	mov	sp, r7
 800582e:	f85d 7b04 	ldr.w	r7, [sp], #4
 8005832:	4770      	bx	lr
 8005834:	50004074 	.word	0x50004074

08005838 <XMC_SCU_CLOCK_Init>:
  return (SCU_GENERAL->RMDATA);
}

/* API to initialize the clock tree */
void XMC_SCU_CLOCK_Init(const XMC_SCU_CLOCK_CONFIG_t *const config)
{
 8005838:	b5b0      	push	{r4, r5, r7, lr}
 800583a:	b084      	sub	sp, #16
 800583c:	af02      	add	r7, sp, #8
 800583e:	6078      	str	r0, [r7, #4]
  XMC_ASSERT("", ((config->fstdby_clksrc == XMC_SCU_HIB_STDBYCLKSRC_OSCULP) && (config->enable_osculp == true)) ||
             (config->fstdby_clksrc != XMC_SCU_HIB_STDBYCLKSRC_OSCULP));
  XMC_ASSERT("", ((config->syspll_config.clksrc == XMC_SCU_CLOCK_SYSPLLCLKSRC_OSCHP) &&
                  (config->enable_oschp == true)) || (config->syspll_config.clksrc != XMC_SCU_CLOCK_SYSPLLCLKSRC_OSCHP));

  XMC_SCU_CLOCK_SetSystemClockSource(XMC_SCU_CLOCK_SYSCLKSRC_OFI);
 8005840:	2000      	movs	r0, #0
 8005842:	f000 f8a1 	bl	8005988 <XMC_SCU_CLOCK_SetSystemClockSource>

  XMC_SCU_HIB_EnableHibernateDomain();
 8005846:	f000 fa83 	bl	8005d50 <XMC_SCU_HIB_EnableHibernateDomain>

  if (config->enable_osculp == true)
 800584a:	687b      	ldr	r3, [r7, #4]
 800584c:	79db      	ldrb	r3, [r3, #7]
 800584e:	2b00      	cmp	r3, #0
 8005850:	d00a      	beq.n	8005868 <XMC_SCU_CLOCK_Init+0x30>
  {
    XMC_SCU_CLOCK_EnableLowPowerOscillator();
 8005852:	f000 fabb 	bl	8005dcc <XMC_SCU_CLOCK_EnableLowPowerOscillator>
    while (XMC_SCU_CLOCK_IsLowPowerOscillatorStable() == false);
 8005856:	bf00      	nop
 8005858:	f000 faa6 	bl	8005da8 <XMC_SCU_CLOCK_IsLowPowerOscillatorStable>
 800585c:	4603      	mov	r3, r0
 800585e:	f083 0301 	eor.w	r3, r3, #1
 8005862:	b2db      	uxtb	r3, r3
 8005864:	2b00      	cmp	r3, #0
 8005866:	d1f7      	bne.n	8005858 <XMC_SCU_CLOCK_Init+0x20>
  }

  XMC_SCU_HIB_SetStandbyClockSource(config->fstdby_clksrc);
 8005868:	687b      	ldr	r3, [r7, #4]
 800586a:	7a5b      	ldrb	r3, [r3, #9]
 800586c:	4618      	mov	r0, r3
 800586e:	f000 f905 	bl	8005a7c <XMC_SCU_HIB_SetStandbyClockSource>
  while (XMC_SCU_GetMirrorStatus() != 0)
 8005872:	bf00      	nop
 8005874:	f7ff ff98 	bl	80057a8 <XMC_SCU_GetMirrorStatus>
 8005878:	4603      	mov	r3, r0
 800587a:	2b00      	cmp	r3, #0
 800587c:	d1fa      	bne.n	8005874 <XMC_SCU_CLOCK_Init+0x3c>
  {
    /* Wait until update of the stanby clock source is done in the HIB domain */
  }

  XMC_SCU_CLOCK_SetBackupClockCalibrationMode(config->calibration_mode);
 800587e:	687b      	ldr	r3, [r7, #4]
 8005880:	7a1b      	ldrb	r3, [r3, #8]
 8005882:	4618      	mov	r0, r3
 8005884:	f000 fa3e 	bl	8005d04 <XMC_SCU_CLOCK_SetBackupClockCalibrationMode>

  XMC_SCU_CLOCK_SetSystemClockDivider((uint32_t)config->fsys_clkdiv);
 8005888:	687b      	ldr	r3, [r7, #4]
 800588a:	7c1b      	ldrb	r3, [r3, #16]
 800588c:	4618      	mov	r0, r3
 800588e:	f000 f913 	bl	8005ab8 <XMC_SCU_CLOCK_SetSystemClockDivider>
  XMC_SCU_CLOCK_SetCpuClockDivider((uint32_t)config->fcpu_clkdiv);
 8005892:	687b      	ldr	r3, [r7, #4]
 8005894:	7c5b      	ldrb	r3, [r3, #17]
 8005896:	4618      	mov	r0, r3
 8005898:	f000 f936 	bl	8005b08 <XMC_SCU_CLOCK_SetCpuClockDivider>
  XMC_SCU_CLOCK_SetCcuClockDivider((uint32_t)config->fccu_clkdiv);
 800589c:	687b      	ldr	r3, [r7, #4]
 800589e:	7c9b      	ldrb	r3, [r3, #18]
 80058a0:	4618      	mov	r0, r3
 80058a2:	f000 f91d 	bl	8005ae0 <XMC_SCU_CLOCK_SetCcuClockDivider>
  XMC_SCU_CLOCK_SetPeripheralClockDivider((uint32_t)config->fperipheral_clkdiv);
 80058a6:	687b      	ldr	r3, [r7, #4]
 80058a8:	7cdb      	ldrb	r3, [r3, #19]
 80058aa:	4618      	mov	r0, r3
 80058ac:	f000 f940 	bl	8005b30 <XMC_SCU_CLOCK_SetPeripheralClockDivider>

  if (config->enable_oschp == true)
 80058b0:	687b      	ldr	r3, [r7, #4]
 80058b2:	799b      	ldrb	r3, [r3, #6]
 80058b4:	2b00      	cmp	r3, #0
 80058b6:	d00a      	beq.n	80058ce <XMC_SCU_CLOCK_Init+0x96>
  {
    XMC_SCU_CLOCK_EnableHighPerformanceOscillator();
 80058b8:	f000 fac0 	bl	8005e3c <XMC_SCU_CLOCK_EnableHighPerformanceOscillator>
    while (XMC_SCU_CLOCK_IsHighPerformanceOscillatorStable() == false);
 80058bc:	bf00      	nop
 80058be:	f000 fae5 	bl	8005e8c <XMC_SCU_CLOCK_IsHighPerformanceOscillatorStable>
 80058c2:	4603      	mov	r3, r0
 80058c4:	f083 0301 	eor.w	r3, r3, #1
 80058c8:	b2db      	uxtb	r3, r3
 80058ca:	2b00      	cmp	r3, #0
 80058cc:	d1f7      	bne.n	80058be <XMC_SCU_CLOCK_Init+0x86>
  }

  if (config->syspll_config.mode == XMC_SCU_CLOCK_SYSPLL_MODE_DISABLED)
 80058ce:	687b      	ldr	r3, [r7, #4]
 80058d0:	78db      	ldrb	r3, [r3, #3]
 80058d2:	2b00      	cmp	r3, #0
 80058d4:	d109      	bne.n	80058ea <XMC_SCU_CLOCK_Init+0xb2>
  {
    /* Do not enable PLL Power Down Mode when the OSC Watchdog is enabled */
    if (config->enable_oschp == false)
 80058d6:	687b      	ldr	r3, [r7, #4]
 80058d8:	799b      	ldrb	r3, [r3, #6]
 80058da:	f083 0301 	eor.w	r3, r3, #1
 80058de:	b2db      	uxtb	r3, r3
 80058e0:	2b00      	cmp	r3, #0
 80058e2:	d017      	beq.n	8005914 <XMC_SCU_CLOCK_Init+0xdc>
    {
      XMC_SCU_CLOCK_DisableSystemPll();
 80058e4:	f000 faf6 	bl	8005ed4 <XMC_SCU_CLOCK_DisableSystemPll>
 80058e8:	e014      	b.n	8005914 <XMC_SCU_CLOCK_Init+0xdc>
    }
  }
  else
  {

    XMC_SCU_CLOCK_EnableSystemPll();
 80058ea:	f000 fae3 	bl	8005eb4 <XMC_SCU_CLOCK_EnableSystemPll>
    XMC_SCU_CLOCK_StartSystemPll(config->syspll_config.clksrc,
 80058ee:	687b      	ldr	r3, [r7, #4]
 80058f0:	8899      	ldrh	r1, [r3, #4]
 80058f2:	687b      	ldr	r3, [r7, #4]
 80058f4:	78da      	ldrb	r2, [r3, #3]
                                 config->syspll_config.mode,
                                 (uint32_t)config->syspll_config.p_div,
 80058f6:	687b      	ldr	r3, [r7, #4]
 80058f8:	785b      	ldrb	r3, [r3, #1]
  }
  else
  {

    XMC_SCU_CLOCK_EnableSystemPll();
    XMC_SCU_CLOCK_StartSystemPll(config->syspll_config.clksrc,
 80058fa:	461d      	mov	r5, r3
                                 config->syspll_config.mode,
                                 (uint32_t)config->syspll_config.p_div,
                                 (uint32_t)config->syspll_config.n_div,
 80058fc:	687b      	ldr	r3, [r7, #4]
 80058fe:	781b      	ldrb	r3, [r3, #0]
  }
  else
  {

    XMC_SCU_CLOCK_EnableSystemPll();
    XMC_SCU_CLOCK_StartSystemPll(config->syspll_config.clksrc,
 8005900:	461c      	mov	r4, r3
                                 config->syspll_config.mode,
                                 (uint32_t)config->syspll_config.p_div,
                                 (uint32_t)config->syspll_config.n_div,
                                 (uint32_t)config->syspll_config.k_div);
 8005902:	687b      	ldr	r3, [r7, #4]
 8005904:	789b      	ldrb	r3, [r3, #2]
  }
  else
  {

    XMC_SCU_CLOCK_EnableSystemPll();
    XMC_SCU_CLOCK_StartSystemPll(config->syspll_config.clksrc,
 8005906:	9300      	str	r3, [sp, #0]
 8005908:	4608      	mov	r0, r1
 800590a:	4611      	mov	r1, r2
 800590c:	462a      	mov	r2, r5
 800590e:	4623      	mov	r3, r4
 8005910:	f000 faf0 	bl	8005ef4 <XMC_SCU_CLOCK_StartSystemPll>
                                 (uint32_t)config->syspll_config.n_div,
                                 (uint32_t)config->syspll_config.k_div);
  }

  /* use SYSPLL? */
  if (config->fsys_clksrc == XMC_SCU_CLOCK_SYSCLKSRC_PLL)
 8005914:	687b      	ldr	r3, [r7, #4]
 8005916:	68db      	ldr	r3, [r3, #12]
 8005918:	f5b3 3f80 	cmp.w	r3, #65536	; 0x10000
 800591c:	d103      	bne.n	8005926 <XMC_SCU_CLOCK_Init+0xee>
  {
    XMC_SCU_CLOCK_SetSystemClockSource(XMC_SCU_CLOCK_SYSCLKSRC_PLL);
 800591e:	f44f 3080 	mov.w	r0, #65536	; 0x10000
 8005922:	f000 f831 	bl	8005988 <XMC_SCU_CLOCK_SetSystemClockSource>
  }
  SystemCoreClockUpdate();
 8005926:	f7fa fcc9 	bl	80002bc <SystemCoreClockUpdate>
}
 800592a:	3708      	adds	r7, #8
 800592c:	46bd      	mov	sp, r7
 800592e:	bdb0      	pop	{r4, r5, r7, pc}

08005930 <XMC_SCU_RESET_DeassertPeripheralReset>:
  *(volatile uint32_t *)(&(SCU_RESET->PRSET0) + (index * 3U)) = (uint32_t)mask;
}

/* API to manually de-assert a reset request */
void XMC_SCU_RESET_DeassertPeripheralReset(const XMC_SCU_PERIPHERAL_RESET_t peripheral)
{
 8005930:	b480      	push	{r7}
 8005932:	b085      	sub	sp, #20
 8005934:	af00      	add	r7, sp, #0
 8005936:	6078      	str	r0, [r7, #4]
  uint32_t index = (uint32_t)((((uint32_t)peripheral) & 0xf0000000UL) >> 28UL);
 8005938:	687b      	ldr	r3, [r7, #4]
 800593a:	0f1b      	lsrs	r3, r3, #28
 800593c:	60fb      	str	r3, [r7, #12]
  uint32_t mask = (((uint32_t)peripheral) & ((uint32_t)~0xf0000000UL));
 800593e:	687b      	ldr	r3, [r7, #4]
 8005940:	f023 4370 	bic.w	r3, r3, #4026531840	; 0xf0000000
 8005944:	60bb      	str	r3, [r7, #8]

  *(volatile uint32_t *)(&(SCU_RESET->PRCLR0) + (index * 3U)) = (uint32_t)mask;
 8005946:	68fa      	ldr	r2, [r7, #12]
 8005948:	4613      	mov	r3, r2
 800594a:	005b      	lsls	r3, r3, #1
 800594c:	4413      	add	r3, r2
 800594e:	009b      	lsls	r3, r3, #2
 8005950:	461a      	mov	r2, r3
 8005952:	4b04      	ldr	r3, [pc, #16]	; (8005964 <XMC_SCU_RESET_DeassertPeripheralReset+0x34>)
 8005954:	4413      	add	r3, r2
 8005956:	68ba      	ldr	r2, [r7, #8]
 8005958:	601a      	str	r2, [r3, #0]
}
 800595a:	3714      	adds	r7, #20
 800595c:	46bd      	mov	sp, r7
 800595e:	f85d 7b04 	ldr.w	r7, [sp], #4
 8005962:	4770      	bx	lr
 8005964:	50004414 	.word	0x50004414

08005968 <XMC_SCU_CLOCK_GetPeripheralClockFrequency>:

/*
 * API to retrieve clock frequency of peripherals on the peripheral bus using a shared functional clock
 */
uint32_t XMC_SCU_CLOCK_GetPeripheralClockFrequency(void)
{
 8005968:	b580      	push	{r7, lr}
 800596a:	af00      	add	r7, sp, #0
  return (uint32_t)(XMC_SCU_CLOCK_GetCpuClockFrequency() >>
 800596c:	f7ff ff10 	bl	8005790 <XMC_SCU_CLOCK_GetCpuClockFrequency>
 8005970:	4602      	mov	r2, r0
                    ((SCU_CLK->PBCLKCR & SCU_CLK_PBCLKCR_PBDIV_Msk) >> SCU_CLK_PBCLKCR_PBDIV_Pos));
 8005972:	4b04      	ldr	r3, [pc, #16]	; (8005984 <XMC_SCU_CLOCK_GetPeripheralClockFrequency+0x1c>)
 8005974:	695b      	ldr	r3, [r3, #20]
/*
 * API to retrieve clock frequency of peripherals on the peripheral bus using a shared functional clock
 */
uint32_t XMC_SCU_CLOCK_GetPeripheralClockFrequency(void)
{
  return (uint32_t)(XMC_SCU_CLOCK_GetCpuClockFrequency() >>
 8005976:	f003 0301 	and.w	r3, r3, #1
 800597a:	fa22 f303 	lsr.w	r3, r2, r3
                    ((SCU_CLK->PBCLKCR & SCU_CLK_PBCLKCR_PBDIV_Msk) >> SCU_CLK_PBCLKCR_PBDIV_Pos));
}
 800597e:	4618      	mov	r0, r3
 8005980:	bd80      	pop	{r7, pc}
 8005982:	bf00      	nop
 8005984:	50004600 	.word	0x50004600

08005988 <XMC_SCU_CLOCK_SetSystemClockSource>:

/* API to select fSYS */
void XMC_SCU_CLOCK_SetSystemClockSource(const XMC_SCU_CLOCK_SYSCLKSRC_t source)
{
 8005988:	b480      	push	{r7}
 800598a:	b083      	sub	sp, #12
 800598c:	af00      	add	r7, sp, #0
 800598e:	6078      	str	r0, [r7, #4]
  SCU_CLK->SYSCLKCR = (SCU_CLK->SYSCLKCR & ((uint32_t)~SCU_CLK_SYSCLKCR_SYSSEL_Msk)) |
 8005990:	4906      	ldr	r1, [pc, #24]	; (80059ac <XMC_SCU_CLOCK_SetSystemClockSource+0x24>)
 8005992:	4b06      	ldr	r3, [pc, #24]	; (80059ac <XMC_SCU_CLOCK_SetSystemClockSource+0x24>)
 8005994:	68db      	ldr	r3, [r3, #12]
 8005996:	f423 3280 	bic.w	r2, r3, #65536	; 0x10000
 800599a:	687b      	ldr	r3, [r7, #4]
 800599c:	4313      	orrs	r3, r2
 800599e:	60cb      	str	r3, [r1, #12]
                      ((uint32_t)source);
}
 80059a0:	370c      	adds	r7, #12
 80059a2:	46bd      	mov	sp, r7
 80059a4:	f85d 7b04 	ldr.w	r7, [sp], #4
 80059a8:	4770      	bx	lr
 80059aa:	bf00      	nop
 80059ac:	50004600 	.word	0x50004600

080059b0 <XMC_SCU_CLOCK_SetUsbClockSource>:

/* API to select fUSB */
void XMC_SCU_CLOCK_SetUsbClockSource(const XMC_SCU_CLOCK_USBCLKSRC_t source)
{
 80059b0:	b480      	push	{r7}
 80059b2:	b083      	sub	sp, #12
 80059b4:	af00      	add	r7, sp, #0
 80059b6:	6078      	str	r0, [r7, #4]
  SCU_CLK->USBCLKCR = (SCU_CLK->USBCLKCR & ((uint32_t)~SCU_CLK_USBCLKCR_USBSEL_Msk)) |
 80059b8:	4906      	ldr	r1, [pc, #24]	; (80059d4 <XMC_SCU_CLOCK_SetUsbClockSource+0x24>)
 80059ba:	4b06      	ldr	r3, [pc, #24]	; (80059d4 <XMC_SCU_CLOCK_SetUsbClockSource+0x24>)
 80059bc:	699b      	ldr	r3, [r3, #24]
 80059be:	f423 3280 	bic.w	r2, r3, #65536	; 0x10000
 80059c2:	687b      	ldr	r3, [r7, #4]
 80059c4:	4313      	orrs	r3, r2
 80059c6:	618b      	str	r3, [r1, #24]
                      ((uint32_t)source);
}
 80059c8:	370c      	adds	r7, #12
 80059ca:	46bd      	mov	sp, r7
 80059cc:	f85d 7b04 	ldr.w	r7, [sp], #4
 80059d0:	4770      	bx	lr
 80059d2:	bf00      	nop
 80059d4:	50004600 	.word	0x50004600

080059d8 <XMC_SCU_CLOCK_SetWdtClockSource>:

/* API to select fWDT */
void XMC_SCU_CLOCK_SetWdtClockSource(const XMC_SCU_CLOCK_WDTCLKSRC_t source)
{
 80059d8:	b480      	push	{r7}
 80059da:	b083      	sub	sp, #12
 80059dc:	af00      	add	r7, sp, #0
 80059de:	6078      	str	r0, [r7, #4]
  SCU_CLK->WDTCLKCR = (SCU_CLK->WDTCLKCR & ((uint32_t)~SCU_CLK_WDTCLKCR_WDTSEL_Msk)) |
 80059e0:	4906      	ldr	r1, [pc, #24]	; (80059fc <XMC_SCU_CLOCK_SetWdtClockSource+0x24>)
 80059e2:	4b06      	ldr	r3, [pc, #24]	; (80059fc <XMC_SCU_CLOCK_SetWdtClockSource+0x24>)
 80059e4:	6a5b      	ldr	r3, [r3, #36]	; 0x24
 80059e6:	f423 3240 	bic.w	r2, r3, #196608	; 0x30000
 80059ea:	687b      	ldr	r3, [r7, #4]
 80059ec:	4313      	orrs	r3, r2
 80059ee:	624b      	str	r3, [r1, #36]	; 0x24
                      ((uint32_t)source);
}
 80059f0:	370c      	adds	r7, #12
 80059f2:	46bd      	mov	sp, r7
 80059f4:	f85d 7b04 	ldr.w	r7, [sp], #4
 80059f8:	4770      	bx	lr
 80059fa:	bf00      	nop
 80059fc:	50004600 	.word	0x50004600

08005a00 <XMC_SCU_CLOCK_SetSystemPllClockSource>:
                      ((uint32_t)source);
}

/* API to select fPLL */
void XMC_SCU_CLOCK_SetSystemPllClockSource(const XMC_SCU_CLOCK_SYSPLLCLKSRC_t source)
{
 8005a00:	b480      	push	{r7}
 8005a02:	b083      	sub	sp, #12
 8005a04:	af00      	add	r7, sp, #0
 8005a06:	4603      	mov	r3, r0
 8005a08:	80fb      	strh	r3, [r7, #6]
  /* Check input clock */
  if (source == XMC_SCU_CLOCK_SYSPLLCLKSRC_OSCHP) /* Select PLLClockSource */
 8005a0a:	88fb      	ldrh	r3, [r7, #6]
 8005a0c:	2b00      	cmp	r3, #0
 8005a0e:	d108      	bne.n	8005a22 <XMC_SCU_CLOCK_SetSystemPllClockSource+0x22>
  {
    SCU_PLL->PLLCON2 &= (uint32_t)~(SCU_PLL_PLLCON2_PINSEL_Msk | SCU_PLL_PLLCON2_K1INSEL_Msk);
 8005a10:	4a0a      	ldr	r2, [pc, #40]	; (8005a3c <XMC_SCU_CLOCK_SetSystemPllClockSource+0x3c>)
 8005a12:	4b0a      	ldr	r3, [pc, #40]	; (8005a3c <XMC_SCU_CLOCK_SetSystemPllClockSource+0x3c>)
 8005a14:	68db      	ldr	r3, [r3, #12]
 8005a16:	f423 7380 	bic.w	r3, r3, #256	; 0x100
 8005a1a:	f023 0301 	bic.w	r3, r3, #1
 8005a1e:	60d3      	str	r3, [r2, #12]
 8005a20:	e007      	b.n	8005a32 <XMC_SCU_CLOCK_SetSystemPllClockSource+0x32>
  }
  else
  {
    SCU_PLL->PLLCON2 |= (uint32_t)(SCU_PLL_PLLCON2_PINSEL_Msk | SCU_PLL_PLLCON2_K1INSEL_Msk);
 8005a22:	4a06      	ldr	r2, [pc, #24]	; (8005a3c <XMC_SCU_CLOCK_SetSystemPllClockSource+0x3c>)
 8005a24:	4b05      	ldr	r3, [pc, #20]	; (8005a3c <XMC_SCU_CLOCK_SetSystemPllClockSource+0x3c>)
 8005a26:	68db      	ldr	r3, [r3, #12]
 8005a28:	f443 7380 	orr.w	r3, r3, #256	; 0x100
 8005a2c:	f043 0301 	orr.w	r3, r3, #1
 8005a30:	60d3      	str	r3, [r2, #12]
  }
}
 8005a32:	370c      	adds	r7, #12
 8005a34:	46bd      	mov	sp, r7
 8005a36:	f85d 7b04 	ldr.w	r7, [sp], #4
 8005a3a:	4770      	bx	lr
 8005a3c:	50004710 	.word	0x50004710

08005a40 <XMC_SCU_HIB_SetRtcClockSource>:

/* API to select fRTC */
void XMC_SCU_HIB_SetRtcClockSource(const XMC_SCU_HIB_RTCCLKSRC_t source)
{
 8005a40:	b480      	push	{r7}
 8005a42:	b083      	sub	sp, #12
 8005a44:	af00      	add	r7, sp, #0
 8005a46:	4603      	mov	r3, r0
 8005a48:	71fb      	strb	r3, [r7, #7]
  /* Wait until the update of HDCR register in hibernate domain is completed */
  while ((SCU_GENERAL->MIRRSTS) & SCU_GENERAL_MIRRSTS_HDCR_Msk)
 8005a4a:	bf00      	nop
 8005a4c:	4b09      	ldr	r3, [pc, #36]	; (8005a74 <XMC_SCU_HIB_SetRtcClockSource+0x34>)
 8005a4e:	f8d3 30c4 	ldr.w	r3, [r3, #196]	; 0xc4
 8005a52:	f003 0308 	and.w	r3, r3, #8
 8005a56:	2b00      	cmp	r3, #0
 8005a58:	d1f8      	bne.n	8005a4c <XMC_SCU_HIB_SetRtcClockSource+0xc>
  {
  }

  SCU_HIBERNATE->HDCR = (SCU_HIBERNATE->HDCR & ((uint32_t)~SCU_HIBERNATE_HDCR_RCS_Msk)) |
 8005a5a:	4907      	ldr	r1, [pc, #28]	; (8005a78 <XMC_SCU_HIB_SetRtcClockSource+0x38>)
 8005a5c:	4b06      	ldr	r3, [pc, #24]	; (8005a78 <XMC_SCU_HIB_SetRtcClockSource+0x38>)
 8005a5e:	68db      	ldr	r3, [r3, #12]
 8005a60:	f023 0240 	bic.w	r2, r3, #64	; 0x40
                        ((uint32_t)source);
 8005a64:	79fb      	ldrb	r3, [r7, #7]
  /* Wait until the update of HDCR register in hibernate domain is completed */
  while ((SCU_GENERAL->MIRRSTS) & SCU_GENERAL_MIRRSTS_HDCR_Msk)
  {
  }

  SCU_HIBERNATE->HDCR = (SCU_HIBERNATE->HDCR & ((uint32_t)~SCU_HIBERNATE_HDCR_RCS_Msk)) |
 8005a66:	4313      	orrs	r3, r2
 8005a68:	60cb      	str	r3, [r1, #12]
                        ((uint32_t)source);
}
 8005a6a:	370c      	adds	r7, #12
 8005a6c:	46bd      	mov	sp, r7
 8005a6e:	f85d 7b04 	ldr.w	r7, [sp], #4
 8005a72:	4770      	bx	lr
 8005a74:	50004000 	.word	0x50004000
 8005a78:	50004300 	.word	0x50004300

08005a7c <XMC_SCU_HIB_SetStandbyClockSource>:

/* API to select fSTDBY */
void XMC_SCU_HIB_SetStandbyClockSource(const XMC_SCU_HIB_STDBYCLKSRC_t source)
{
 8005a7c:	b480      	push	{r7}
 8005a7e:	b083      	sub	sp, #12
 8005a80:	af00      	add	r7, sp, #0
 8005a82:	4603      	mov	r3, r0
 8005a84:	71fb      	strb	r3, [r7, #7]
  while ((SCU_GENERAL->MIRRSTS) & SCU_GENERAL_MIRRSTS_HDCR_Msk)
 8005a86:	bf00      	nop
 8005a88:	4b09      	ldr	r3, [pc, #36]	; (8005ab0 <XMC_SCU_HIB_SetStandbyClockSource+0x34>)
 8005a8a:	f8d3 30c4 	ldr.w	r3, [r3, #196]	; 0xc4
 8005a8e:	f003 0308 	and.w	r3, r3, #8
 8005a92:	2b00      	cmp	r3, #0
 8005a94:	d1f8      	bne.n	8005a88 <XMC_SCU_HIB_SetStandbyClockSource+0xc>
  {
    /* check SCU_MIRRSTS to ensure that no transfer over serial interface is pending */
  }
  SCU_HIBERNATE->HDCR = (SCU_HIBERNATE->HDCR & ((uint32_t)~SCU_HIBERNATE_HDCR_STDBYSEL_Msk)) |
 8005a96:	4907      	ldr	r1, [pc, #28]	; (8005ab4 <XMC_SCU_HIB_SetStandbyClockSource+0x38>)
 8005a98:	4b06      	ldr	r3, [pc, #24]	; (8005ab4 <XMC_SCU_HIB_SetStandbyClockSource+0x38>)
 8005a9a:	68db      	ldr	r3, [r3, #12]
 8005a9c:	f023 0280 	bic.w	r2, r3, #128	; 0x80
                        ((uint32_t)source);
 8005aa0:	79fb      	ldrb	r3, [r7, #7]
{
  while ((SCU_GENERAL->MIRRSTS) & SCU_GENERAL_MIRRSTS_HDCR_Msk)
  {
    /* check SCU_MIRRSTS to ensure that no transfer over serial interface is pending */
  }
  SCU_HIBERNATE->HDCR = (SCU_HIBERNATE->HDCR & ((uint32_t)~SCU_HIBERNATE_HDCR_STDBYSEL_Msk)) |
 8005aa2:	4313      	orrs	r3, r2
 8005aa4:	60cb      	str	r3, [r1, #12]
                        ((uint32_t)source);
}
 8005aa6:	370c      	adds	r7, #12
 8005aa8:	46bd      	mov	sp, r7
 8005aaa:	f85d 7b04 	ldr.w	r7, [sp], #4
 8005aae:	4770      	bx	lr
 8005ab0:	50004000 	.word	0x50004000
 8005ab4:	50004300 	.word	0x50004300

08005ab8 <XMC_SCU_CLOCK_SetSystemClockDivider>:

/* API to program the divider placed between fsys and its parent */
void XMC_SCU_CLOCK_SetSystemClockDivider(const uint32_t divider)
{
 8005ab8:	b480      	push	{r7}
 8005aba:	b083      	sub	sp, #12
 8005abc:	af00      	add	r7, sp, #0
 8005abe:	6078      	str	r0, [r7, #4]
  XMC_ASSERT("XMC_SCU_CLOCK_SetSystemClockDivider:Wrong clock divider value",
             (divider <= (SCU_CLK_SYSCLKCR_SYSDIV_Msk + 1UL)) );

  SCU_CLK->SYSCLKCR = (SCU_CLK->SYSCLKCR & ((uint32_t)~SCU_CLK_SYSCLKCR_SYSDIV_Msk)) |
 8005ac0:	4906      	ldr	r1, [pc, #24]	; (8005adc <XMC_SCU_CLOCK_SetSystemClockDivider+0x24>)
 8005ac2:	4b06      	ldr	r3, [pc, #24]	; (8005adc <XMC_SCU_CLOCK_SetSystemClockDivider+0x24>)
 8005ac4:	68db      	ldr	r3, [r3, #12]
 8005ac6:	f023 02ff 	bic.w	r2, r3, #255	; 0xff
                      ((uint32_t)(((uint32_t)(divider - 1UL)) << SCU_CLK_SYSCLKCR_SYSDIV_Pos));
 8005aca:	687b      	ldr	r3, [r7, #4]
 8005acc:	3b01      	subs	r3, #1
void XMC_SCU_CLOCK_SetSystemClockDivider(const uint32_t divider)
{
  XMC_ASSERT("XMC_SCU_CLOCK_SetSystemClockDivider:Wrong clock divider value",
             (divider <= (SCU_CLK_SYSCLKCR_SYSDIV_Msk + 1UL)) );

  SCU_CLK->SYSCLKCR = (SCU_CLK->SYSCLKCR & ((uint32_t)~SCU_CLK_SYSCLKCR_SYSDIV_Msk)) |
 8005ace:	4313      	orrs	r3, r2
 8005ad0:	60cb      	str	r3, [r1, #12]
                      ((uint32_t)(((uint32_t)(divider - 1UL)) << SCU_CLK_SYSCLKCR_SYSDIV_Pos));
}
 8005ad2:	370c      	adds	r7, #12
 8005ad4:	46bd      	mov	sp, r7
 8005ad6:	f85d 7b04 	ldr.w	r7, [sp], #4
 8005ada:	4770      	bx	lr
 8005adc:	50004600 	.word	0x50004600

08005ae0 <XMC_SCU_CLOCK_SetCcuClockDivider>:

/* API to program the divider placed between fccu and its parent */
void XMC_SCU_CLOCK_SetCcuClockDivider(const uint32_t divider)
{
 8005ae0:	b480      	push	{r7}
 8005ae2:	b083      	sub	sp, #12
 8005ae4:	af00      	add	r7, sp, #0
 8005ae6:	6078      	str	r0, [r7, #4]
  XMC_ASSERT("XMC_SCU_CLOCK_SetCapcomClockDivider:Wrong clock divider value", (divider <= 2UL) );

  SCU_CLK->CCUCLKCR = (SCU_CLK->CCUCLKCR & ((uint32_t)~SCU_CLK_CCUCLKCR_CCUDIV_Msk)) |
 8005ae8:	4906      	ldr	r1, [pc, #24]	; (8005b04 <XMC_SCU_CLOCK_SetCcuClockDivider+0x24>)
 8005aea:	4b06      	ldr	r3, [pc, #24]	; (8005b04 <XMC_SCU_CLOCK_SetCcuClockDivider+0x24>)
 8005aec:	6a1b      	ldr	r3, [r3, #32]
 8005aee:	f023 0201 	bic.w	r2, r3, #1
                      (uint32_t)((uint32_t)(divider - 1UL) << SCU_CLK_CCUCLKCR_CCUDIV_Pos);
 8005af2:	687b      	ldr	r3, [r7, #4]
 8005af4:	3b01      	subs	r3, #1
/* API to program the divider placed between fccu and its parent */
void XMC_SCU_CLOCK_SetCcuClockDivider(const uint32_t divider)
{
  XMC_ASSERT("XMC_SCU_CLOCK_SetCapcomClockDivider:Wrong clock divider value", (divider <= 2UL) );

  SCU_CLK->CCUCLKCR = (SCU_CLK->CCUCLKCR & ((uint32_t)~SCU_CLK_CCUCLKCR_CCUDIV_Msk)) |
 8005af6:	4313      	orrs	r3, r2
 8005af8:	620b      	str	r3, [r1, #32]
                      (uint32_t)((uint32_t)(divider - 1UL) << SCU_CLK_CCUCLKCR_CCUDIV_Pos);
}
 8005afa:	370c      	adds	r7, #12
 8005afc:	46bd      	mov	sp, r7
 8005afe:	f85d 7b04 	ldr.w	r7, [sp], #4
 8005b02:	4770      	bx	lr
 8005b04:	50004600 	.word	0x50004600

08005b08 <XMC_SCU_CLOCK_SetCpuClockDivider>:

/* API to program the divider placed between fcpu and its parent */
void XMC_SCU_CLOCK_SetCpuClockDivider(const uint32_t divider)
{
 8005b08:	b480      	push	{r7}
 8005b0a:	b083      	sub	sp, #12
 8005b0c:	af00      	add	r7, sp, #0
 8005b0e:	6078      	str	r0, [r7, #4]
  XMC_ASSERT("XMC_SCU_CLOCK_SetCpuClockDivider:Wrong clock divider value", (divider <= 2UL) );

  SCU_CLK->CPUCLKCR = (SCU_CLK->CPUCLKCR & ((uint32_t)~SCU_CLK_CPUCLKCR_CPUDIV_Msk)) |
 8005b10:	4906      	ldr	r1, [pc, #24]	; (8005b2c <XMC_SCU_CLOCK_SetCpuClockDivider+0x24>)
 8005b12:	4b06      	ldr	r3, [pc, #24]	; (8005b2c <XMC_SCU_CLOCK_SetCpuClockDivider+0x24>)
 8005b14:	691b      	ldr	r3, [r3, #16]
 8005b16:	f023 0201 	bic.w	r2, r3, #1
                      (uint32_t)((uint32_t)(divider - 1UL) << SCU_CLK_CPUCLKCR_CPUDIV_Pos);
 8005b1a:	687b      	ldr	r3, [r7, #4]
 8005b1c:	3b01      	subs	r3, #1
/* API to program the divider placed between fcpu and its parent */
void XMC_SCU_CLOCK_SetCpuClockDivider(const uint32_t divider)
{
  XMC_ASSERT("XMC_SCU_CLOCK_SetCpuClockDivider:Wrong clock divider value", (divider <= 2UL) );

  SCU_CLK->CPUCLKCR = (SCU_CLK->CPUCLKCR & ((uint32_t)~SCU_CLK_CPUCLKCR_CPUDIV_Msk)) |
 8005b1e:	4313      	orrs	r3, r2
 8005b20:	610b      	str	r3, [r1, #16]
                      (uint32_t)((uint32_t)(divider - 1UL) << SCU_CLK_CPUCLKCR_CPUDIV_Pos);
}
 8005b22:	370c      	adds	r7, #12
 8005b24:	46bd      	mov	sp, r7
 8005b26:	f85d 7b04 	ldr.w	r7, [sp], #4
 8005b2a:	4770      	bx	lr
 8005b2c:	50004600 	.word	0x50004600

08005b30 <XMC_SCU_CLOCK_SetPeripheralClockDivider>:

/* API to program the divider placed between fperiph and its parent */
void XMC_SCU_CLOCK_SetPeripheralClockDivider(const uint32_t divider)
{
 8005b30:	b480      	push	{r7}
 8005b32:	b083      	sub	sp, #12
 8005b34:	af00      	add	r7, sp, #0
 8005b36:	6078      	str	r0, [r7, #4]
  XMC_ASSERT("XMC_SCU_CLOCK_SetPeripheralClockDivider:Wrong clock divider value", (divider <= 2UL) );

  SCU_CLK->PBCLKCR = (SCU_CLK->PBCLKCR & ((uint32_t)~SCU_CLK_PBCLKCR_PBDIV_Msk)) |
 8005b38:	4906      	ldr	r1, [pc, #24]	; (8005b54 <XMC_SCU_CLOCK_SetPeripheralClockDivider+0x24>)
 8005b3a:	4b06      	ldr	r3, [pc, #24]	; (8005b54 <XMC_SCU_CLOCK_SetPeripheralClockDivider+0x24>)
 8005b3c:	695b      	ldr	r3, [r3, #20]
 8005b3e:	f023 0201 	bic.w	r2, r3, #1
                     ((uint32_t)((uint32_t)(divider - 1UL) << SCU_CLK_PBCLKCR_PBDIV_Pos));
 8005b42:	687b      	ldr	r3, [r7, #4]
 8005b44:	3b01      	subs	r3, #1
/* API to program the divider placed between fperiph and its parent */
void XMC_SCU_CLOCK_SetPeripheralClockDivider(const uint32_t divider)
{
  XMC_ASSERT("XMC_SCU_CLOCK_SetPeripheralClockDivider:Wrong clock divider value", (divider <= 2UL) );

  SCU_CLK->PBCLKCR = (SCU_CLK->PBCLKCR & ((uint32_t)~SCU_CLK_PBCLKCR_PBDIV_Msk)) |
 8005b46:	4313      	orrs	r3, r2
 8005b48:	614b      	str	r3, [r1, #20]
                     ((uint32_t)((uint32_t)(divider - 1UL) << SCU_CLK_PBCLKCR_PBDIV_Pos));
}
 8005b4a:	370c      	adds	r7, #12
 8005b4c:	46bd      	mov	sp, r7
 8005b4e:	f85d 7b04 	ldr.w	r7, [sp], #4
 8005b52:	4770      	bx	lr
 8005b54:	50004600 	.word	0x50004600

08005b58 <XMC_SCU_CLOCK_SetUsbClockDivider>:

/* API to program the divider placed between fsdmmc and its parent */
void XMC_SCU_CLOCK_SetUsbClockDivider(const uint32_t divider)
{
 8005b58:	b480      	push	{r7}
 8005b5a:	b083      	sub	sp, #12
 8005b5c:	af00      	add	r7, sp, #0
 8005b5e:	6078      	str	r0, [r7, #4]
  XMC_ASSERT("XMC_SCU_CLOCK_SetSdmmcClockDivider:Wrong clock divider value",
             (divider <= (SCU_CLK_USBCLKCR_USBDIV_Msk + 1UL)) );

  SCU_CLK->USBCLKCR = (SCU_CLK->USBCLKCR & ((uint32_t)~SCU_CLK_USBCLKCR_USBDIV_Msk)) |
 8005b60:	4906      	ldr	r1, [pc, #24]	; (8005b7c <XMC_SCU_CLOCK_SetUsbClockDivider+0x24>)
 8005b62:	4b06      	ldr	r3, [pc, #24]	; (8005b7c <XMC_SCU_CLOCK_SetUsbClockDivider+0x24>)
 8005b64:	699b      	ldr	r3, [r3, #24]
 8005b66:	f023 0207 	bic.w	r2, r3, #7
                      (uint32_t)((uint32_t)(divider - 1UL) << SCU_CLK_USBCLKCR_USBDIV_Pos);
 8005b6a:	687b      	ldr	r3, [r7, #4]
 8005b6c:	3b01      	subs	r3, #1
void XMC_SCU_CLOCK_SetUsbClockDivider(const uint32_t divider)
{
  XMC_ASSERT("XMC_SCU_CLOCK_SetSdmmcClockDivider:Wrong clock divider value",
             (divider <= (SCU_CLK_USBCLKCR_USBDIV_Msk + 1UL)) );

  SCU_CLK->USBCLKCR = (SCU_CLK->USBCLKCR & ((uint32_t)~SCU_CLK_USBCLKCR_USBDIV_Msk)) |
 8005b6e:	4313      	orrs	r3, r2
 8005b70:	618b      	str	r3, [r1, #24]
                      (uint32_t)((uint32_t)(divider - 1UL) << SCU_CLK_USBCLKCR_USBDIV_Pos);
}
 8005b72:	370c      	adds	r7, #12
 8005b74:	46bd      	mov	sp, r7
 8005b76:	f85d 7b04 	ldr.w	r7, [sp], #4
 8005b7a:	4770      	bx	lr
 8005b7c:	50004600 	.word	0x50004600

08005b80 <XMC_SCU_CLOCK_SetEbuClockDivider>:

#if defined(EBU)
/* API to program the divider placed between febu and its parent */
void XMC_SCU_CLOCK_SetEbuClockDivider(const uint32_t divider)
{
 8005b80:	b480      	push	{r7}
 8005b82:	b083      	sub	sp, #12
 8005b84:	af00      	add	r7, sp, #0
 8005b86:	6078      	str	r0, [r7, #4]
  XMC_ASSERT("XMC_SCU_CLOCK_SetEbuClockDivider:Wrong clock divider value",
             (divider <= (SCU_CLK_EBUCLKCR_EBUDIV_Msk + 1UL) ) );

  SCU_CLK->EBUCLKCR = (SCU_CLK->EBUCLKCR & ((uint32_t)~SCU_CLK_EBUCLKCR_EBUDIV_Msk)) |
 8005b88:	4906      	ldr	r1, [pc, #24]	; (8005ba4 <XMC_SCU_CLOCK_SetEbuClockDivider+0x24>)
 8005b8a:	4b06      	ldr	r3, [pc, #24]	; (8005ba4 <XMC_SCU_CLOCK_SetEbuClockDivider+0x24>)
 8005b8c:	69db      	ldr	r3, [r3, #28]
 8005b8e:	f023 023f 	bic.w	r2, r3, #63	; 0x3f
                      (uint32_t)(((uint32_t)(divider - 1UL)) << SCU_CLK_EBUCLKCR_EBUDIV_Pos);
 8005b92:	687b      	ldr	r3, [r7, #4]
 8005b94:	3b01      	subs	r3, #1
void XMC_SCU_CLOCK_SetEbuClockDivider(const uint32_t divider)
{
  XMC_ASSERT("XMC_SCU_CLOCK_SetEbuClockDivider:Wrong clock divider value",
             (divider <= (SCU_CLK_EBUCLKCR_EBUDIV_Msk + 1UL) ) );

  SCU_CLK->EBUCLKCR = (SCU_CLK->EBUCLKCR & ((uint32_t)~SCU_CLK_EBUCLKCR_EBUDIV_Msk)) |
 8005b96:	4313      	orrs	r3, r2
 8005b98:	61cb      	str	r3, [r1, #28]
                      (uint32_t)(((uint32_t)(divider - 1UL)) << SCU_CLK_EBUCLKCR_EBUDIV_Pos);
}
 8005b9a:	370c      	adds	r7, #12
 8005b9c:	46bd      	mov	sp, r7
 8005b9e:	f85d 7b04 	ldr.w	r7, [sp], #4
 8005ba2:	4770      	bx	lr
 8005ba4:	50004600 	.word	0x50004600

08005ba8 <XMC_SCU_CLOCK_SetWdtClockDivider>:
#endif

/* API to program the divider placed between fwdt and its parent */
void XMC_SCU_CLOCK_SetWdtClockDivider(const uint32_t divider)
{
 8005ba8:	b480      	push	{r7}
 8005baa:	b083      	sub	sp, #12
 8005bac:	af00      	add	r7, sp, #0
 8005bae:	6078      	str	r0, [r7, #4]
  XMC_ASSERT("XMC_SCU_CLOCK_SetWdtClockDivider:Wrong clock divider value",
             (divider <= (SCU_CLK_WDTCLKCR_WDTDIV_Msk + 1UL) ) );

  SCU_CLK->WDTCLKCR = (SCU_CLK->WDTCLKCR & ((uint32_t)~SCU_CLK_WDTCLKCR_WDTDIV_Msk)) |
 8005bb0:	4906      	ldr	r1, [pc, #24]	; (8005bcc <XMC_SCU_CLOCK_SetWdtClockDivider+0x24>)
 8005bb2:	4b06      	ldr	r3, [pc, #24]	; (8005bcc <XMC_SCU_CLOCK_SetWdtClockDivider+0x24>)
 8005bb4:	6a5b      	ldr	r3, [r3, #36]	; 0x24
 8005bb6:	f023 02ff 	bic.w	r2, r3, #255	; 0xff
                      (uint32_t)(((uint32_t)(divider - 1UL)) << SCU_CLK_WDTCLKCR_WDTDIV_Pos);
 8005bba:	687b      	ldr	r3, [r7, #4]
 8005bbc:	3b01      	subs	r3, #1
void XMC_SCU_CLOCK_SetWdtClockDivider(const uint32_t divider)
{
  XMC_ASSERT("XMC_SCU_CLOCK_SetWdtClockDivider:Wrong clock divider value",
             (divider <= (SCU_CLK_WDTCLKCR_WDTDIV_Msk + 1UL) ) );

  SCU_CLK->WDTCLKCR = (SCU_CLK->WDTCLKCR & ((uint32_t)~SCU_CLK_WDTCLKCR_WDTDIV_Msk)) |
 8005bbe:	4313      	orrs	r3, r2
 8005bc0:	624b      	str	r3, [r1, #36]	; 0x24
                      (uint32_t)(((uint32_t)(divider - 1UL)) << SCU_CLK_WDTCLKCR_WDTDIV_Pos);
}
 8005bc2:	370c      	adds	r7, #12
 8005bc4:	46bd      	mov	sp, r7
 8005bc6:	f85d 7b04 	ldr.w	r7, [sp], #4
 8005bca:	4770      	bx	lr
 8005bcc:	50004600 	.word	0x50004600

08005bd0 <XMC_SCU_CLOCK_SetECATClockDivider>:
}

#if defined(ECAT0)
/* API to configure the ECAT clock by setting the clock divider for the ECAT clock source */
void XMC_SCU_CLOCK_SetECATClockDivider(const uint32_t divider)
{
 8005bd0:	b480      	push	{r7}
 8005bd2:	b083      	sub	sp, #12
 8005bd4:	af00      	add	r7, sp, #0
 8005bd6:	6078      	str	r0, [r7, #4]
  SCU_CLK->ECATCLKCR = (SCU_CLK->ECATCLKCR & ~SCU_CLK_ECATCLKCR_ECADIV_Msk) |
 8005bd8:	4906      	ldr	r1, [pc, #24]	; (8005bf4 <XMC_SCU_CLOCK_SetECATClockDivider+0x24>)
 8005bda:	4b06      	ldr	r3, [pc, #24]	; (8005bf4 <XMC_SCU_CLOCK_SetECATClockDivider+0x24>)
 8005bdc:	6b9b      	ldr	r3, [r3, #56]	; 0x38
 8005bde:	f023 0203 	bic.w	r2, r3, #3
                       (uint32_t)(((uint32_t)(divider - 1UL)) << SCU_CLK_ECATCLKCR_ECADIV_Pos);
 8005be2:	687b      	ldr	r3, [r7, #4]
 8005be4:	3b01      	subs	r3, #1

#if defined(ECAT0)
/* API to configure the ECAT clock by setting the clock divider for the ECAT clock source */
void XMC_SCU_CLOCK_SetECATClockDivider(const uint32_t divider)
{
  SCU_CLK->ECATCLKCR = (SCU_CLK->ECATCLKCR & ~SCU_CLK_ECATCLKCR_ECADIV_Msk) |
 8005be6:	4313      	orrs	r3, r2
 8005be8:	638b      	str	r3, [r1, #56]	; 0x38
                       (uint32_t)(((uint32_t)(divider - 1UL)) << SCU_CLK_ECATCLKCR_ECADIV_Pos);
}
 8005bea:	370c      	adds	r7, #12
 8005bec:	46bd      	mov	sp, r7
 8005bee:	f85d 7b04 	ldr.w	r7, [sp], #4
 8005bf2:	4770      	bx	lr
 8005bf4:	50004600 	.word	0x50004600

08005bf8 <XMC_SCU_CLOCK_UngatePeripheralClock>:
  *(volatile uint32_t *)((&(SCU_CLK->CGATSET0)) + (index * 3U)) = (uint32_t)mask;
}

/* API to ungate a given module clock */
void XMC_SCU_CLOCK_UngatePeripheralClock(const XMC_SCU_PERIPHERAL_CLOCK_t peripheral)
{
 8005bf8:	b480      	push	{r7}
 8005bfa:	b085      	sub	sp, #20
 8005bfc:	af00      	add	r7, sp, #0
 8005bfe:	6078      	str	r0, [r7, #4]
  uint32_t index = (uint32_t)((peripheral & 0xf0000000UL) >> 28UL);
 8005c00:	687b      	ldr	r3, [r7, #4]
 8005c02:	0f1b      	lsrs	r3, r3, #28
 8005c04:	60fb      	str	r3, [r7, #12]
  uint32_t mask = (peripheral & (uint32_t)~0xf0000000UL);
 8005c06:	687b      	ldr	r3, [r7, #4]
 8005c08:	f023 4370 	bic.w	r3, r3, #4026531840	; 0xf0000000
 8005c0c:	60bb      	str	r3, [r7, #8]

  *(volatile uint32_t *)(&(SCU_CLK->CGATCLR0) + (index * 3U)) = (uint32_t)mask;
 8005c0e:	68fa      	ldr	r2, [r7, #12]
 8005c10:	4613      	mov	r3, r2
 8005c12:	005b      	lsls	r3, r3, #1
 8005c14:	4413      	add	r3, r2
 8005c16:	009b      	lsls	r3, r3, #2
 8005c18:	461a      	mov	r2, r3
 8005c1a:	4b04      	ldr	r3, [pc, #16]	; (8005c2c <XMC_SCU_CLOCK_UngatePeripheralClock+0x34>)
 8005c1c:	4413      	add	r3, r2
 8005c1e:	68ba      	ldr	r2, [r7, #8]
 8005c20:	601a      	str	r2, [r3, #0]
}
 8005c22:	3714      	adds	r7, #20
 8005c24:	46bd      	mov	sp, r7
 8005c26:	f85d 7b04 	ldr.w	r7, [sp], #4
 8005c2a:	4770      	bx	lr
 8005c2c:	50004648 	.word	0x50004648

08005c30 <XMC_SCU_CLOCK_EnableUsbPll>:
  return ((SCU_POWER->EVRVADCSTAT & SCU_POWER_EVRVADCSTAT_VADC33V_Msk) >> SCU_POWER_EVRVADCSTAT_VADC33V_Pos) * XMC_SCU_POWER_LSB33V;
}

/* API to enable USB PLL for USB clock */
void XMC_SCU_CLOCK_EnableUsbPll(void)
{
 8005c30:	b480      	push	{r7}
 8005c32:	af00      	add	r7, sp, #0
  SCU_PLL->USBPLLCON &= (uint32_t)~(SCU_PLL_USBPLLCON_VCOPWD_Msk | SCU_PLL_USBPLLCON_PLLPWD_Msk);
 8005c34:	4a05      	ldr	r2, [pc, #20]	; (8005c4c <XMC_SCU_CLOCK_EnableUsbPll+0x1c>)
 8005c36:	4b05      	ldr	r3, [pc, #20]	; (8005c4c <XMC_SCU_CLOCK_EnableUsbPll+0x1c>)
 8005c38:	695b      	ldr	r3, [r3, #20]
 8005c3a:	f423 3380 	bic.w	r3, r3, #65536	; 0x10000
 8005c3e:	f023 0302 	bic.w	r3, r3, #2
 8005c42:	6153      	str	r3, [r2, #20]
}
 8005c44:	46bd      	mov	sp, r7
 8005c46:	f85d 7b04 	ldr.w	r7, [sp], #4
 8005c4a:	4770      	bx	lr
 8005c4c:	50004710 	.word	0x50004710

08005c50 <XMC_SCU_CLOCK_StartUsbPll>:
  SCU_PLL->USBPLLCON |= (uint32_t)(SCU_PLL_USBPLLCON_VCOPWD_Msk | SCU_PLL_USBPLLCON_PLLPWD_Msk);
}

/* API to configure USB PLL */
void XMC_SCU_CLOCK_StartUsbPll(uint32_t pdiv, uint32_t ndiv)
{
 8005c50:	b480      	push	{r7}
 8005c52:	b083      	sub	sp, #12
 8005c54:	af00      	add	r7, sp, #0
 8005c56:	6078      	str	r0, [r7, #4]
 8005c58:	6039      	str	r1, [r7, #0]
  /* Go to bypass the USB PLL */
  SCU_PLL->USBPLLCON |= (uint32_t)SCU_PLL_USBPLLCON_VCOBYP_Msk;
 8005c5a:	4a28      	ldr	r2, [pc, #160]	; (8005cfc <XMC_SCU_CLOCK_StartUsbPll+0xac>)
 8005c5c:	4b27      	ldr	r3, [pc, #156]	; (8005cfc <XMC_SCU_CLOCK_StartUsbPll+0xac>)
 8005c5e:	695b      	ldr	r3, [r3, #20]
 8005c60:	f043 0301 	orr.w	r3, r3, #1
 8005c64:	6153      	str	r3, [r2, #20]
  while ((SCU_PLL->USBPLLSTAT & SCU_PLL_USBPLLSTAT_VCOBYST_Msk) == 0U)
 8005c66:	bf00      	nop
 8005c68:	4b24      	ldr	r3, [pc, #144]	; (8005cfc <XMC_SCU_CLOCK_StartUsbPll+0xac>)
 8005c6a:	691b      	ldr	r3, [r3, #16]
 8005c6c:	f003 0301 	and.w	r3, r3, #1
 8005c70:	2b00      	cmp	r3, #0
 8005c72:	d0f9      	beq.n	8005c68 <XMC_SCU_CLOCK_StartUsbPll+0x18>
  {
    /* wait for prescaler mode */
  }

  /* disconnect Oscillator from USB PLL */
  SCU_PLL->USBPLLCON |= (uint32_t)SCU_PLL_USBPLLCON_FINDIS_Msk;
 8005c74:	4a21      	ldr	r2, [pc, #132]	; (8005cfc <XMC_SCU_CLOCK_StartUsbPll+0xac>)
 8005c76:	4b21      	ldr	r3, [pc, #132]	; (8005cfc <XMC_SCU_CLOCK_StartUsbPll+0xac>)
 8005c78:	695b      	ldr	r3, [r3, #20]
 8005c7a:	f043 0310 	orr.w	r3, r3, #16
 8005c7e:	6153      	str	r3, [r2, #20]

  /* Setup Divider settings for USB PLL */
  SCU_PLL->USBPLLCON = (uint32_t)((uint32_t)((ndiv - 1U) << SCU_PLL_USBPLLCON_NDIV_Pos) |
 8005c80:	491e      	ldr	r1, [pc, #120]	; (8005cfc <XMC_SCU_CLOCK_StartUsbPll+0xac>)
 8005c82:	683b      	ldr	r3, [r7, #0]
 8005c84:	3b01      	subs	r3, #1
 8005c86:	021a      	lsls	r2, r3, #8
                                  (uint32_t)((pdiv - 1U) << SCU_PLL_USBPLLCON_PDIV_Pos));
 8005c88:	687b      	ldr	r3, [r7, #4]
 8005c8a:	3b01      	subs	r3, #1
 8005c8c:	061b      	lsls	r3, r3, #24

  /* disconnect Oscillator from USB PLL */
  SCU_PLL->USBPLLCON |= (uint32_t)SCU_PLL_USBPLLCON_FINDIS_Msk;

  /* Setup Divider settings for USB PLL */
  SCU_PLL->USBPLLCON = (uint32_t)((uint32_t)((ndiv - 1U) << SCU_PLL_USBPLLCON_NDIV_Pos) |
 8005c8e:	4313      	orrs	r3, r2
 8005c90:	614b      	str	r3, [r1, #20]
                                  (uint32_t)((pdiv - 1U) << SCU_PLL_USBPLLCON_PDIV_Pos));

  /* Set OSCDISCDIS */
  SCU_PLL->USBPLLCON |= (uint32_t)SCU_PLL_USBPLLCON_OSCDISCDIS_Msk;
 8005c92:	4a1a      	ldr	r2, [pc, #104]	; (8005cfc <XMC_SCU_CLOCK_StartUsbPll+0xac>)
 8005c94:	4b19      	ldr	r3, [pc, #100]	; (8005cfc <XMC_SCU_CLOCK_StartUsbPll+0xac>)
 8005c96:	695b      	ldr	r3, [r3, #20]
 8005c98:	f043 0340 	orr.w	r3, r3, #64	; 0x40
 8005c9c:	6153      	str	r3, [r2, #20]

  /* connect Oscillator to USB PLL */
  SCU_PLL->USBPLLCON &= (uint32_t)~SCU_PLL_USBPLLCON_FINDIS_Msk;
 8005c9e:	4a17      	ldr	r2, [pc, #92]	; (8005cfc <XMC_SCU_CLOCK_StartUsbPll+0xac>)
 8005ca0:	4b16      	ldr	r3, [pc, #88]	; (8005cfc <XMC_SCU_CLOCK_StartUsbPll+0xac>)
 8005ca2:	695b      	ldr	r3, [r3, #20]
 8005ca4:	f023 0310 	bic.w	r3, r3, #16
 8005ca8:	6153      	str	r3, [r2, #20]

  /* restart PLL Lock detection */
  SCU_PLL->USBPLLCON |= (uint32_t)SCU_PLL_USBPLLCON_RESLD_Msk;
 8005caa:	4a14      	ldr	r2, [pc, #80]	; (8005cfc <XMC_SCU_CLOCK_StartUsbPll+0xac>)
 8005cac:	4b13      	ldr	r3, [pc, #76]	; (8005cfc <XMC_SCU_CLOCK_StartUsbPll+0xac>)
 8005cae:	695b      	ldr	r3, [r3, #20]
 8005cb0:	f443 2380 	orr.w	r3, r3, #262144	; 0x40000
 8005cb4:	6153      	str	r3, [r2, #20]

  while ((SCU_PLL->USBPLLSTAT & SCU_PLL_USBPLLSTAT_VCOLOCK_Msk) == 0U)
 8005cb6:	bf00      	nop
 8005cb8:	4b10      	ldr	r3, [pc, #64]	; (8005cfc <XMC_SCU_CLOCK_StartUsbPll+0xac>)
 8005cba:	691b      	ldr	r3, [r3, #16]
 8005cbc:	f003 0304 	and.w	r3, r3, #4
 8005cc0:	2b00      	cmp	r3, #0
 8005cc2:	d0f9      	beq.n	8005cb8 <XMC_SCU_CLOCK_StartUsbPll+0x68>
  {
    /* wait for PLL Lock */
  }

  /* Disable bypass- put PLL clock back */
  SCU_PLL->USBPLLCON &= ~SCU_PLL_USBPLLCON_VCOBYP_Msk;
 8005cc4:	4a0d      	ldr	r2, [pc, #52]	; (8005cfc <XMC_SCU_CLOCK_StartUsbPll+0xac>)
 8005cc6:	4b0d      	ldr	r3, [pc, #52]	; (8005cfc <XMC_SCU_CLOCK_StartUsbPll+0xac>)
 8005cc8:	695b      	ldr	r3, [r3, #20]
 8005cca:	f023 0301 	bic.w	r3, r3, #1
 8005cce:	6153      	str	r3, [r2, #20]
  while ((SCU_PLL->USBPLLSTAT & SCU_PLL_USBPLLSTAT_VCOBYST_Msk) != 0U)
 8005cd0:	bf00      	nop
 8005cd2:	4b0a      	ldr	r3, [pc, #40]	; (8005cfc <XMC_SCU_CLOCK_StartUsbPll+0xac>)
 8005cd4:	691b      	ldr	r3, [r3, #16]
 8005cd6:	f003 0301 	and.w	r3, r3, #1
 8005cda:	2b00      	cmp	r3, #0
 8005cdc:	d1f9      	bne.n	8005cd2 <XMC_SCU_CLOCK_StartUsbPll+0x82>
  {
    /* wait for normal mode */
  }

  /* Reset OSCDISCDIS */
  SCU_PLL->USBPLLCON &= ~SCU_PLL_USBPLLCON_OSCDISCDIS_Msk;
 8005cde:	4a07      	ldr	r2, [pc, #28]	; (8005cfc <XMC_SCU_CLOCK_StartUsbPll+0xac>)
 8005ce0:	4b06      	ldr	r3, [pc, #24]	; (8005cfc <XMC_SCU_CLOCK_StartUsbPll+0xac>)
 8005ce2:	695b      	ldr	r3, [r3, #20]
 8005ce4:	f023 0340 	bic.w	r3, r3, #64	; 0x40
 8005ce8:	6153      	str	r3, [r2, #20]

  SCU_TRAP->TRAPCLR = SCU_TRAP_TRAPCLR_UVCOLCKT_Msk;
 8005cea:	4b05      	ldr	r3, [pc, #20]	; (8005d00 <XMC_SCU_CLOCK_StartUsbPll+0xb0>)
 8005cec:	2208      	movs	r2, #8
 8005cee:	60da      	str	r2, [r3, #12]
}
 8005cf0:	370c      	adds	r7, #12
 8005cf2:	46bd      	mov	sp, r7
 8005cf4:	f85d 7b04 	ldr.w	r7, [sp], #4
 8005cf8:	4770      	bx	lr
 8005cfa:	bf00      	nop
 8005cfc:	50004710 	.word	0x50004710
 8005d00:	50004160 	.word	0x50004160

08005d04 <XMC_SCU_CLOCK_SetBackupClockCalibrationMode>:
                                  SCU_PLL_USBPLLCON_VCOBYP_Msk);
}

/* API to onfigure the calibration mode for internal oscillator */
void XMC_SCU_CLOCK_SetBackupClockCalibrationMode(XMC_SCU_CLOCK_FOFI_CALIBRATION_MODE_t mode)
{
 8005d04:	b580      	push	{r7, lr}
 8005d06:	b082      	sub	sp, #8
 8005d08:	af00      	add	r7, sp, #0
 8005d0a:	4603      	mov	r3, r0
 8005d0c:	71fb      	strb	r3, [r7, #7]
  /* Enable factory calibration based trimming */
  SCU_PLL->PLLCON0 |= (uint32_t)SCU_PLL_PLLCON0_FOTR_Msk;
 8005d0e:	4a0f      	ldr	r2, [pc, #60]	; (8005d4c <XMC_SCU_CLOCK_SetBackupClockCalibrationMode+0x48>)
 8005d10:	4b0e      	ldr	r3, [pc, #56]	; (8005d4c <XMC_SCU_CLOCK_SetBackupClockCalibrationMode+0x48>)
 8005d12:	685b      	ldr	r3, [r3, #4]
 8005d14:	f443 1380 	orr.w	r3, r3, #1048576	; 0x100000
 8005d18:	6053      	str	r3, [r2, #4]

  if (mode == XMC_SCU_CLOCK_FOFI_CALIBRATION_MODE_AUTOMATIC)
 8005d1a:	79fb      	ldrb	r3, [r7, #7]
 8005d1c:	2b01      	cmp	r3, #1
 8005d1e:	d10e      	bne.n	8005d3e <XMC_SCU_CLOCK_SetBackupClockCalibrationMode+0x3a>
  {
    /* Disable factory calibration based trimming */
    SCU_PLL->PLLCON0 &= (uint32_t)~SCU_PLL_PLLCON0_FOTR_Msk;
 8005d20:	4a0a      	ldr	r2, [pc, #40]	; (8005d4c <XMC_SCU_CLOCK_SetBackupClockCalibrationMode+0x48>)
 8005d22:	4b0a      	ldr	r3, [pc, #40]	; (8005d4c <XMC_SCU_CLOCK_SetBackupClockCalibrationMode+0x48>)
 8005d24:	685b      	ldr	r3, [r3, #4]
 8005d26:	f423 1380 	bic.w	r3, r3, #1048576	; 0x100000
 8005d2a:	6053      	str	r3, [r2, #4]
    XMC_SCU_lDelay(100UL);
 8005d2c:	2064      	movs	r0, #100	; 0x64
 8005d2e:	f7ff fd47 	bl	80057c0 <XMC_SCU_lDelay>

    /* Enable automatic calibration */
    SCU_PLL->PLLCON0 |= (uint32_t)SCU_PLL_PLLCON0_AOTREN_Msk;
 8005d32:	4a06      	ldr	r2, [pc, #24]	; (8005d4c <XMC_SCU_CLOCK_SetBackupClockCalibrationMode+0x48>)
 8005d34:	4b05      	ldr	r3, [pc, #20]	; (8005d4c <XMC_SCU_CLOCK_SetBackupClockCalibrationMode+0x48>)
 8005d36:	685b      	ldr	r3, [r3, #4]
 8005d38:	f443 2300 	orr.w	r3, r3, #524288	; 0x80000
 8005d3c:	6053      	str	r3, [r2, #4]
  }

  XMC_SCU_lDelay(100UL);
 8005d3e:	2064      	movs	r0, #100	; 0x64
 8005d40:	f7ff fd3e 	bl	80057c0 <XMC_SCU_lDelay>
}
 8005d44:	3708      	adds	r7, #8
 8005d46:	46bd      	mov	sp, r7
 8005d48:	bd80      	pop	{r7, pc}
 8005d4a:	bf00      	nop
 8005d4c:	50004710 	.word	0x50004710

08005d50 <XMC_SCU_HIB_EnableHibernateDomain>:
  return (bool)((SCU_PLL->USBPLLSTAT & SCU_PLL_USBPLLSTAT_VCOLOCK_Msk) != 0UL);
}

/* API to power up the hibernation domain */
void XMC_SCU_HIB_EnableHibernateDomain(void)
{
 8005d50:	b480      	push	{r7}
 8005d52:	af00      	add	r7, sp, #0
  /* Power up HIB domain if and only if it is currently powered down */
  if ((SCU_POWER->PWRSTAT & SCU_POWER_PWRSTAT_HIBEN_Msk) == 0UL)
 8005d54:	4b12      	ldr	r3, [pc, #72]	; (8005da0 <XMC_SCU_HIB_EnableHibernateDomain+0x50>)
 8005d56:	681b      	ldr	r3, [r3, #0]
 8005d58:	f003 0301 	and.w	r3, r3, #1
 8005d5c:	2b00      	cmp	r3, #0
 8005d5e:	d109      	bne.n	8005d74 <XMC_SCU_HIB_EnableHibernateDomain+0x24>
  {
    SCU_POWER->PWRSET = (uint32_t)SCU_POWER_PWRSET_HIB_Msk;
 8005d60:	4b0f      	ldr	r3, [pc, #60]	; (8005da0 <XMC_SCU_HIB_EnableHibernateDomain+0x50>)
 8005d62:	2201      	movs	r2, #1
 8005d64:	605a      	str	r2, [r3, #4]

    while ((SCU_POWER->PWRSTAT & SCU_POWER_PWRSTAT_HIBEN_Msk) == 0UL)
 8005d66:	bf00      	nop
 8005d68:	4b0d      	ldr	r3, [pc, #52]	; (8005da0 <XMC_SCU_HIB_EnableHibernateDomain+0x50>)
 8005d6a:	681b      	ldr	r3, [r3, #0]
 8005d6c:	f003 0301 	and.w	r3, r3, #1
 8005d70:	2b00      	cmp	r3, #0
 8005d72:	d0f9      	beq.n	8005d68 <XMC_SCU_HIB_EnableHibernateDomain+0x18>
      /* wait until HIB domain is enabled */
    }
  }

  /* Remove the reset only if HIB domain were in a state of reset */
  if ((SCU_RESET->RSTSTAT) & SCU_RESET_RSTSTAT_HIBRS_Msk)
 8005d74:	4b0b      	ldr	r3, [pc, #44]	; (8005da4 <XMC_SCU_HIB_EnableHibernateDomain+0x54>)
 8005d76:	681b      	ldr	r3, [r3, #0]
 8005d78:	f403 7300 	and.w	r3, r3, #512	; 0x200
 8005d7c:	2b00      	cmp	r3, #0
 8005d7e:	d00a      	beq.n	8005d96 <XMC_SCU_HIB_EnableHibernateDomain+0x46>
  {
    SCU_RESET->RSTCLR = (uint32_t)SCU_RESET_RSTCLR_HIBRS_Msk;
 8005d80:	4b08      	ldr	r3, [pc, #32]	; (8005da4 <XMC_SCU_HIB_EnableHibernateDomain+0x54>)
 8005d82:	f44f 7200 	mov.w	r2, #512	; 0x200
 8005d86:	609a      	str	r2, [r3, #8]
    while ((SCU_RESET->RSTSTAT & SCU_RESET_RSTSTAT_HIBRS_Msk) != 0UL)
 8005d88:	bf00      	nop
 8005d8a:	4b06      	ldr	r3, [pc, #24]	; (8005da4 <XMC_SCU_HIB_EnableHibernateDomain+0x54>)
 8005d8c:	681b      	ldr	r3, [r3, #0]
 8005d8e:	f403 7300 	and.w	r3, r3, #512	; 0x200
 8005d92:	2b00      	cmp	r3, #0
 8005d94:	d1f9      	bne.n	8005d8a <XMC_SCU_HIB_EnableHibernateDomain+0x3a>
    {
      /* wait until HIB domain is enabled */
    }
  }
}
 8005d96:	46bd      	mov	sp, r7
 8005d98:	f85d 7b04 	ldr.w	r7, [sp], #4
 8005d9c:	4770      	bx	lr
 8005d9e:	bf00      	nop
 8005da0:	50004200 	.word	0x50004200
 8005da4:	50004400 	.word	0x50004400

08005da8 <XMC_SCU_CLOCK_IsLowPowerOscillatorStable>:
}

#endif

bool XMC_SCU_CLOCK_IsLowPowerOscillatorStable(void)
{
 8005da8:	b480      	push	{r7}
 8005daa:	af00      	add	r7, sp, #0
  return ((SCU_HIBERNATE->HDSTAT & SCU_HIBERNATE_HDSTAT_ULPWDG_Msk) == 0UL);
 8005dac:	4b06      	ldr	r3, [pc, #24]	; (8005dc8 <XMC_SCU_CLOCK_IsLowPowerOscillatorStable+0x20>)
 8005dae:	681b      	ldr	r3, [r3, #0]
 8005db0:	f003 0308 	and.w	r3, r3, #8
 8005db4:	2b00      	cmp	r3, #0
 8005db6:	bf0c      	ite	eq
 8005db8:	2301      	moveq	r3, #1
 8005dba:	2300      	movne	r3, #0
 8005dbc:	b2db      	uxtb	r3, r3
}
 8005dbe:	4618      	mov	r0, r3
 8005dc0:	46bd      	mov	sp, r7
 8005dc2:	f85d 7b04 	ldr.w	r7, [sp], #4
 8005dc6:	4770      	bx	lr
 8005dc8:	50004300 	.word	0x50004300

08005dcc <XMC_SCU_CLOCK_EnableLowPowerOscillator>:

/* API to configure the 32khz Ultra Low Power oscillator */
void XMC_SCU_CLOCK_EnableLowPowerOscillator(void)
{
 8005dcc:	b580      	push	{r7, lr}
 8005dce:	af00      	add	r7, sp, #0
  /* Enable OSC_ULP */
  XMC_SCU_INTERRUPT_ClearEventStatus(XMC_SCU_INTERRUPT_EVENT_OSCULCTRL_UPDATED);
 8005dd0:	f44f 0000 	mov.w	r0, #8388608	; 0x800000
 8005dd4:	f7ff fd22 	bl	800581c <XMC_SCU_INTERRUPT_ClearEventStatus>
  SCU_HIBERNATE->OSCULCTRL &= ~SCU_HIBERNATE_OSCULCTRL_MODE_Msk;
 8005dd8:	4a17      	ldr	r2, [pc, #92]	; (8005e38 <XMC_SCU_CLOCK_EnableLowPowerOscillator+0x6c>)
 8005dda:	4b17      	ldr	r3, [pc, #92]	; (8005e38 <XMC_SCU_CLOCK_EnableLowPowerOscillator+0x6c>)
 8005ddc:	69db      	ldr	r3, [r3, #28]
 8005dde:	f023 0330 	bic.w	r3, r3, #48	; 0x30
 8005de2:	61d3      	str	r3, [r2, #28]
  while ((XMC_SCU_INTERUPT_GetEventStatus() & XMC_SCU_INTERRUPT_EVENT_OSCULCTRL_UPDATED) == 0);
 8005de4:	bf00      	nop
 8005de6:	f7ff fd0d 	bl	8005804 <XMC_SCU_INTERUPT_GetEventStatus>
 8005dea:	4603      	mov	r3, r0
 8005dec:	f403 0300 	and.w	r3, r3, #8388608	; 0x800000
 8005df0:	2b00      	cmp	r3, #0
 8005df2:	d0f8      	beq.n	8005de6 <XMC_SCU_CLOCK_EnableLowPowerOscillator+0x1a>

  /* Clear ULP WDG status */
  XMC_SCU_INTERRUPT_ClearEventStatus(XMC_SCU_INTERRUPT_EVENT_HDCLR_UPDATED);
 8005df4:	f44f 3000 	mov.w	r0, #131072	; 0x20000
 8005df8:	f7ff fd10 	bl	800581c <XMC_SCU_INTERRUPT_ClearEventStatus>
  SCU_HIBERNATE->HDCLR = (uint32_t)SCU_HIBERNATE_HDCLR_ULPWDG_Msk;
 8005dfc:	4b0e      	ldr	r3, [pc, #56]	; (8005e38 <XMC_SCU_CLOCK_EnableLowPowerOscillator+0x6c>)
 8005dfe:	2208      	movs	r2, #8
 8005e00:	605a      	str	r2, [r3, #4]
  while ((XMC_SCU_INTERUPT_GetEventStatus() & XMC_SCU_INTERRUPT_EVENT_HDCLR_UPDATED) == 0);
 8005e02:	bf00      	nop
 8005e04:	f7ff fcfe 	bl	8005804 <XMC_SCU_INTERUPT_GetEventStatus>
 8005e08:	4603      	mov	r3, r0
 8005e0a:	f403 3300 	and.w	r3, r3, #131072	; 0x20000
 8005e0e:	2b00      	cmp	r3, #0
 8005e10:	d0f8      	beq.n	8005e04 <XMC_SCU_CLOCK_EnableLowPowerOscillator+0x38>

  /* Enable ULP WDG */
  XMC_SCU_INTERRUPT_ClearEventStatus(XMC_SCU_INTERRUPT_EVENT_HDCR_UPDATED);
 8005e12:	f44f 2000 	mov.w	r0, #524288	; 0x80000
 8005e16:	f7ff fd01 	bl	800581c <XMC_SCU_INTERRUPT_ClearEventStatus>
  SCU_HIBERNATE->HDCR |= (uint32_t)SCU_HIBERNATE_HDCR_ULPWDGEN_Msk;
 8005e1a:	4a07      	ldr	r2, [pc, #28]	; (8005e38 <XMC_SCU_CLOCK_EnableLowPowerOscillator+0x6c>)
 8005e1c:	4b06      	ldr	r3, [pc, #24]	; (8005e38 <XMC_SCU_CLOCK_EnableLowPowerOscillator+0x6c>)
 8005e1e:	68db      	ldr	r3, [r3, #12]
 8005e20:	f043 0308 	orr.w	r3, r3, #8
 8005e24:	60d3      	str	r3, [r2, #12]
  while ((XMC_SCU_INTERUPT_GetEventStatus() & XMC_SCU_INTERRUPT_EVENT_HDCR_UPDATED) == 0);
 8005e26:	bf00      	nop
 8005e28:	f7ff fcec 	bl	8005804 <XMC_SCU_INTERUPT_GetEventStatus>
 8005e2c:	4603      	mov	r3, r0
 8005e2e:	f403 2300 	and.w	r3, r3, #524288	; 0x80000
 8005e32:	2b00      	cmp	r3, #0
 8005e34:	d0f8      	beq.n	8005e28 <XMC_SCU_CLOCK_EnableLowPowerOscillator+0x5c>
}
 8005e36:	bd80      	pop	{r7, pc}
 8005e38:	50004300 	.word	0x50004300

08005e3c <XMC_SCU_CLOCK_EnableHighPerformanceOscillator>:
  return (SCU_HIBERNATE->OSCULSTAT & SCU_HIBERNATE_OSCULSTAT_X1D_Msk);
}

/* API to enable High Precision High Speed oscillator */
void XMC_SCU_CLOCK_EnableHighPerformanceOscillator(void)
{
 8005e3c:	b5b0      	push	{r4, r5, r7, lr}
 8005e3e:	af00      	add	r7, sp, #0
  SCU_PLL->PLLCON0 &= (uint32_t)~SCU_PLL_PLLCON0_PLLPWD_Msk;
 8005e40:	4a0f      	ldr	r2, [pc, #60]	; (8005e80 <XMC_SCU_CLOCK_EnableHighPerformanceOscillator+0x44>)
 8005e42:	4b0f      	ldr	r3, [pc, #60]	; (8005e80 <XMC_SCU_CLOCK_EnableHighPerformanceOscillator+0x44>)
 8005e44:	685b      	ldr	r3, [r3, #4]
 8005e46:	f423 3380 	bic.w	r3, r3, #65536	; 0x10000
 8005e4a:	6053      	str	r3, [r2, #4]

  SCU_OSC->OSCHPCTRL = (uint32_t)((SCU_OSC->OSCHPCTRL & ~(SCU_OSC_OSCHPCTRL_MODE_Msk | SCU_OSC_OSCHPCTRL_OSCVAL_Msk)) |
 8005e4c:	4d0d      	ldr	r5, [pc, #52]	; (8005e84 <XMC_SCU_CLOCK_EnableHighPerformanceOscillator+0x48>)
 8005e4e:	4b0d      	ldr	r3, [pc, #52]	; (8005e84 <XMC_SCU_CLOCK_EnableHighPerformanceOscillator+0x48>)
 8005e50:	685b      	ldr	r3, [r3, #4]
 8005e52:	f423 2470 	bic.w	r4, r3, #983040	; 0xf0000
 8005e56:	f024 0430 	bic.w	r4, r4, #48	; 0x30
                                  (((OSCHP_GetFrequency() / FOSCREF) - 1UL) << SCU_OSC_OSCHPCTRL_OSCVAL_Pos));
 8005e5a:	f001 f96f 	bl	800713c <OSCHP_GetFrequency>
 8005e5e:	4602      	mov	r2, r0
 8005e60:	4b09      	ldr	r3, [pc, #36]	; (8005e88 <XMC_SCU_CLOCK_EnableHighPerformanceOscillator+0x4c>)
 8005e62:	fba3 2302 	umull	r2, r3, r3, r2
 8005e66:	0d1b      	lsrs	r3, r3, #20
 8005e68:	3b01      	subs	r3, #1
 8005e6a:	041b      	lsls	r3, r3, #16
/* API to enable High Precision High Speed oscillator */
void XMC_SCU_CLOCK_EnableHighPerformanceOscillator(void)
{
  SCU_PLL->PLLCON0 &= (uint32_t)~SCU_PLL_PLLCON0_PLLPWD_Msk;

  SCU_OSC->OSCHPCTRL = (uint32_t)((SCU_OSC->OSCHPCTRL & ~(SCU_OSC_OSCHPCTRL_MODE_Msk | SCU_OSC_OSCHPCTRL_OSCVAL_Msk)) |
 8005e6c:	4323      	orrs	r3, r4
 8005e6e:	606b      	str	r3, [r5, #4]
                                  (((OSCHP_GetFrequency() / FOSCREF) - 1UL) << SCU_OSC_OSCHPCTRL_OSCVAL_Pos));

  /* restart OSC Watchdog */
  SCU_PLL->PLLCON0 &= (uint32_t)~SCU_PLL_PLLCON0_OSCRES_Msk;
 8005e70:	4a03      	ldr	r2, [pc, #12]	; (8005e80 <XMC_SCU_CLOCK_EnableHighPerformanceOscillator+0x44>)
 8005e72:	4b03      	ldr	r3, [pc, #12]	; (8005e80 <XMC_SCU_CLOCK_EnableHighPerformanceOscillator+0x44>)
 8005e74:	685b      	ldr	r3, [r3, #4]
 8005e76:	f423 3300 	bic.w	r3, r3, #131072	; 0x20000
 8005e7a:	6053      	str	r3, [r2, #4]
}
 8005e7c:	bdb0      	pop	{r4, r5, r7, pc}
 8005e7e:	bf00      	nop
 8005e80:	50004710 	.word	0x50004710
 8005e84:	50004700 	.word	0x50004700
 8005e88:	6b5fca6b 	.word	0x6b5fca6b

08005e8c <XMC_SCU_CLOCK_IsHighPerformanceOscillatorStable>:

bool XMC_SCU_CLOCK_IsHighPerformanceOscillatorStable(void)
{
 8005e8c:	b480      	push	{r7}
 8005e8e:	af00      	add	r7, sp, #0
  return ((SCU_PLL->PLLSTAT & XMC_SCU_PLL_PLLSTAT_OSC_USABLE) == XMC_SCU_PLL_PLLSTAT_OSC_USABLE);
 8005e90:	4b07      	ldr	r3, [pc, #28]	; (8005eb0 <XMC_SCU_CLOCK_IsHighPerformanceOscillatorStable+0x24>)
 8005e92:	681b      	ldr	r3, [r3, #0]
 8005e94:	f403 7360 	and.w	r3, r3, #896	; 0x380
 8005e98:	f5b3 7f60 	cmp.w	r3, #896	; 0x380
 8005e9c:	bf0c      	ite	eq
 8005e9e:	2301      	moveq	r3, #1
 8005ea0:	2300      	movne	r3, #0
 8005ea2:	b2db      	uxtb	r3, r3
}
 8005ea4:	4618      	mov	r0, r3
 8005ea6:	46bd      	mov	sp, r7
 8005ea8:	f85d 7b04 	ldr.w	r7, [sp], #4
 8005eac:	4770      	bx	lr
 8005eae:	bf00      	nop
 8005eb0:	50004710 	.word	0x50004710

08005eb4 <XMC_SCU_CLOCK_EnableSystemPll>:
  return (SCU_OSC->OSCHPSTAT & SCU_OSC_OSCHPSTAT_X1D_Msk);
}

/* API to enable main PLL */
void XMC_SCU_CLOCK_EnableSystemPll(void)
{
 8005eb4:	b480      	push	{r7}
 8005eb6:	af00      	add	r7, sp, #0
  SCU_PLL->PLLCON0 &= (uint32_t)~(SCU_PLL_PLLCON0_VCOPWD_Msk | SCU_PLL_PLLCON0_PLLPWD_Msk);
 8005eb8:	4a05      	ldr	r2, [pc, #20]	; (8005ed0 <XMC_SCU_CLOCK_EnableSystemPll+0x1c>)
 8005eba:	4b05      	ldr	r3, [pc, #20]	; (8005ed0 <XMC_SCU_CLOCK_EnableSystemPll+0x1c>)
 8005ebc:	685b      	ldr	r3, [r3, #4]
 8005ebe:	f423 3380 	bic.w	r3, r3, #65536	; 0x10000
 8005ec2:	f023 0302 	bic.w	r3, r3, #2
 8005ec6:	6053      	str	r3, [r2, #4]
}
 8005ec8:	46bd      	mov	sp, r7
 8005eca:	f85d 7b04 	ldr.w	r7, [sp], #4
 8005ece:	4770      	bx	lr
 8005ed0:	50004710 	.word	0x50004710

08005ed4 <XMC_SCU_CLOCK_DisableSystemPll>:

/* API to disable main PLL */
void XMC_SCU_CLOCK_DisableSystemPll(void)
{
 8005ed4:	b480      	push	{r7}
 8005ed6:	af00      	add	r7, sp, #0
  SCU_PLL->PLLCON0 |= (uint32_t)(SCU_PLL_PLLCON0_VCOPWD_Msk | SCU_PLL_PLLCON0_PLLPWD_Msk);
 8005ed8:	4a05      	ldr	r2, [pc, #20]	; (8005ef0 <XMC_SCU_CLOCK_DisableSystemPll+0x1c>)
 8005eda:	4b05      	ldr	r3, [pc, #20]	; (8005ef0 <XMC_SCU_CLOCK_DisableSystemPll+0x1c>)
 8005edc:	685b      	ldr	r3, [r3, #4]
 8005ede:	f443 3380 	orr.w	r3, r3, #65536	; 0x10000
 8005ee2:	f043 0302 	orr.w	r3, r3, #2
 8005ee6:	6053      	str	r3, [r2, #4]
}
 8005ee8:	46bd      	mov	sp, r7
 8005eea:	f85d 7b04 	ldr.w	r7, [sp], #4
 8005eee:	4770      	bx	lr
 8005ef0:	50004710 	.word	0x50004710

08005ef4 <XMC_SCU_CLOCK_StartSystemPll>:
void XMC_SCU_CLOCK_StartSystemPll(XMC_SCU_CLOCK_SYSPLLCLKSRC_t source,
                                  XMC_SCU_CLOCK_SYSPLL_MODE_t mode,
                                  uint32_t pdiv,
                                  uint32_t ndiv,
                                  uint32_t kdiv)
{
 8005ef4:	b580      	push	{r7, lr}
 8005ef6:	b086      	sub	sp, #24
 8005ef8:	af00      	add	r7, sp, #0
 8005efa:	60ba      	str	r2, [r7, #8]
 8005efc:	607b      	str	r3, [r7, #4]
 8005efe:	4603      	mov	r3, r0
 8005f00:	81fb      	strh	r3, [r7, #14]
 8005f02:	460b      	mov	r3, r1
 8005f04:	737b      	strb	r3, [r7, #13]

  uint32_t vco_frequency; /* Q10.22, max VCO frequency = 520MHz */
  uint32_t kdiv_temp;

  XMC_SCU_CLOCK_SetSystemPllClockSource(source);
 8005f06:	89fb      	ldrh	r3, [r7, #14]
 8005f08:	4618      	mov	r0, r3
 8005f0a:	f7ff fd79 	bl	8005a00 <XMC_SCU_CLOCK_SetSystemPllClockSource>

  if (mode == XMC_SCU_CLOCK_SYSPLL_MODE_NORMAL)
 8005f0e:	7b7b      	ldrb	r3, [r7, #13]
 8005f10:	2b01      	cmp	r3, #1
 8005f12:	f040 808b 	bne.w	800602c <XMC_SCU_CLOCK_StartSystemPll+0x138>
  {
    /* Calculate initial step to be close to fOFI */
    if (source == XMC_SCU_CLOCK_SYSPLLCLKSRC_OSCHP)
 8005f16:	89fb      	ldrh	r3, [r7, #14]
 8005f18:	2b00      	cmp	r3, #0
 8005f1a:	d109      	bne.n	8005f30 <XMC_SCU_CLOCK_StartSystemPll+0x3c>
    {
      vco_frequency = (OSCHP_GetFrequency() / 1000000U) << 22;
 8005f1c:	f001 f90e 	bl	800713c <OSCHP_GetFrequency>
 8005f20:	4602      	mov	r2, r0
 8005f22:	4b54      	ldr	r3, [pc, #336]	; (8006074 <XMC_SCU_CLOCK_StartSystemPll+0x180>)
 8005f24:	fba3 2302 	umull	r2, r3, r3, r2
 8005f28:	0c9b      	lsrs	r3, r3, #18
 8005f2a:	059b      	lsls	r3, r3, #22
 8005f2c:	617b      	str	r3, [r7, #20]
 8005f2e:	e002      	b.n	8005f36 <XMC_SCU_CLOCK_StartSystemPll+0x42>
    }
    else
    {
      vco_frequency = (OFI_FREQUENCY / 1000000U) << 22;
 8005f30:	f04f 63c0 	mov.w	r3, #100663296	; 0x6000000
 8005f34:	617b      	str	r3, [r7, #20]
    }
    vco_frequency = ((vco_frequency * ndiv) / pdiv);
 8005f36:	697b      	ldr	r3, [r7, #20]
 8005f38:	687a      	ldr	r2, [r7, #4]
 8005f3a:	fb02 f203 	mul.w	r2, r2, r3
 8005f3e:	68bb      	ldr	r3, [r7, #8]
 8005f40:	fbb2 f3f3 	udiv	r3, r2, r3
 8005f44:	617b      	str	r3, [r7, #20]
    kdiv_temp = (vco_frequency / (OFI_FREQUENCY / 1000000U)) >> 22;
 8005f46:	697b      	ldr	r3, [r7, #20]
 8005f48:	4a4b      	ldr	r2, [pc, #300]	; (8006078 <XMC_SCU_CLOCK_StartSystemPll+0x184>)
 8005f4a:	fba2 2303 	umull	r2, r3, r2, r3
 8005f4e:	091b      	lsrs	r3, r3, #4
 8005f50:	0d9b      	lsrs	r3, r3, #22
 8005f52:	613b      	str	r3, [r7, #16]

    /* Switch to prescaler mode */
    SCU_PLL->PLLCON0 |= (uint32_t)SCU_PLL_PLLCON0_VCOBYP_Msk;
 8005f54:	4a49      	ldr	r2, [pc, #292]	; (800607c <XMC_SCU_CLOCK_StartSystemPll+0x188>)
 8005f56:	4b49      	ldr	r3, [pc, #292]	; (800607c <XMC_SCU_CLOCK_StartSystemPll+0x188>)
 8005f58:	685b      	ldr	r3, [r3, #4]
 8005f5a:	f043 0301 	orr.w	r3, r3, #1
 8005f5e:	6053      	str	r3, [r2, #4]
    while ((SCU_PLL->PLLSTAT & SCU_PLL_PLLSTAT_VCOBYST_Msk) == 0U)
 8005f60:	bf00      	nop
 8005f62:	4b46      	ldr	r3, [pc, #280]	; (800607c <XMC_SCU_CLOCK_StartSystemPll+0x188>)
 8005f64:	681b      	ldr	r3, [r3, #0]
 8005f66:	f003 0301 	and.w	r3, r3, #1
 8005f6a:	2b00      	cmp	r3, #0
 8005f6c:	d0f9      	beq.n	8005f62 <XMC_SCU_CLOCK_StartSystemPll+0x6e>
    {
      /* wait for prescaler mode */
    }

    /* disconnect Oscillator from PLL */
    SCU_PLL->PLLCON0 |= (uint32_t)SCU_PLL_PLLCON0_FINDIS_Msk;
 8005f6e:	4a43      	ldr	r2, [pc, #268]	; (800607c <XMC_SCU_CLOCK_StartSystemPll+0x188>)
 8005f70:	4b42      	ldr	r3, [pc, #264]	; (800607c <XMC_SCU_CLOCK_StartSystemPll+0x188>)
 8005f72:	685b      	ldr	r3, [r3, #4]
 8005f74:	f043 0310 	orr.w	r3, r3, #16
 8005f78:	6053      	str	r3, [r2, #4]

    /* Setup divider settings for main PLL */
    SCU_PLL->PLLCON1 = (uint32_t)((SCU_PLL->PLLCON1 & ~(SCU_PLL_PLLCON1_NDIV_Msk | SCU_PLL_PLLCON1_K2DIV_Msk |
 8005f7a:	4940      	ldr	r1, [pc, #256]	; (800607c <XMC_SCU_CLOCK_StartSystemPll+0x188>)
 8005f7c:	4b3f      	ldr	r3, [pc, #252]	; (800607c <XMC_SCU_CLOCK_StartSystemPll+0x188>)
 8005f7e:	689a      	ldr	r2, [r3, #8]
 8005f80:	4b3f      	ldr	r3, [pc, #252]	; (8006080 <XMC_SCU_CLOCK_StartSystemPll+0x18c>)
 8005f82:	4013      	ands	r3, r2
                                   SCU_PLL_PLLCON1_PDIV_Msk)) | ((ndiv - 1UL) << SCU_PLL_PLLCON1_NDIV_Pos) |
 8005f84:	687a      	ldr	r2, [r7, #4]
 8005f86:	3a01      	subs	r2, #1
 8005f88:	0212      	lsls	r2, r2, #8
 8005f8a:	431a      	orrs	r2, r3
                                  ((kdiv_temp - 1UL) << SCU_PLL_PLLCON1_K2DIV_Pos) |
 8005f8c:	693b      	ldr	r3, [r7, #16]
 8005f8e:	3b01      	subs	r3, #1
 8005f90:	041b      	lsls	r3, r3, #16
    /* disconnect Oscillator from PLL */
    SCU_PLL->PLLCON0 |= (uint32_t)SCU_PLL_PLLCON0_FINDIS_Msk;

    /* Setup divider settings for main PLL */
    SCU_PLL->PLLCON1 = (uint32_t)((SCU_PLL->PLLCON1 & ~(SCU_PLL_PLLCON1_NDIV_Msk | SCU_PLL_PLLCON1_K2DIV_Msk |
                                   SCU_PLL_PLLCON1_PDIV_Msk)) | ((ndiv - 1UL) << SCU_PLL_PLLCON1_NDIV_Pos) |
 8005f92:	431a      	orrs	r2, r3
                                  ((kdiv_temp - 1UL) << SCU_PLL_PLLCON1_K2DIV_Pos) |
                                  ((pdiv - 1UL) << SCU_PLL_PLLCON1_PDIV_Pos));
 8005f94:	68bb      	ldr	r3, [r7, #8]
 8005f96:	3b01      	subs	r3, #1
 8005f98:	061b      	lsls	r3, r3, #24

    /* disconnect Oscillator from PLL */
    SCU_PLL->PLLCON0 |= (uint32_t)SCU_PLL_PLLCON0_FINDIS_Msk;

    /* Setup divider settings for main PLL */
    SCU_PLL->PLLCON1 = (uint32_t)((SCU_PLL->PLLCON1 & ~(SCU_PLL_PLLCON1_NDIV_Msk | SCU_PLL_PLLCON1_K2DIV_Msk |
 8005f9a:	4313      	orrs	r3, r2
 8005f9c:	608b      	str	r3, [r1, #8]
                                   SCU_PLL_PLLCON1_PDIV_Msk)) | ((ndiv - 1UL) << SCU_PLL_PLLCON1_NDIV_Pos) |
                                  ((kdiv_temp - 1UL) << SCU_PLL_PLLCON1_K2DIV_Pos) |
                                  ((pdiv - 1UL) << SCU_PLL_PLLCON1_PDIV_Pos));

    /* Set OSCDISCDIS, OSC clock remains connected to the VCO in case of loss of lock */
    SCU_PLL->PLLCON0 |= (uint32_t)SCU_PLL_PLLCON0_OSCDISCDIS_Msk;
 8005f9e:	4a37      	ldr	r2, [pc, #220]	; (800607c <XMC_SCU_CLOCK_StartSystemPll+0x188>)
 8005fa0:	4b36      	ldr	r3, [pc, #216]	; (800607c <XMC_SCU_CLOCK_StartSystemPll+0x188>)
 8005fa2:	685b      	ldr	r3, [r3, #4]
 8005fa4:	f043 0340 	orr.w	r3, r3, #64	; 0x40
 8005fa8:	6053      	str	r3, [r2, #4]

    /* connect Oscillator to PLL */
    SCU_PLL->PLLCON0 &= (uint32_t)~SCU_PLL_PLLCON0_FINDIS_Msk;
 8005faa:	4a34      	ldr	r2, [pc, #208]	; (800607c <XMC_SCU_CLOCK_StartSystemPll+0x188>)
 8005fac:	4b33      	ldr	r3, [pc, #204]	; (800607c <XMC_SCU_CLOCK_StartSystemPll+0x188>)
 8005fae:	685b      	ldr	r3, [r3, #4]
 8005fb0:	f023 0310 	bic.w	r3, r3, #16
 8005fb4:	6053      	str	r3, [r2, #4]

    /* restart PLL Lock detection */
    SCU_PLL->PLLCON0 |= (uint32_t)SCU_PLL_PLLCON0_RESLD_Msk;
 8005fb6:	4a31      	ldr	r2, [pc, #196]	; (800607c <XMC_SCU_CLOCK_StartSystemPll+0x188>)
 8005fb8:	4b30      	ldr	r3, [pc, #192]	; (800607c <XMC_SCU_CLOCK_StartSystemPll+0x188>)
 8005fba:	685b      	ldr	r3, [r3, #4]
 8005fbc:	f443 2380 	orr.w	r3, r3, #262144	; 0x40000
 8005fc0:	6053      	str	r3, [r2, #4]
    while ((SCU_PLL->PLLSTAT & SCU_PLL_PLLSTAT_VCOLOCK_Msk) == 0U)
 8005fc2:	bf00      	nop
 8005fc4:	4b2d      	ldr	r3, [pc, #180]	; (800607c <XMC_SCU_CLOCK_StartSystemPll+0x188>)
 8005fc6:	681b      	ldr	r3, [r3, #0]
 8005fc8:	f003 0304 	and.w	r3, r3, #4
 8005fcc:	2b00      	cmp	r3, #0
 8005fce:	d0f9      	beq.n	8005fc4 <XMC_SCU_CLOCK_StartSystemPll+0xd0>
    {
      /* wait for PLL Lock */
    }

    /* Switch to normal mode */
    SCU_PLL->PLLCON0 &= (uint32_t)~SCU_PLL_PLLCON0_VCOBYP_Msk;
 8005fd0:	4a2a      	ldr	r2, [pc, #168]	; (800607c <XMC_SCU_CLOCK_StartSystemPll+0x188>)
 8005fd2:	4b2a      	ldr	r3, [pc, #168]	; (800607c <XMC_SCU_CLOCK_StartSystemPll+0x188>)
 8005fd4:	685b      	ldr	r3, [r3, #4]
 8005fd6:	f023 0301 	bic.w	r3, r3, #1
 8005fda:	6053      	str	r3, [r2, #4]
    while ((SCU_PLL->PLLSTAT & SCU_PLL_PLLSTAT_VCOBYST_Msk) != 0U)
 8005fdc:	bf00      	nop
 8005fde:	4b27      	ldr	r3, [pc, #156]	; (800607c <XMC_SCU_CLOCK_StartSystemPll+0x188>)
 8005fe0:	681b      	ldr	r3, [r3, #0]
 8005fe2:	f003 0301 	and.w	r3, r3, #1
 8005fe6:	2b00      	cmp	r3, #0
 8005fe8:	d1f9      	bne.n	8005fde <XMC_SCU_CLOCK_StartSystemPll+0xea>
    {
      /* wait for normal mode */
    }

    /* Ramp up PLL frequency in steps */
    kdiv_temp = (vco_frequency / 60UL) >> 22;
 8005fea:	697b      	ldr	r3, [r7, #20]
 8005fec:	4a25      	ldr	r2, [pc, #148]	; (8006084 <XMC_SCU_CLOCK_StartSystemPll+0x190>)
 8005fee:	fba2 2303 	umull	r2, r3, r2, r3
 8005ff2:	095b      	lsrs	r3, r3, #5
 8005ff4:	0d9b      	lsrs	r3, r3, #22
 8005ff6:	613b      	str	r3, [r7, #16]
    if (kdiv < kdiv_temp)
 8005ff8:	6a3a      	ldr	r2, [r7, #32]
 8005ffa:	693b      	ldr	r3, [r7, #16]
 8005ffc:	429a      	cmp	r2, r3
 8005ffe:	d202      	bcs.n	8006006 <XMC_SCU_CLOCK_StartSystemPll+0x112>
    {
      XMC_SCU_CLOCK_StepSystemPllFrequency(kdiv_temp);
 8006000:	6938      	ldr	r0, [r7, #16]
 8006002:	f000 f845 	bl	8006090 <XMC_SCU_CLOCK_StepSystemPllFrequency>
    }

    kdiv_temp = (vco_frequency / 90UL) >> 22;
 8006006:	697b      	ldr	r3, [r7, #20]
 8006008:	085b      	lsrs	r3, r3, #1
 800600a:	4a1f      	ldr	r2, [pc, #124]	; (8006088 <XMC_SCU_CLOCK_StartSystemPll+0x194>)
 800600c:	fba2 2303 	umull	r2, r3, r2, r3
 8006010:	095b      	lsrs	r3, r3, #5
 8006012:	0d9b      	lsrs	r3, r3, #22
 8006014:	613b      	str	r3, [r7, #16]
    if (kdiv < kdiv_temp)
 8006016:	6a3a      	ldr	r2, [r7, #32]
 8006018:	693b      	ldr	r3, [r7, #16]
 800601a:	429a      	cmp	r2, r3
 800601c:	d202      	bcs.n	8006024 <XMC_SCU_CLOCK_StartSystemPll+0x130>
    {
      XMC_SCU_CLOCK_StepSystemPllFrequency(kdiv_temp);
 800601e:	6938      	ldr	r0, [r7, #16]
 8006020:	f000 f836 	bl	8006090 <XMC_SCU_CLOCK_StepSystemPllFrequency>
    }

    XMC_SCU_CLOCK_StepSystemPllFrequency(kdiv);
 8006024:	6a38      	ldr	r0, [r7, #32]
 8006026:	f000 f833 	bl	8006090 <XMC_SCU_CLOCK_StepSystemPllFrequency>
 800602a:	e01c      	b.n	8006066 <XMC_SCU_CLOCK_StartSystemPll+0x172>
  }
  else
  {
    SCU_PLL->PLLCON1 = (uint32_t)((SCU_PLL->PLLCON1 & ~SCU_PLL_PLLCON1_K1DIV_Msk) |
 800602c:	4913      	ldr	r1, [pc, #76]	; (800607c <XMC_SCU_CLOCK_StartSystemPll+0x188>)
 800602e:	4b13      	ldr	r3, [pc, #76]	; (800607c <XMC_SCU_CLOCK_StartSystemPll+0x188>)
 8006030:	689b      	ldr	r3, [r3, #8]
 8006032:	f023 027f 	bic.w	r2, r3, #127	; 0x7f
                                  ((kdiv - 1UL) << SCU_PLL_PLLCON1_K1DIV_Pos));
 8006036:	6a3b      	ldr	r3, [r7, #32]
 8006038:	3b01      	subs	r3, #1

    XMC_SCU_CLOCK_StepSystemPllFrequency(kdiv);
  }
  else
  {
    SCU_PLL->PLLCON1 = (uint32_t)((SCU_PLL->PLLCON1 & ~SCU_PLL_PLLCON1_K1DIV_Msk) |
 800603a:	4313      	orrs	r3, r2
 800603c:	608b      	str	r3, [r1, #8]
                                  ((kdiv - 1UL) << SCU_PLL_PLLCON1_K1DIV_Pos));

    while ((SCU_PLL->PLLSTAT & SCU_PLL_PLLSTAT_K1RDY_Msk) == 0U)
 800603e:	bf00      	nop
 8006040:	4b0e      	ldr	r3, [pc, #56]	; (800607c <XMC_SCU_CLOCK_StartSystemPll+0x188>)
 8006042:	681b      	ldr	r3, [r3, #0]
 8006044:	f003 0310 	and.w	r3, r3, #16
 8006048:	2b00      	cmp	r3, #0
 800604a:	d0f9      	beq.n	8006040 <XMC_SCU_CLOCK_StartSystemPll+0x14c>
    {
      /* wait until K1-divider operates on the configured value  */
    }

    /* Switch to prescaler mode */
    SCU_PLL->PLLCON0 |= (uint32_t)SCU_PLL_PLLCON0_VCOBYP_Msk;
 800604c:	4a0b      	ldr	r2, [pc, #44]	; (800607c <XMC_SCU_CLOCK_StartSystemPll+0x188>)
 800604e:	4b0b      	ldr	r3, [pc, #44]	; (800607c <XMC_SCU_CLOCK_StartSystemPll+0x188>)
 8006050:	685b      	ldr	r3, [r3, #4]
 8006052:	f043 0301 	orr.w	r3, r3, #1
 8006056:	6053      	str	r3, [r2, #4]

    while ((SCU_PLL->PLLSTAT & SCU_PLL_PLLSTAT_VCOBYST_Msk) == 0U)
 8006058:	bf00      	nop
 800605a:	4b08      	ldr	r3, [pc, #32]	; (800607c <XMC_SCU_CLOCK_StartSystemPll+0x188>)
 800605c:	681b      	ldr	r3, [r3, #0]
 800605e:	f003 0301 	and.w	r3, r3, #1
 8006062:	2b00      	cmp	r3, #0
 8006064:	d0f9      	beq.n	800605a <XMC_SCU_CLOCK_StartSystemPll+0x166>
    {
      /* wait for prescaler mode */
    }
  }

  SCU_TRAP->TRAPCLR = SCU_TRAP_TRAPCLR_SOSCWDGT_Msk | SCU_TRAP_TRAPCLR_SVCOLCKT_Msk;
 8006066:	4b09      	ldr	r3, [pc, #36]	; (800608c <XMC_SCU_CLOCK_StartSystemPll+0x198>)
 8006068:	2205      	movs	r2, #5
 800606a:	60da      	str	r2, [r3, #12]
}
 800606c:	3718      	adds	r7, #24
 800606e:	46bd      	mov	sp, r7
 8006070:	bd80      	pop	{r7, pc}
 8006072:	bf00      	nop
 8006074:	431bde83 	.word	0x431bde83
 8006078:	aaaaaaab 	.word	0xaaaaaaab
 800607c:	50004710 	.word	0x50004710
 8006080:	f08080ff 	.word	0xf08080ff
 8006084:	88888889 	.word	0x88888889
 8006088:	b60b60b7 	.word	0xb60b60b7
 800608c:	50004160 	.word	0x50004160

08006090 <XMC_SCU_CLOCK_StepSystemPllFrequency>:
  SCU_PLL->PLLCON0 |= (uint32_t)SCU_PLL_PLLCON0_PLLPWD_Msk;
}

/* API to step up/down the main PLL frequency */
void XMC_SCU_CLOCK_StepSystemPllFrequency(uint32_t kdiv)
{
 8006090:	b580      	push	{r7, lr}
 8006092:	b082      	sub	sp, #8
 8006094:	af00      	add	r7, sp, #0
 8006096:	6078      	str	r0, [r7, #4]
  SCU_PLL->PLLCON1 = (uint32_t)((SCU_PLL->PLLCON1 & ~SCU_PLL_PLLCON1_K2DIV_Msk) |
 8006098:	490b      	ldr	r1, [pc, #44]	; (80060c8 <XMC_SCU_CLOCK_StepSystemPllFrequency+0x38>)
 800609a:	4b0b      	ldr	r3, [pc, #44]	; (80060c8 <XMC_SCU_CLOCK_StepSystemPllFrequency+0x38>)
 800609c:	689b      	ldr	r3, [r3, #8]
 800609e:	f423 02fe 	bic.w	r2, r3, #8323072	; 0x7f0000
                                ((kdiv - 1UL) << SCU_PLL_PLLCON1_K2DIV_Pos));
 80060a2:	687b      	ldr	r3, [r7, #4]
 80060a4:	3b01      	subs	r3, #1
 80060a6:	041b      	lsls	r3, r3, #16
}

/* API to step up/down the main PLL frequency */
void XMC_SCU_CLOCK_StepSystemPllFrequency(uint32_t kdiv)
{
  SCU_PLL->PLLCON1 = (uint32_t)((SCU_PLL->PLLCON1 & ~SCU_PLL_PLLCON1_K2DIV_Msk) |
 80060a8:	4313      	orrs	r3, r2
 80060aa:	608b      	str	r3, [r1, #8]
                                ((kdiv - 1UL) << SCU_PLL_PLLCON1_K2DIV_Pos));

  while ((SCU_PLL->PLLSTAT & SCU_PLL_PLLSTAT_K2RDY_Msk) == 0U)
 80060ac:	bf00      	nop
 80060ae:	4b06      	ldr	r3, [pc, #24]	; (80060c8 <XMC_SCU_CLOCK_StepSystemPllFrequency+0x38>)
 80060b0:	681b      	ldr	r3, [r3, #0]
 80060b2:	f003 0320 	and.w	r3, r3, #32
 80060b6:	2b00      	cmp	r3, #0
 80060b8:	d0f9      	beq.n	80060ae <XMC_SCU_CLOCK_StepSystemPllFrequency+0x1e>
  {
    /* wait until K2-divider operates on the configured value  */
  }

  XMC_SCU_lDelay(50U);
 80060ba:	2032      	movs	r0, #50	; 0x32
 80060bc:	f7ff fb80 	bl	80057c0 <XMC_SCU_lDelay>
}
 80060c0:	3708      	adds	r7, #8
 80060c2:	46bd      	mov	sp, r7
 80060c4:	bd80      	pop	{r7, pc}
 80060c6:	bf00      	nop
 80060c8:	50004710 	.word	0x50004710

080060cc <XMC_CAN_IsPanelControlReady>:
 * \par<b>Related APIs:</b><BR>
 *  XMC_CAN_PanelControl()
 *
 */
__STATIC_INLINE bool XMC_CAN_IsPanelControlReady(XMC_CAN_t *const obj)
{
 80060cc:	b480      	push	{r7}
 80060ce:	b083      	sub	sp, #12
 80060d0:	af00      	add	r7, sp, #0
 80060d2:	6078      	str	r0, [r7, #4]
  return (bool)((obj->PANCTR & (CAN_PANCTR_BUSY_Msk | CAN_PANCTR_RBUSY_Msk)) == 0);
 80060d4:	687b      	ldr	r3, [r7, #4]
 80060d6:	f8d3 31c4 	ldr.w	r3, [r3, #452]	; 0x1c4
 80060da:	f403 7340 	and.w	r3, r3, #768	; 0x300
 80060de:	2b00      	cmp	r3, #0
 80060e0:	bf0c      	ite	eq
 80060e2:	2301      	moveq	r3, #1
 80060e4:	2300      	movne	r3, #0
 80060e6:	b2db      	uxtb	r3, r3
}
 80060e8:	4618      	mov	r0, r3
 80060ea:	370c      	adds	r7, #12
 80060ec:	46bd      	mov	sp, r7
 80060ee:	f85d 7b04 	ldr.w	r7, [sp], #4
 80060f2:	4770      	bx	lr

080060f4 <XMC_CAN_PanelControl>:

__STATIC_INLINE void XMC_CAN_PanelControl(XMC_CAN_t *const obj,
    const XMC_CAN_PANCMD_t pancmd,
    const uint8_t arg1,
    const uint8_t arg2)
{
 80060f4:	b480      	push	{r7}
 80060f6:	b083      	sub	sp, #12
 80060f8:	af00      	add	r7, sp, #0
 80060fa:	6078      	str	r0, [r7, #4]
 80060fc:	4608      	mov	r0, r1
 80060fe:	4611      	mov	r1, r2
 8006100:	461a      	mov	r2, r3
 8006102:	4603      	mov	r3, r0
 8006104:	70fb      	strb	r3, [r7, #3]
 8006106:	460b      	mov	r3, r1
 8006108:	70bb      	strb	r3, [r7, #2]
 800610a:	4613      	mov	r3, r2
 800610c:	707b      	strb	r3, [r7, #1]
  obj->PANCTR = (((uint32_t)pancmd << CAN_PANCTR_PANCMD_Pos) & (uint32_t)CAN_PANCTR_PANCMD_Msk) |
 800610e:	78fa      	ldrb	r2, [r7, #3]
                (((uint32_t)arg1 << CAN_PANCTR_PANAR1_Pos) & (uint32_t)CAN_PANCTR_PANAR1_Msk) |
 8006110:	78bb      	ldrb	r3, [r7, #2]
 8006112:	041b      	lsls	r3, r3, #16
 8006114:	f403 037f 	and.w	r3, r3, #16711680	; 0xff0000
__STATIC_INLINE void XMC_CAN_PanelControl(XMC_CAN_t *const obj,
    const XMC_CAN_PANCMD_t pancmd,
    const uint8_t arg1,
    const uint8_t arg2)
{
  obj->PANCTR = (((uint32_t)pancmd << CAN_PANCTR_PANCMD_Pos) & (uint32_t)CAN_PANCTR_PANCMD_Msk) |
 8006118:	431a      	orrs	r2, r3
                (((uint32_t)arg1 << CAN_PANCTR_PANAR1_Pos) & (uint32_t)CAN_PANCTR_PANAR1_Msk) |
                (((uint32_t)arg2 << CAN_PANCTR_PANAR2_Pos) & (uint32_t)CAN_PANCTR_PANAR2_Msk);
 800611a:	787b      	ldrb	r3, [r7, #1]
 800611c:	061b      	lsls	r3, r3, #24
    const XMC_CAN_PANCMD_t pancmd,
    const uint8_t arg1,
    const uint8_t arg2)
{
  obj->PANCTR = (((uint32_t)pancmd << CAN_PANCTR_PANCMD_Pos) & (uint32_t)CAN_PANCTR_PANCMD_Msk) |
                (((uint32_t)arg1 << CAN_PANCTR_PANAR1_Pos) & (uint32_t)CAN_PANCTR_PANAR1_Msk) |
 800611e:	431a      	orrs	r2, r3
__STATIC_INLINE void XMC_CAN_PanelControl(XMC_CAN_t *const obj,
    const XMC_CAN_PANCMD_t pancmd,
    const uint8_t arg1,
    const uint8_t arg2)
{
  obj->PANCTR = (((uint32_t)pancmd << CAN_PANCTR_PANCMD_Pos) & (uint32_t)CAN_PANCTR_PANCMD_Msk) |
 8006120:	687b      	ldr	r3, [r7, #4]
 8006122:	f8c3 21c4 	str.w	r2, [r3, #452]	; 0x1c4
                (((uint32_t)arg1 << CAN_PANCTR_PANAR1_Pos) & (uint32_t)CAN_PANCTR_PANAR1_Msk) |
                (((uint32_t)arg2 << CAN_PANCTR_PANAR2_Pos) & (uint32_t)CAN_PANCTR_PANAR2_Msk);
}
 8006126:	370c      	adds	r7, #12
 8006128:	46bd      	mov	sp, r7
 800612a:	f85d 7b04 	ldr.w	r7, [sp], #4
 800612e:	4770      	bx	lr

08006130 <XMC_CAN_NODE_EnableConfigurationChange>:
 * XMC_CAN_NODE_DisableConfigurationChange()
 *
 */

__STATIC_INLINE void XMC_CAN_NODE_EnableConfigurationChange(XMC_CAN_NODE_t *const can_node)
{
 8006130:	b480      	push	{r7}
 8006132:	b083      	sub	sp, #12
 8006134:	af00      	add	r7, sp, #0
 8006136:	6078      	str	r0, [r7, #4]
  can_node->NCR |= (uint32_t)CAN_NODE_NCR_CCE_Msk;
 8006138:	687b      	ldr	r3, [r7, #4]
 800613a:	681b      	ldr	r3, [r3, #0]
 800613c:	f043 0240 	orr.w	r2, r3, #64	; 0x40
 8006140:	687b      	ldr	r3, [r7, #4]
 8006142:	601a      	str	r2, [r3, #0]
}
 8006144:	370c      	adds	r7, #12
 8006146:	46bd      	mov	sp, r7
 8006148:	f85d 7b04 	ldr.w	r7, [sp], #4
 800614c:	4770      	bx	lr
 800614e:	bf00      	nop

08006150 <XMC_CAN_NODE_DisableConfigurationChange>:
 * XMC_CAN_NODE_EnableConfigurationChange()
 *
 */

__STATIC_INLINE void XMC_CAN_NODE_DisableConfigurationChange(XMC_CAN_NODE_t *const can_node)
{
 8006150:	b480      	push	{r7}
 8006152:	b083      	sub	sp, #12
 8006154:	af00      	add	r7, sp, #0
 8006156:	6078      	str	r0, [r7, #4]
  can_node->NCR &= ~(uint32_t)CAN_NODE_NCR_CCE_Msk;
 8006158:	687b      	ldr	r3, [r7, #4]
 800615a:	681b      	ldr	r3, [r3, #0]
 800615c:	f023 0240 	bic.w	r2, r3, #64	; 0x40
 8006160:	687b      	ldr	r3, [r7, #4]
 8006162:	601a      	str	r2, [r3, #0]
}
 8006164:	370c      	adds	r7, #12
 8006166:	46bd      	mov	sp, r7
 8006168:	f85d 7b04 	ldr.w	r7, [sp], #4
 800616c:	4770      	bx	lr
 800616e:	bf00      	nop

08006170 <max>:

#if defined(CAN)
#include "xmc_scu.h"

__STATIC_INLINE uint32_t max(uint32_t a, uint32_t b)
{
 8006170:	b480      	push	{r7}
 8006172:	b083      	sub	sp, #12
 8006174:	af00      	add	r7, sp, #0
 8006176:	6078      	str	r0, [r7, #4]
 8006178:	6039      	str	r1, [r7, #0]
  return (a > b) ? a : b;
 800617a:	683a      	ldr	r2, [r7, #0]
 800617c:	687b      	ldr	r3, [r7, #4]
 800617e:	4293      	cmp	r3, r2
 8006180:	bf38      	it	cc
 8006182:	4613      	movcc	r3, r2
}
 8006184:	4618      	mov	r0, r3
 8006186:	370c      	adds	r7, #12
 8006188:	46bd      	mov	sp, r7
 800618a:	f85d 7b04 	ldr.w	r7, [sp], #4
 800618e:	4770      	bx	lr

08006190 <min>:

__STATIC_INLINE uint32_t min(uint32_t a, uint32_t b)
{
 8006190:	b480      	push	{r7}
 8006192:	b083      	sub	sp, #12
 8006194:	af00      	add	r7, sp, #0
 8006196:	6078      	str	r0, [r7, #4]
 8006198:	6039      	str	r1, [r7, #0]
  return (a < b) ? a : b;
 800619a:	683a      	ldr	r2, [r7, #0]
 800619c:	687b      	ldr	r3, [r7, #4]
 800619e:	4293      	cmp	r3, r2
 80061a0:	bf28      	it	cs
 80061a2:	4613      	movcs	r3, r2
}
 80061a4:	4618      	mov	r0, r3
 80061a6:	370c      	adds	r7, #12
 80061a8:	46bd      	mov	sp, r7
 80061aa:	f85d 7b04 	ldr.w	r7, [sp], #4
 80061ae:	4770      	bx	lr

080061b0 <XMC_CAN_NODE_NominalBitTimeConfigure>:
}

/* Baudrate Configuration */
void XMC_CAN_NODE_NominalBitTimeConfigure (XMC_CAN_NODE_t *const can_node,
    const XMC_CAN_NODE_NOMINAL_BIT_TIME_CONFIG_t *const can_bit_time)
{
 80061b0:	b580      	push	{r7, lr}
 80061b2:	b090      	sub	sp, #64	; 0x40
 80061b4:	af00      	add	r7, sp, #0
 80061b6:	6078      	str	r0, [r7, #4]
 80061b8:	6039      	str	r1, [r7, #0]
  uint32_t temp_brp = 12U ;
 80061ba:	230c      	movs	r3, #12
 80061bc:	63fb      	str	r3, [r7, #60]	; 0x3c
  uint32_t temp_tseg1 = 12U;
 80061be:	230c      	movs	r3, #12
 80061c0:	63bb      	str	r3, [r7, #56]	; 0x38
  uint32_t best_brp = 0U;
 80061c2:	2300      	movs	r3, #0
 80061c4:	637b      	str	r3, [r7, #52]	; 0x34
  uint32_t best_tseg1 = 1U;
 80061c6:	2301      	movs	r3, #1
 80061c8:	633b      	str	r3, [r7, #48]	; 0x30
  uint32_t best_tseg2 = 0U;
 80061ca:	2300      	movs	r3, #0
 80061cc:	617b      	str	r3, [r7, #20]
  uint32_t best_tbaud = 0U;
 80061ce:	2300      	movs	r3, #0
 80061d0:	62fb      	str	r3, [r7, #44]	; 0x2c
  uint32_t best_error = 10000U;
 80061d2:	f242 7310 	movw	r3, #10000	; 0x2710
 80061d6:	62bb      	str	r3, [r7, #40]	; 0x28
   * Tsjw = (SJW + 1)*Tq
   * TSeg1 >= Tsjw + Tprop
   * TSeg2 >= Tsjw
   */
  /* search for best baudrate */
  for (temp_brp = 1U; temp_brp <= 64U; temp_brp++)
 80061d8:	2301      	movs	r3, #1
 80061da:	63fb      	str	r3, [r7, #60]	; 0x3c
 80061dc:	e067      	b.n	80062ae <XMC_CAN_NODE_NominalBitTimeConfigure+0xfe>
  {

    uint32_t f_quanta = (uint32_t)((can_bit_time->can_frequency * 10U) / temp_brp);
 80061de:	683b      	ldr	r3, [r7, #0]
 80061e0:	681a      	ldr	r2, [r3, #0]
 80061e2:	4613      	mov	r3, r2
 80061e4:	009b      	lsls	r3, r3, #2
 80061e6:	4413      	add	r3, r2
 80061e8:	005b      	lsls	r3, r3, #1
 80061ea:	461a      	mov	r2, r3
 80061ec:	6bfb      	ldr	r3, [r7, #60]	; 0x3c
 80061ee:	fbb2 f3f3 	udiv	r3, r2, r3
 80061f2:	613b      	str	r3, [r7, #16]
    uint32_t temp_tbaud = (uint32_t)(f_quanta / (can_bit_time->baudrate));
 80061f4:	683b      	ldr	r3, [r7, #0]
 80061f6:	685b      	ldr	r3, [r3, #4]
 80061f8:	693a      	ldr	r2, [r7, #16]
 80061fa:	fbb2 f3f3 	udiv	r3, r2, r3
 80061fe:	627b      	str	r3, [r7, #36]	; 0x24
    uint32_t temp_baudrate;
    uint32_t error;

    if ((temp_tbaud % 10U) > 5U)
 8006200:	6a79      	ldr	r1, [r7, #36]	; 0x24
 8006202:	4b5b      	ldr	r3, [pc, #364]	; (8006370 <XMC_CAN_NODE_NominalBitTimeConfigure+0x1c0>)
 8006204:	fba3 2301 	umull	r2, r3, r3, r1
 8006208:	08da      	lsrs	r2, r3, #3
 800620a:	4613      	mov	r3, r2
 800620c:	009b      	lsls	r3, r3, #2
 800620e:	4413      	add	r3, r2
 8006210:	005b      	lsls	r3, r3, #1
 8006212:	1aca      	subs	r2, r1, r3
 8006214:	2a05      	cmp	r2, #5
 8006216:	d909      	bls.n	800622c <XMC_CAN_NODE_NominalBitTimeConfigure+0x7c>
    {
      temp_tbaud = (uint32_t)(temp_tbaud / 10U);
 8006218:	6a7b      	ldr	r3, [r7, #36]	; 0x24
 800621a:	4a55      	ldr	r2, [pc, #340]	; (8006370 <XMC_CAN_NODE_NominalBitTimeConfigure+0x1c0>)
 800621c:	fba2 2303 	umull	r2, r3, r2, r3
 8006220:	08db      	lsrs	r3, r3, #3
 8006222:	627b      	str	r3, [r7, #36]	; 0x24
      temp_tbaud++;
 8006224:	6a7b      	ldr	r3, [r7, #36]	; 0x24
 8006226:	3301      	adds	r3, #1
 8006228:	627b      	str	r3, [r7, #36]	; 0x24
 800622a:	e005      	b.n	8006238 <XMC_CAN_NODE_NominalBitTimeConfigure+0x88>
    }
    else
    {
      temp_tbaud = (uint32_t)(temp_tbaud / 10U);
 800622c:	6a7b      	ldr	r3, [r7, #36]	; 0x24
 800622e:	4a50      	ldr	r2, [pc, #320]	; (8006370 <XMC_CAN_NODE_NominalBitTimeConfigure+0x1c0>)
 8006230:	fba2 2303 	umull	r2, r3, r2, r3
 8006234:	08db      	lsrs	r3, r3, #3
 8006236:	627b      	str	r3, [r7, #36]	; 0x24
    }

    if (temp_tbaud > 0U)
 8006238:	6a7b      	ldr	r3, [r7, #36]	; 0x24
 800623a:	2b00      	cmp	r3, #0
 800623c:	d00a      	beq.n	8006254 <XMC_CAN_NODE_NominalBitTimeConfigure+0xa4>
    {
      temp_baudrate = (uint32_t) (f_quanta / (temp_tbaud * 10U));
 800623e:	6a7a      	ldr	r2, [r7, #36]	; 0x24
 8006240:	4613      	mov	r3, r2
 8006242:	009b      	lsls	r3, r3, #2
 8006244:	4413      	add	r3, r2
 8006246:	005b      	lsls	r3, r3, #1
 8006248:	461a      	mov	r2, r3
 800624a:	693b      	ldr	r3, [r7, #16]
 800624c:	fbb3 f3f2 	udiv	r3, r3, r2
 8006250:	623b      	str	r3, [r7, #32]
 8006252:	e007      	b.n	8006264 <XMC_CAN_NODE_NominalBitTimeConfigure+0xb4>
    }
    else
    {
      temp_baudrate = f_quanta / 10U;
 8006254:	693b      	ldr	r3, [r7, #16]
 8006256:	4a46      	ldr	r2, [pc, #280]	; (8006370 <XMC_CAN_NODE_NominalBitTimeConfigure+0x1c0>)
 8006258:	fba2 2303 	umull	r2, r3, r2, r3
 800625c:	08db      	lsrs	r3, r3, #3
 800625e:	623b      	str	r3, [r7, #32]
      temp_tbaud = 1;
 8006260:	2301      	movs	r3, #1
 8006262:	627b      	str	r3, [r7, #36]	; 0x24
    }

    if (temp_baudrate >= can_bit_time->baudrate)
 8006264:	683b      	ldr	r3, [r7, #0]
 8006266:	685a      	ldr	r2, [r3, #4]
 8006268:	6a3b      	ldr	r3, [r7, #32]
 800626a:	429a      	cmp	r2, r3
 800626c:	d805      	bhi.n	800627a <XMC_CAN_NODE_NominalBitTimeConfigure+0xca>
    {
      error = temp_baudrate - can_bit_time->baudrate;
 800626e:	683b      	ldr	r3, [r7, #0]
 8006270:	685b      	ldr	r3, [r3, #4]
 8006272:	6a3a      	ldr	r2, [r7, #32]
 8006274:	1ad3      	subs	r3, r2, r3
 8006276:	61fb      	str	r3, [r7, #28]
 8006278:	e004      	b.n	8006284 <XMC_CAN_NODE_NominalBitTimeConfigure+0xd4>
    }
    else
    {
      error = can_bit_time->baudrate - temp_baudrate;
 800627a:	683b      	ldr	r3, [r7, #0]
 800627c:	685a      	ldr	r2, [r3, #4]
 800627e:	6a3b      	ldr	r3, [r7, #32]
 8006280:	1ad3      	subs	r3, r2, r3
 8006282:	61fb      	str	r3, [r7, #28]
    }

    if ((temp_tbaud <= 20U) && (best_error > error))
 8006284:	6a7b      	ldr	r3, [r7, #36]	; 0x24
 8006286:	2b14      	cmp	r3, #20
 8006288:	d80e      	bhi.n	80062a8 <XMC_CAN_NODE_NominalBitTimeConfigure+0xf8>
 800628a:	6aba      	ldr	r2, [r7, #40]	; 0x28
 800628c:	69fb      	ldr	r3, [r7, #28]
 800628e:	429a      	cmp	r2, r3
 8006290:	d90a      	bls.n	80062a8 <XMC_CAN_NODE_NominalBitTimeConfigure+0xf8>
    {
      best_brp = temp_brp;
 8006292:	6bfb      	ldr	r3, [r7, #60]	; 0x3c
 8006294:	637b      	str	r3, [r7, #52]	; 0x34
      best_tbaud = temp_tbaud;
 8006296:	6a7b      	ldr	r3, [r7, #36]	; 0x24
 8006298:	62fb      	str	r3, [r7, #44]	; 0x2c
      best_error = (error);
 800629a:	69fb      	ldr	r3, [r7, #28]
 800629c:	62bb      	str	r3, [r7, #40]	; 0x28

      if (error < 1000U)
 800629e:	69fb      	ldr	r3, [r7, #28]
 80062a0:	f5b3 7f7a 	cmp.w	r3, #1000	; 0x3e8
 80062a4:	d200      	bcs.n	80062a8 <XMC_CAN_NODE_NominalBitTimeConfigure+0xf8>
      {
        break;
 80062a6:	e005      	b.n	80062b4 <XMC_CAN_NODE_NominalBitTimeConfigure+0x104>
   * Tsjw = (SJW + 1)*Tq
   * TSeg1 >= Tsjw + Tprop
   * TSeg2 >= Tsjw
   */
  /* search for best baudrate */
  for (temp_brp = 1U; temp_brp <= 64U; temp_brp++)
 80062a8:	6bfb      	ldr	r3, [r7, #60]	; 0x3c
 80062aa:	3301      	adds	r3, #1
 80062ac:	63fb      	str	r3, [r7, #60]	; 0x3c
 80062ae:	6bfb      	ldr	r3, [r7, #60]	; 0x3c
 80062b0:	2b40      	cmp	r3, #64	; 0x40
 80062b2:	d994      	bls.n	80061de <XMC_CAN_NODE_NominalBitTimeConfigure+0x2e>
        break;
      }
    }
  }
  /* search for best sample point */
  best_error = 10000U;
 80062b4:	f242 7310 	movw	r3, #10000	; 0x2710
 80062b8:	62bb      	str	r3, [r7, #40]	; 0x28

  for (temp_tseg1 = 64U; temp_tseg1 >= 3U; temp_tseg1--)
 80062ba:	2340      	movs	r3, #64	; 0x40
 80062bc:	63bb      	str	r3, [r7, #56]	; 0x38
 80062be:	e02e      	b.n	800631e <XMC_CAN_NODE_NominalBitTimeConfigure+0x16e>
  {
    uint32_t tempSamplePoint = ((temp_tseg1 + 1U) * 10000U) / best_tbaud;
 80062c0:	6bbb      	ldr	r3, [r7, #56]	; 0x38
 80062c2:	3301      	adds	r3, #1
 80062c4:	f242 7210 	movw	r2, #10000	; 0x2710
 80062c8:	fb02 f203 	mul.w	r2, r2, r3
 80062cc:	6afb      	ldr	r3, [r7, #44]	; 0x2c
 80062ce:	fbb2 f3f3 	udiv	r3, r2, r3
 80062d2:	60fb      	str	r3, [r7, #12]
    uint32_t error;
    if (tempSamplePoint >= can_bit_time->sample_point)
 80062d4:	683b      	ldr	r3, [r7, #0]
 80062d6:	891b      	ldrh	r3, [r3, #8]
 80062d8:	461a      	mov	r2, r3
 80062da:	68fb      	ldr	r3, [r7, #12]
 80062dc:	429a      	cmp	r2, r3
 80062de:	d806      	bhi.n	80062ee <XMC_CAN_NODE_NominalBitTimeConfigure+0x13e>
    {
      error = tempSamplePoint  - can_bit_time->sample_point;
 80062e0:	683b      	ldr	r3, [r7, #0]
 80062e2:	891b      	ldrh	r3, [r3, #8]
 80062e4:	461a      	mov	r2, r3
 80062e6:	68fb      	ldr	r3, [r7, #12]
 80062e8:	1a9b      	subs	r3, r3, r2
 80062ea:	61bb      	str	r3, [r7, #24]
 80062ec:	e005      	b.n	80062fa <XMC_CAN_NODE_NominalBitTimeConfigure+0x14a>
    }
    else
    {
      error = can_bit_time->sample_point  - tempSamplePoint;
 80062ee:	683b      	ldr	r3, [r7, #0]
 80062f0:	891b      	ldrh	r3, [r3, #8]
 80062f2:	461a      	mov	r2, r3
 80062f4:	68fb      	ldr	r3, [r7, #12]
 80062f6:	1ad3      	subs	r3, r2, r3
 80062f8:	61bb      	str	r3, [r7, #24]
    }
    if (best_error > error)
 80062fa:	6aba      	ldr	r2, [r7, #40]	; 0x28
 80062fc:	69bb      	ldr	r3, [r7, #24]
 80062fe:	429a      	cmp	r2, r3
 8006300:	d903      	bls.n	800630a <XMC_CAN_NODE_NominalBitTimeConfigure+0x15a>
    {
      best_tseg1 = temp_tseg1;
 8006302:	6bbb      	ldr	r3, [r7, #56]	; 0x38
 8006304:	633b      	str	r3, [r7, #48]	; 0x30
      best_error = error;
 8006306:	69bb      	ldr	r3, [r7, #24]
 8006308:	62bb      	str	r3, [r7, #40]	; 0x28
    }
    if (tempSamplePoint < (can_bit_time->sample_point))
 800630a:	683b      	ldr	r3, [r7, #0]
 800630c:	891b      	ldrh	r3, [r3, #8]
 800630e:	461a      	mov	r2, r3
 8006310:	68fb      	ldr	r3, [r7, #12]
 8006312:	429a      	cmp	r2, r3
 8006314:	d900      	bls.n	8006318 <XMC_CAN_NODE_NominalBitTimeConfigure+0x168>
    {
      break;
 8006316:	e005      	b.n	8006324 <XMC_CAN_NODE_NominalBitTimeConfigure+0x174>
    }
  }
  /* search for best sample point */
  best_error = 10000U;

  for (temp_tseg1 = 64U; temp_tseg1 >= 3U; temp_tseg1--)
 8006318:	6bbb      	ldr	r3, [r7, #56]	; 0x38
 800631a:	3b01      	subs	r3, #1
 800631c:	63bb      	str	r3, [r7, #56]	; 0x38
 800631e:	6bbb      	ldr	r3, [r7, #56]	; 0x38
 8006320:	2b02      	cmp	r3, #2
 8006322:	d8cd      	bhi.n	80062c0 <XMC_CAN_NODE_NominalBitTimeConfigure+0x110>
    {
      break;
    }
  }

  best_tseg2 = best_tbaud - best_tseg1 - 1U;
 8006324:	6afa      	ldr	r2, [r7, #44]	; 0x2c
 8006326:	6b3b      	ldr	r3, [r7, #48]	; 0x30
 8006328:	1ad3      	subs	r3, r2, r3
 800632a:	3b01      	subs	r3, #1
 800632c:	617b      	str	r3, [r7, #20]

  XMC_CAN_NODE_EnableConfigurationChange(can_node);
 800632e:	6878      	ldr	r0, [r7, #4]
 8006330:	f7ff fefe 	bl	8006130 <XMC_CAN_NODE_EnableConfigurationChange>
  /* Configure bit timing register */
  can_node->NBTR = (((uint32_t)(best_tseg2 - 1u) << CAN_NODE_NBTR_TSEG2_Pos) & (uint32_t)CAN_NODE_NBTR_TSEG2_Msk) |
 8006334:	697b      	ldr	r3, [r7, #20]
 8006336:	3b01      	subs	r3, #1
 8006338:	031b      	lsls	r3, r3, #12
 800633a:	f403 42e0 	and.w	r2, r3, #28672	; 0x7000
                   ((((uint32_t)((uint32_t)(can_bit_time->sjw) - 1U) << CAN_NODE_NBTR_SJW_Pos)) & (uint32_t)CAN_NODE_NBTR_SJW_Msk) |
 800633e:	683b      	ldr	r3, [r7, #0]
 8006340:	895b      	ldrh	r3, [r3, #10]
 8006342:	3b01      	subs	r3, #1
 8006344:	019b      	lsls	r3, r3, #6
 8006346:	b2db      	uxtb	r3, r3

  best_tseg2 = best_tbaud - best_tseg1 - 1U;

  XMC_CAN_NODE_EnableConfigurationChange(can_node);
  /* Configure bit timing register */
  can_node->NBTR = (((uint32_t)(best_tseg2 - 1u) << CAN_NODE_NBTR_TSEG2_Pos) & (uint32_t)CAN_NODE_NBTR_TSEG2_Msk) |
 8006348:	431a      	orrs	r2, r3
                   ((((uint32_t)((uint32_t)(can_bit_time->sjw) - 1U) << CAN_NODE_NBTR_SJW_Pos)) & (uint32_t)CAN_NODE_NBTR_SJW_Msk) |
                   (((uint32_t)(best_tseg1 - 1U) << CAN_NODE_NBTR_TSEG1_Pos) & (uint32_t)CAN_NODE_NBTR_TSEG1_Msk) |
 800634a:	6b3b      	ldr	r3, [r7, #48]	; 0x30
 800634c:	3b01      	subs	r3, #1
 800634e:	021b      	lsls	r3, r3, #8
 8006350:	f403 6370 	and.w	r3, r3, #3840	; 0xf00
  best_tseg2 = best_tbaud - best_tseg1 - 1U;

  XMC_CAN_NODE_EnableConfigurationChange(can_node);
  /* Configure bit timing register */
  can_node->NBTR = (((uint32_t)(best_tseg2 - 1u) << CAN_NODE_NBTR_TSEG2_Pos) & (uint32_t)CAN_NODE_NBTR_TSEG2_Msk) |
                   ((((uint32_t)((uint32_t)(can_bit_time->sjw) - 1U) << CAN_NODE_NBTR_SJW_Pos)) & (uint32_t)CAN_NODE_NBTR_SJW_Msk) |
 8006354:	431a      	orrs	r2, r3
                   (((uint32_t)(best_tseg1 - 1U) << CAN_NODE_NBTR_TSEG1_Pos) & (uint32_t)CAN_NODE_NBTR_TSEG1_Msk) |
                   (((uint32_t)(best_brp - 1U) << CAN_NODE_NBTR_BRP_Pos) & (uint32_t)CAN_NODE_NBTR_BRP_Msk) |
 8006356:	6b7b      	ldr	r3, [r7, #52]	; 0x34
 8006358:	3b01      	subs	r3, #1
 800635a:	f003 033f 	and.w	r3, r3, #63	; 0x3f
 800635e:	431a      	orrs	r2, r3

  best_tseg2 = best_tbaud - best_tseg1 - 1U;

  XMC_CAN_NODE_EnableConfigurationChange(can_node);
  /* Configure bit timing register */
  can_node->NBTR = (((uint32_t)(best_tseg2 - 1u) << CAN_NODE_NBTR_TSEG2_Pos) & (uint32_t)CAN_NODE_NBTR_TSEG2_Msk) |
 8006360:	687b      	ldr	r3, [r7, #4]
 8006362:	611a      	str	r2, [r3, #16]
                   ((((uint32_t)((uint32_t)(can_bit_time->sjw) - 1U) << CAN_NODE_NBTR_SJW_Pos)) & (uint32_t)CAN_NODE_NBTR_SJW_Msk) |
                   (((uint32_t)(best_tseg1 - 1U) << CAN_NODE_NBTR_TSEG1_Pos) & (uint32_t)CAN_NODE_NBTR_TSEG1_Msk) |
                   (((uint32_t)(best_brp - 1U) << CAN_NODE_NBTR_BRP_Pos) & (uint32_t)CAN_NODE_NBTR_BRP_Msk) |
                   (((uint32_t)0U << CAN_NODE_NBTR_DIV8_Pos) & (uint32_t)CAN_NODE_NBTR_DIV8_Msk);
  XMC_CAN_NODE_DisableConfigurationChange(can_node);
 8006364:	6878      	ldr	r0, [r7, #4]
 8006366:	f7ff fef3 	bl	8006150 <XMC_CAN_NODE_DisableConfigurationChange>
}
 800636a:	3740      	adds	r7, #64	; 0x40
 800636c:	46bd      	mov	sp, r7
 800636e:	bd80      	pop	{r7, pc}
 8006370:	cccccccd 	.word	0xcccccccd

08006374 <XMC_CAN_AllocateMOtoNodeList>:
/* Function to allocate message object from free list to node list */
void XMC_CAN_AllocateMOtoNodeList(XMC_CAN_t *const obj, const uint8_t node_num, const uint8_t mo_num)
{
 8006374:	b580      	push	{r7, lr}
 8006376:	b082      	sub	sp, #8
 8006378:	af00      	add	r7, sp, #0
 800637a:	6078      	str	r0, [r7, #4]
 800637c:	460b      	mov	r3, r1
 800637e:	70fb      	strb	r3, [r7, #3]
 8006380:	4613      	mov	r3, r2
 8006382:	70bb      	strb	r3, [r7, #2]
  /* wait while panel operation is in progress. */
  while (XMC_CAN_IsPanelControlReady(obj) == false)
 8006384:	bf00      	nop
 8006386:	6878      	ldr	r0, [r7, #4]
 8006388:	f7ff fea0 	bl	80060cc <XMC_CAN_IsPanelControlReady>
 800638c:	4603      	mov	r3, r0
 800638e:	f083 0301 	eor.w	r3, r3, #1
 8006392:	b2db      	uxtb	r3, r3
 8006394:	2b00      	cmp	r3, #0
 8006396:	d1f6      	bne.n	8006386 <XMC_CAN_AllocateMOtoNodeList+0x12>
  {
    /*Do nothing*/
  };

  /* Panel Command for  allocation of MO to node list */
  XMC_CAN_PanelControl(obj, XMC_CAN_PANCMD_STATIC_ALLOCATE, mo_num, (node_num + 1U));
 8006398:	78fb      	ldrb	r3, [r7, #3]
 800639a:	3301      	adds	r3, #1
 800639c:	b2db      	uxtb	r3, r3
 800639e:	78ba      	ldrb	r2, [r7, #2]
 80063a0:	6878      	ldr	r0, [r7, #4]
 80063a2:	2102      	movs	r1, #2
 80063a4:	f7ff fea6 	bl	80060f4 <XMC_CAN_PanelControl>
}
 80063a8:	3708      	adds	r7, #8
 80063aa:	46bd      	mov	sp, r7
 80063ac:	bd80      	pop	{r7, pc}
 80063ae:	bf00      	nop

080063b0 <XMC_CAN_Enable>:
#endif
}

/* Enable XMC_CAN Peripheral */
void XMC_CAN_Enable(XMC_CAN_t *const obj)
{
 80063b0:	b580      	push	{r7, lr}
 80063b2:	b082      	sub	sp, #8
 80063b4:	af00      	add	r7, sp, #0
 80063b6:	6078      	str	r0, [r7, #4]
#if defined(CLOCK_GATING_SUPPORTED)
  XMC_SCU_CLOCK_UngatePeripheralClock(XMC_SCU_PERIPHERAL_CLOCK_MCAN);
 80063b8:	480a      	ldr	r0, [pc, #40]	; (80063e4 <XMC_CAN_Enable+0x34>)
 80063ba:	f7ff fc1d 	bl	8005bf8 <XMC_SCU_CLOCK_UngatePeripheralClock>
#endif
#if defined(PERIPHERAL_RESET_SUPPORTED)
  XMC_SCU_RESET_DeassertPeripheralReset(XMC_SCU_PERIPHERAL_RESET_MCAN);
 80063be:	4809      	ldr	r0, [pc, #36]	; (80063e4 <XMC_CAN_Enable+0x34>)
 80063c0:	f7ff fab6 	bl	8005930 <XMC_SCU_RESET_DeassertPeripheralReset>
#endif
  /* Enable CAN Module */
  obj->CLC &= ~(uint32_t)CAN_CLC_DISR_Msk;
 80063c4:	687b      	ldr	r3, [r7, #4]
 80063c6:	681b      	ldr	r3, [r3, #0]
 80063c8:	f023 0201 	bic.w	r2, r3, #1
 80063cc:	687b      	ldr	r3, [r7, #4]
 80063ce:	601a      	str	r2, [r3, #0]
  while (obj->CLC & CAN_CLC_DISS_Msk)
 80063d0:	bf00      	nop
 80063d2:	687b      	ldr	r3, [r7, #4]
 80063d4:	681b      	ldr	r3, [r3, #0]
 80063d6:	f003 0302 	and.w	r3, r3, #2
 80063da:	2b00      	cmp	r3, #0
 80063dc:	d1f9      	bne.n	80063d2 <XMC_CAN_Enable+0x22>
  {
    /*Do nothing*/
  };
}
 80063de:	3708      	adds	r7, #8
 80063e0:	46bd      	mov	sp, r7
 80063e2:	bd80      	pop	{r7, pc}
 80063e4:	10000010 	.word	0x10000010

080063e8 <XMC_CAN_SetBaudrateClockSource>:
  obj->FDR |= ((uint32_t)can_divider_mode << CAN_FDR_DM_Pos) | ((uint32_t)step << CAN_FDR_STEP_Pos);
}
#endif

void XMC_CAN_SetBaudrateClockSource(XMC_CAN_t *const obj, const XMC_CAN_CANCLKSRC_t source)
{
 80063e8:	b480      	push	{r7}
 80063ea:	b083      	sub	sp, #12
 80063ec:	af00      	add	r7, sp, #0
 80063ee:	6078      	str	r0, [r7, #4]
 80063f0:	460b      	mov	r3, r1
 80063f2:	70fb      	strb	r3, [r7, #3]
#if defined(MULTICAN_PLUS)
  obj->MCR = (obj->MCR & ~CAN_MCR_CLKSEL_Msk) | source ;
 80063f4:	687b      	ldr	r3, [r7, #4]
 80063f6:	f8d3 31c8 	ldr.w	r3, [r3, #456]	; 0x1c8
 80063fa:	f023 020f 	bic.w	r2, r3, #15
 80063fe:	78fb      	ldrb	r3, [r7, #3]
 8006400:	431a      	orrs	r2, r3
 8006402:	687b      	ldr	r3, [r7, #4]
 8006404:	f8c3 21c8 	str.w	r2, [r3, #456]	; 0x1c8
#else
  XMC_UNUSED_ARG(obj);
  XMC_UNUSED_ARG(source);
#endif
}
 8006408:	370c      	adds	r7, #12
 800640a:	46bd      	mov	sp, r7
 800640c:	f85d 7b04 	ldr.w	r7, [sp], #4
 8006410:	4770      	bx	lr
 8006412:	bf00      	nop

08006414 <XMC_CAN_GetBaudrateClockSource>:

XMC_CAN_CANCLKSRC_t XMC_CAN_GetBaudrateClockSource(XMC_CAN_t *const obj)
{
 8006414:	b480      	push	{r7}
 8006416:	b083      	sub	sp, #12
 8006418:	af00      	add	r7, sp, #0
 800641a:	6078      	str	r0, [r7, #4]
#if defined(MULTICAN_PLUS)
  return ((XMC_CAN_CANCLKSRC_t)((obj->MCR & CAN_MCR_CLKSEL_Msk) >> CAN_MCR_CLKSEL_Pos));
 800641c:	687b      	ldr	r3, [r7, #4]
 800641e:	f8d3 31c8 	ldr.w	r3, [r3, #456]	; 0x1c8
 8006422:	b2db      	uxtb	r3, r3
 8006424:	f003 030f 	and.w	r3, r3, #15
 8006428:	b2db      	uxtb	r3, r3
#elif (UC_FAMILY == XMC4)
  XMC_UNUSED_ARG(obj);
  return XMC_CAN_CANCLKSRC_FPERI;
#endif
}
 800642a:	4618      	mov	r0, r3
 800642c:	370c      	adds	r7, #12
 800642e:	46bd      	mov	sp, r7
 8006430:	f85d 7b04 	ldr.w	r7, [sp], #4
 8006434:	4770      	bx	lr
 8006436:	bf00      	nop

08006438 <XMC_CAN_GetBaudrateClockFrequency>:

uint32_t XMC_CAN_GetBaudrateClockFrequency(XMC_CAN_t *const obj)
{
 8006438:	b580      	push	{r7, lr}
 800643a:	b084      	sub	sp, #16
 800643c:	af00      	add	r7, sp, #0
 800643e:	6078      	str	r0, [r7, #4]
  uint32_t frequency = 0;
 8006440:	2300      	movs	r3, #0
 8006442:	60fb      	str	r3, [r7, #12]

#if defined(MULTICAN_PLUS)
  switch (XMC_CAN_GetBaudrateClockSource(obj))
 8006444:	6878      	ldr	r0, [r7, #4]
 8006446:	f7ff ffe5 	bl	8006414 <XMC_CAN_GetBaudrateClockSource>
 800644a:	4603      	mov	r3, r0
 800644c:	2b01      	cmp	r3, #1
 800644e:	d002      	beq.n	8006456 <XMC_CAN_GetBaudrateClockFrequency+0x1e>
 8006450:	2b02      	cmp	r3, #2
 8006452:	d004      	beq.n	800645e <XMC_CAN_GetBaudrateClockFrequency+0x26>
 8006454:	e007      	b.n	8006466 <XMC_CAN_GetBaudrateClockFrequency+0x2e>
  {
#if UC_FAMILY == XMC4
    case XMC_CAN_CANCLKSRC_FPERI:
      frequency = XMC_SCU_CLOCK_GetPeripheralClockFrequency();
 8006456:	f7ff fa87 	bl	8005968 <XMC_SCU_CLOCK_GetPeripheralClockFrequency>
 800645a:	60f8      	str	r0, [r7, #12]
      break;
 800645c:	e003      	b.n	8006466 <XMC_CAN_GetBaudrateClockFrequency+0x2e>
    case XMC_CAN_CANCLKSRC_MCLK:
      frequency = XMC_SCU_CLOCK_GetPeripheralClockFrequency();
      break;
#endif
    case XMC_CAN_CANCLKSRC_FOHP:
      frequency = OSCHP_GetFrequency();
 800645e:	f000 fe6d 	bl	800713c <OSCHP_GetFrequency>
 8006462:	60f8      	str	r0, [r7, #12]
      break;
 8006464:	bf00      	nop
#else
  XMC_UNUSED_ARG(obj);
  frequency = XMC_SCU_CLOCK_GetPeripheralClockFrequency();
#endif

  return frequency;
 8006466:	68fb      	ldr	r3, [r7, #12]
}
 8006468:	4618      	mov	r0, r3
 800646a:	3710      	adds	r7, #16
 800646c:	46bd      	mov	sp, r7
 800646e:	bd80      	pop	{r7, pc}

08006470 <XMC_CAN_InitEx>:

uint32_t XMC_CAN_InitEx(XMC_CAN_t *const obj, XMC_CAN_CANCLKSRC_t clksrc, uint32_t can_frequency)
{
 8006470:	b580      	push	{r7, lr}
 8006472:	b088      	sub	sp, #32
 8006474:	af00      	add	r7, sp, #0
 8006476:	60f8      	str	r0, [r7, #12]
 8006478:	460b      	mov	r3, r1
 800647a:	607a      	str	r2, [r7, #4]
 800647c:	72fb      	strb	r3, [r7, #11]
  uint32_t step_n;
  uint32_t freq_n;
  uint32_t peripheral_frequency;

  /*Enabling the module*/
  XMC_CAN_Enable(obj);
 800647e:	68f8      	ldr	r0, [r7, #12]
 8006480:	f7ff ff96 	bl	80063b0 <XMC_CAN_Enable>

  XMC_CAN_SetBaudrateClockSource(obj, clksrc);
 8006484:	7afb      	ldrb	r3, [r7, #11]
 8006486:	68f8      	ldr	r0, [r7, #12]
 8006488:	4619      	mov	r1, r3
 800648a:	f7ff ffad 	bl	80063e8 <XMC_CAN_SetBaudrateClockSource>
  peripheral_frequency = XMC_CAN_GetBaudrateClockFrequency(obj);
 800648e:	68f8      	ldr	r0, [r7, #12]
 8006490:	f7ff ffd2 	bl	8006438 <XMC_CAN_GetBaudrateClockFrequency>
 8006494:	61f8      	str	r0, [r7, #28]
  XMC_ASSERT("XMC_CAN_Init: frequency not supported", can_frequency <= peripheral_frequency);

  /* Normal divider mode */
  step_n = (uint32_t)min(max(0U, (1024U - (peripheral_frequency / can_frequency))), 1023U);
 8006496:	69fa      	ldr	r2, [r7, #28]
 8006498:	687b      	ldr	r3, [r7, #4]
 800649a:	fbb2 f3f3 	udiv	r3, r2, r3
 800649e:	f5c3 6380 	rsb	r3, r3, #1024	; 0x400
 80064a2:	2000      	movs	r0, #0
 80064a4:	4619      	mov	r1, r3
 80064a6:	f7ff fe63 	bl	8006170 <max>
 80064aa:	4603      	mov	r3, r0
 80064ac:	4618      	mov	r0, r3
 80064ae:	f240 31ff 	movw	r1, #1023	; 0x3ff
 80064b2:	f7ff fe6d 	bl	8006190 <min>
 80064b6:	61b8      	str	r0, [r7, #24]
  freq_n = (uint32_t)(peripheral_frequency / (1024U - step_n));
 80064b8:	69bb      	ldr	r3, [r7, #24]
 80064ba:	f5c3 6380 	rsb	r3, r3, #1024	; 0x400
 80064be:	69fa      	ldr	r2, [r7, #28]
 80064c0:	fbb2 f3f3 	udiv	r3, r2, r3
 80064c4:	617b      	str	r3, [r7, #20]

  obj->FDR &= (uint32_t) ~(CAN_FDR_DM_Msk | CAN_FDR_STEP_Msk);
 80064c6:	68fb      	ldr	r3, [r7, #12]
 80064c8:	68db      	ldr	r3, [r3, #12]
 80064ca:	f423 4343 	bic.w	r3, r3, #49920	; 0xc300
 80064ce:	f023 03ff 	bic.w	r3, r3, #255	; 0xff
 80064d2:	68fa      	ldr	r2, [r7, #12]
 80064d4:	60d3      	str	r3, [r2, #12]
  obj->FDR |= ((uint32_t)XMC_CAN_DM_NORMAL << CAN_FDR_DM_Pos) | ((uint32_t)step_n << CAN_FDR_STEP_Pos);
 80064d6:	68fb      	ldr	r3, [r7, #12]
 80064d8:	68da      	ldr	r2, [r3, #12]
 80064da:	69bb      	ldr	r3, [r7, #24]
 80064dc:	4313      	orrs	r3, r2
 80064de:	f443 4280 	orr.w	r2, r3, #16384	; 0x4000
 80064e2:	68fb      	ldr	r3, [r7, #12]
 80064e4:	60da      	str	r2, [r3, #12]

  return freq_n;
 80064e6:	697b      	ldr	r3, [r7, #20]
}
 80064e8:	4618      	mov	r0, r3
 80064ea:	3720      	adds	r7, #32
 80064ec:	46bd      	mov	sp, r7
 80064ee:	bd80      	pop	{r7, pc}

080064f0 <XMC_CAN_MO_Config>:
  can_mo->can_id_mask = can_id_mask;
}

/* Initialization of XMC_CAN MO Object */
void XMC_CAN_MO_Config(const XMC_CAN_MO_t *const can_mo)
{
 80064f0:	b580      	push	{r7, lr}
 80064f2:	b086      	sub	sp, #24
 80064f4:	af00      	add	r7, sp, #0
 80064f6:	6078      	str	r0, [r7, #4]
  uint32_t reg;

  /* Configure MPN */
  uint32_t num = ((uint32_t)(can_mo->can_mo_ptr) - CAN_BASE - 0x1000U) / 0x0020U;
 80064f8:	687b      	ldr	r3, [r7, #4]
 80064fa:	681b      	ldr	r3, [r3, #0]
 80064fc:	f103 4338 	add.w	r3, r3, #3087007744	; 0xb8000000
 8006500:	f5a3 33a8 	sub.w	r3, r3, #86016	; 0x15000
 8006504:	095b      	lsrs	r3, r3, #5
 8006506:	617b      	str	r3, [r7, #20]
  uint32_t set = (((uint32_t)(num / 32) << (CAN_MO_MOIPR_MPN_Pos + 5U)) | ((uint32_t)(num % 32) << CAN_MO_MOIPR_MPN_Pos));
 8006508:	697b      	ldr	r3, [r7, #20]
 800650a:	095b      	lsrs	r3, r3, #5
 800650c:	035a      	lsls	r2, r3, #13
 800650e:	697b      	ldr	r3, [r7, #20]
 8006510:	f003 031f 	and.w	r3, r3, #31
 8006514:	021b      	lsls	r3, r3, #8
 8006516:	4313      	orrs	r3, r2
 8006518:	613b      	str	r3, [r7, #16]
  can_mo->can_mo_ptr->MOIPR &= ~(CAN_MO_MOIPR_MPN_Msk);
 800651a:	687b      	ldr	r3, [r7, #4]
 800651c:	681b      	ldr	r3, [r3, #0]
 800651e:	687a      	ldr	r2, [r7, #4]
 8006520:	6812      	ldr	r2, [r2, #0]
 8006522:	6892      	ldr	r2, [r2, #8]
 8006524:	f422 427f 	bic.w	r2, r2, #65280	; 0xff00
 8006528:	609a      	str	r2, [r3, #8]
  can_mo->can_mo_ptr->MOIPR |= set;
 800652a:	687b      	ldr	r3, [r7, #4]
 800652c:	681b      	ldr	r3, [r3, #0]
 800652e:	687a      	ldr	r2, [r7, #4]
 8006530:	6812      	ldr	r2, [r2, #0]
 8006532:	6891      	ldr	r1, [r2, #8]
 8006534:	693a      	ldr	r2, [r7, #16]
 8006536:	430a      	orrs	r2, r1
 8006538:	609a      	str	r2, [r3, #8]

  if (((can_mo->can_id_mode != (uint32_t) XMC_CAN_FRAME_TYPE_STANDARD_11BITS) &&
 800653a:	687b      	ldr	r3, [r7, #4]
 800653c:	79db      	ldrb	r3, [r3, #7]
 800653e:	f003 0320 	and.w	r3, r3, #32
 8006542:	b2db      	uxtb	r3, r3
 8006544:	2b00      	cmp	r3, #0
 8006546:	d007      	beq.n	8006558 <XMC_CAN_MO_Config+0x68>
       (can_mo->can_id_mode != (uint32_t) XMC_CAN_FRAME_TYPE_EXTENDED_29BITS)) ||
 8006548:	687b      	ldr	r3, [r7, #4]
 800654a:	79db      	ldrb	r3, [r3, #7]
 800654c:	f003 0320 	and.w	r3, r3, #32
 8006550:	b2db      	uxtb	r3, r3
  uint32_t num = ((uint32_t)(can_mo->can_mo_ptr) - CAN_BASE - 0x1000U) / 0x0020U;
  uint32_t set = (((uint32_t)(num / 32) << (CAN_MO_MOIPR_MPN_Pos + 5U)) | ((uint32_t)(num % 32) << CAN_MO_MOIPR_MPN_Pos));
  can_mo->can_mo_ptr->MOIPR &= ~(CAN_MO_MOIPR_MPN_Msk);
  can_mo->can_mo_ptr->MOIPR |= set;

  if (((can_mo->can_id_mode != (uint32_t) XMC_CAN_FRAME_TYPE_STANDARD_11BITS) &&
 8006552:	2b00      	cmp	r3, #0
 8006554:	d100      	bne.n	8006558 <XMC_CAN_MO_Config+0x68>
 8006556:	e060      	b.n	800661a <XMC_CAN_MO_Config+0x12a>
       (can_mo->can_id_mode != (uint32_t) XMC_CAN_FRAME_TYPE_EXTENDED_29BITS)) ||
      ((can_mo->can_mo_type != XMC_CAN_MO_TYPE_RECMSGOBJ) &&
 8006558:	687b      	ldr	r3, [r7, #4]
 800655a:	7e1b      	ldrb	r3, [r3, #24]
  uint32_t set = (((uint32_t)(num / 32) << (CAN_MO_MOIPR_MPN_Pos + 5U)) | ((uint32_t)(num % 32) << CAN_MO_MOIPR_MPN_Pos));
  can_mo->can_mo_ptr->MOIPR &= ~(CAN_MO_MOIPR_MPN_Msk);
  can_mo->can_mo_ptr->MOIPR |= set;

  if (((can_mo->can_id_mode != (uint32_t) XMC_CAN_FRAME_TYPE_STANDARD_11BITS) &&
       (can_mo->can_id_mode != (uint32_t) XMC_CAN_FRAME_TYPE_EXTENDED_29BITS)) ||
 800655c:	2b00      	cmp	r3, #0
 800655e:	d004      	beq.n	800656a <XMC_CAN_MO_Config+0x7a>
      ((can_mo->can_mo_type != XMC_CAN_MO_TYPE_RECMSGOBJ) &&
       (can_mo->can_mo_type != XMC_CAN_MO_TYPE_TRANSMSGOBJ)))
 8006560:	687b      	ldr	r3, [r7, #4]
 8006562:	7e1b      	ldrb	r3, [r3, #24]
  can_mo->can_mo_ptr->MOIPR &= ~(CAN_MO_MOIPR_MPN_Msk);
  can_mo->can_mo_ptr->MOIPR |= set;

  if (((can_mo->can_id_mode != (uint32_t) XMC_CAN_FRAME_TYPE_STANDARD_11BITS) &&
       (can_mo->can_id_mode != (uint32_t) XMC_CAN_FRAME_TYPE_EXTENDED_29BITS)) ||
      ((can_mo->can_mo_type != XMC_CAN_MO_TYPE_RECMSGOBJ) &&
 8006564:	2b01      	cmp	r3, #1
 8006566:	d000      	beq.n	800656a <XMC_CAN_MO_Config+0x7a>
 8006568:	e057      	b.n	800661a <XMC_CAN_MO_Config+0x12a>
  }
  else
  {

    /* Disable Message object */
    can_mo->can_mo_ptr->MOCTR = CAN_MO_MOCTR_RESMSGVAL_Msk;
 800656a:	687b      	ldr	r3, [r7, #4]
 800656c:	681b      	ldr	r3, [r3, #0]
 800656e:	2220      	movs	r2, #32
 8006570:	61da      	str	r2, [r3, #28]
    if (can_mo->can_id_mode == (uint32_t)XMC_CAN_FRAME_TYPE_STANDARD_11BITS)
 8006572:	687b      	ldr	r3, [r7, #4]
 8006574:	79db      	ldrb	r3, [r3, #7]
 8006576:	f003 0320 	and.w	r3, r3, #32
 800657a:	b2db      	uxtb	r3, r3
 800657c:	2b00      	cmp	r3, #0
 800657e:	d128      	bne.n	80065d2 <XMC_CAN_MO_Config+0xe2>
    {
      reg = can_mo->mo_ar;
 8006580:	687b      	ldr	r3, [r7, #4]
 8006582:	685b      	ldr	r3, [r3, #4]
 8006584:	60fb      	str	r3, [r7, #12]
      reg &= (uint32_t) ~(CAN_MO_MOAR_ID_Msk);
 8006586:	68fb      	ldr	r3, [r7, #12]
 8006588:	f003 4360 	and.w	r3, r3, #3758096384	; 0xe0000000
 800658c:	60fb      	str	r3, [r7, #12]
      reg |= (can_mo->can_identifier << XMC_CAN_MO_MOAR_STDID_Pos);
 800658e:	687b      	ldr	r3, [r7, #4]
 8006590:	685b      	ldr	r3, [r3, #4]
 8006592:	f3c3 031c 	ubfx	r3, r3, #0, #29
 8006596:	049b      	lsls	r3, r3, #18
 8006598:	461a      	mov	r2, r3
 800659a:	68fb      	ldr	r3, [r7, #12]
 800659c:	4313      	orrs	r3, r2
 800659e:	60fb      	str	r3, [r7, #12]
      can_mo->can_mo_ptr->MOAR = reg;
 80065a0:	687b      	ldr	r3, [r7, #4]
 80065a2:	681b      	ldr	r3, [r3, #0]
 80065a4:	68fa      	ldr	r2, [r7, #12]
 80065a6:	619a      	str	r2, [r3, #24]

      reg = can_mo->mo_amr;
 80065a8:	687b      	ldr	r3, [r7, #4]
 80065aa:	689b      	ldr	r3, [r3, #8]
 80065ac:	60fb      	str	r3, [r7, #12]
      reg &= (uint32_t) ~(CAN_MO_MOAMR_AM_Msk);
 80065ae:	68fb      	ldr	r3, [r7, #12]
 80065b0:	f003 4360 	and.w	r3, r3, #3758096384	; 0xe0000000
 80065b4:	60fb      	str	r3, [r7, #12]
      reg |= (can_mo->can_id_mask << XMC_CAN_MO_MOAR_STDID_Pos);
 80065b6:	687b      	ldr	r3, [r7, #4]
 80065b8:	689b      	ldr	r3, [r3, #8]
 80065ba:	f3c3 031c 	ubfx	r3, r3, #0, #29
 80065be:	049b      	lsls	r3, r3, #18
 80065c0:	461a      	mov	r2, r3
 80065c2:	68fb      	ldr	r3, [r7, #12]
 80065c4:	4313      	orrs	r3, r2
 80065c6:	60fb      	str	r3, [r7, #12]
      can_mo->can_mo_ptr->MOAMR = reg;
 80065c8:	687b      	ldr	r3, [r7, #4]
 80065ca:	681b      	ldr	r3, [r3, #0]
 80065cc:	68fa      	ldr	r2, [r7, #12]
 80065ce:	60da      	str	r2, [r3, #12]
 80065d0:	e009      	b.n	80065e6 <XMC_CAN_MO_Config+0xf6>
    }
    else
    {
      can_mo->can_mo_ptr->MOAR = can_mo->mo_ar;
 80065d2:	687b      	ldr	r3, [r7, #4]
 80065d4:	681b      	ldr	r3, [r3, #0]
 80065d6:	687a      	ldr	r2, [r7, #4]
 80065d8:	6852      	ldr	r2, [r2, #4]
 80065da:	619a      	str	r2, [r3, #24]
      can_mo->can_mo_ptr->MOAMR = can_mo->mo_amr;
 80065dc:	687b      	ldr	r3, [r7, #4]
 80065de:	681b      	ldr	r3, [r3, #0]
 80065e0:	687a      	ldr	r2, [r7, #4]
 80065e2:	6892      	ldr	r2, [r2, #8]
 80065e4:	60da      	str	r2, [r3, #12]
    }
    /* Check whether message object is transmit message object */
    if (can_mo->can_mo_type == XMC_CAN_MO_TYPE_TRANSMSGOBJ)
 80065e6:	687b      	ldr	r3, [r7, #4]
 80065e8:	7e1b      	ldrb	r3, [r3, #24]
 80065ea:	2b01      	cmp	r3, #1
 80065ec:	d10c      	bne.n	8006608 <XMC_CAN_MO_Config+0x118>
    {
      /* Set MO as Transmit message object  */
      XMC_CAN_MO_UpdateData(can_mo);
 80065ee:	6878      	ldr	r0, [r7, #4]
 80065f0:	f000 f81a 	bl	8006628 <XMC_CAN_MO_UpdateData>
      can_mo->can_mo_ptr->MOCTR = CAN_MO_MOCTR_SETDIR_Msk;
 80065f4:	687b      	ldr	r3, [r7, #4]
 80065f6:	681b      	ldr	r3, [r3, #0]
 80065f8:	f04f 6200 	mov.w	r2, #134217728	; 0x8000000
 80065fc:	61da      	str	r2, [r3, #28]

      /* Reset RTSEL and Set MSGVAL, TXEN0 and TXEN1 bits */
      can_mo->can_mo_ptr->MOCTR = (CAN_MO_MOCTR_SETTXEN0_Msk | CAN_MO_MOCTR_SETTXEN1_Msk | CAN_MO_MOCTR_SETMSGVAL_Msk |
 80065fe:	687b      	ldr	r3, [r7, #4]
 8006600:	681b      	ldr	r3, [r3, #0]
 8006602:	4a07      	ldr	r2, [pc, #28]	; (8006620 <XMC_CAN_MO_Config+0x130>)
 8006604:	61da      	str	r2, [r3, #28]
 8006606:	e008      	b.n	800661a <XMC_CAN_MO_Config+0x12a>
                                   CAN_MO_MOCTR_RESRXEN_Msk  | CAN_MO_MOCTR_RESRTSEL_Msk);
    }
    else
    {
      /* Set MO as Receive message object and set RXEN bit */
      can_mo->can_mo_ptr->MOCTR = CAN_MO_MOCTR_RESDIR_Msk;
 8006608:	687b      	ldr	r3, [r7, #4]
 800660a:	681b      	ldr	r3, [r3, #0]
 800660c:	f44f 6200 	mov.w	r2, #2048	; 0x800
 8006610:	61da      	str	r2, [r3, #28]

      /* Reset RTSEL, TXEN1 and TXEN2 and Set MSGVAL and RXEN bits */
      can_mo->can_mo_ptr->MOCTR = (CAN_MO_MOCTR_RESTXEN0_Msk | CAN_MO_MOCTR_RESTXEN1_Msk | CAN_MO_MOCTR_SETMSGVAL_Msk |
 8006612:	687b      	ldr	r3, [r7, #4]
 8006614:	681b      	ldr	r3, [r3, #0]
 8006616:	4a03      	ldr	r2, [pc, #12]	; (8006624 <XMC_CAN_MO_Config+0x134>)
 8006618:	61da      	str	r2, [r3, #28]
                                   CAN_MO_MOCTR_SETRXEN_Msk | CAN_MO_MOCTR_RESRTSEL_Msk);
    }

  }
}
 800661a:	3718      	adds	r7, #24
 800661c:	46bd      	mov	sp, r7
 800661e:	bd80      	pop	{r7, pc}
 8006620:	062000c0 	.word	0x062000c0
 8006624:	00a00640 	.word	0x00a00640

08006628 <XMC_CAN_MO_UpdateData>:

/* Update of XMC_CAN Object */
XMC_CAN_STATUS_t XMC_CAN_MO_UpdateData(const XMC_CAN_MO_t *const can_mo)
{
 8006628:	b480      	push	{r7}
 800662a:	b085      	sub	sp, #20
 800662c:	af00      	add	r7, sp, #0
 800662e:	6078      	str	r0, [r7, #4]
  XMC_CAN_STATUS_t error = XMC_CAN_STATUS_MO_NOT_ACCEPTABLE;
 8006630:	2303      	movs	r3, #3
 8006632:	73fb      	strb	r3, [r7, #15]
  /* Check whether message object is transmit message object */
  if (can_mo->can_mo_type == XMC_CAN_MO_TYPE_TRANSMSGOBJ)
 8006634:	687b      	ldr	r3, [r7, #4]
 8006636:	7e1b      	ldrb	r3, [r3, #24]
 8006638:	2b01      	cmp	r3, #1
 800663a:	d122      	bne.n	8006682 <XMC_CAN_MO_UpdateData+0x5a>
  {
    can_mo->can_mo_ptr->MOCTR = CAN_MO_MOCTR_RESMSGVAL_Msk;
 800663c:	687b      	ldr	r3, [r7, #4]
 800663e:	681b      	ldr	r3, [r3, #0]
 8006640:	2220      	movs	r2, #32
 8006642:	61da      	str	r2, [r3, #28]
    /* Configure data length */
    can_mo->can_mo_ptr->MOFCR = ((can_mo->can_mo_ptr->MOFCR) & ~(uint32_t)(CAN_MO_MOFCR_DLC_Msk)) |
 8006644:	687b      	ldr	r3, [r7, #4]
 8006646:	681b      	ldr	r3, [r3, #0]
 8006648:	687a      	ldr	r2, [r7, #4]
 800664a:	6812      	ldr	r2, [r2, #0]
 800664c:	6812      	ldr	r2, [r2, #0]
 800664e:	f022 6170 	bic.w	r1, r2, #251658240	; 0xf000000
                                (((uint32_t) can_mo->can_data_length << CAN_MO_MOFCR_DLC_Pos) & (uint32_t)CAN_MO_MOFCR_DLC_Msk);
 8006652:	687a      	ldr	r2, [r7, #4]
 8006654:	7b12      	ldrb	r2, [r2, #12]
 8006656:	0612      	lsls	r2, r2, #24
 8006658:	f002 6270 	and.w	r2, r2, #251658240	; 0xf000000
  /* Check whether message object is transmit message object */
  if (can_mo->can_mo_type == XMC_CAN_MO_TYPE_TRANSMSGOBJ)
  {
    can_mo->can_mo_ptr->MOCTR = CAN_MO_MOCTR_RESMSGVAL_Msk;
    /* Configure data length */
    can_mo->can_mo_ptr->MOFCR = ((can_mo->can_mo_ptr->MOFCR) & ~(uint32_t)(CAN_MO_MOFCR_DLC_Msk)) |
 800665c:	430a      	orrs	r2, r1
 800665e:	601a      	str	r2, [r3, #0]
                                (((uint32_t) can_mo->can_data_length << CAN_MO_MOFCR_DLC_Pos) & (uint32_t)CAN_MO_MOFCR_DLC_Msk);
    /* Configure Data registers*/
    can_mo->can_mo_ptr->MODATAL = can_mo->can_data[0];
 8006660:	687b      	ldr	r3, [r7, #4]
 8006662:	681b      	ldr	r3, [r3, #0]
 8006664:	687a      	ldr	r2, [r7, #4]
 8006666:	6912      	ldr	r2, [r2, #16]
 8006668:	611a      	str	r2, [r3, #16]
    can_mo->can_mo_ptr->MODATAH = can_mo->can_data[1];
 800666a:	687b      	ldr	r3, [r7, #4]
 800666c:	681b      	ldr	r3, [r3, #0]
 800666e:	687a      	ldr	r2, [r7, #4]
 8006670:	6952      	ldr	r2, [r2, #20]
 8006672:	615a      	str	r2, [r3, #20]
    /* Reset RTSEL and Set MSGVAL ,TXEN0 and TXEN1 bits */
    can_mo->can_mo_ptr->MOCTR = (CAN_MO_MOCTR_SETNEWDAT_Msk | CAN_MO_MOCTR_SETMSGVAL_Msk | CAN_MO_MOCTR_RESRTSEL_Msk);
 8006674:	687b      	ldr	r3, [r7, #4]
 8006676:	681b      	ldr	r3, [r3, #0]
 8006678:	4a06      	ldr	r2, [pc, #24]	; (8006694 <XMC_CAN_MO_UpdateData+0x6c>)
 800667a:	61da      	str	r2, [r3, #28]
    error = XMC_CAN_STATUS_SUCCESS;
 800667c:	2300      	movs	r3, #0
 800667e:	73fb      	strb	r3, [r7, #15]
 8006680:	e001      	b.n	8006686 <XMC_CAN_MO_UpdateData+0x5e>
  }
  else
  {
    error = XMC_CAN_STATUS_MO_NOT_ACCEPTABLE;
 8006682:	2303      	movs	r3, #3
 8006684:	73fb      	strb	r3, [r7, #15]
  }
  return error;
 8006686:	7bfb      	ldrb	r3, [r7, #15]
}
 8006688:	4618      	mov	r0, r3
 800668a:	3714      	adds	r7, #20
 800668c:	46bd      	mov	sp, r7
 800668e:	f85d 7b04 	ldr.w	r7, [sp], #4
 8006692:	4770      	bx	lr
 8006694:	00280040 	.word	0x00280040

08006698 <XMC_CAN_MO_Transmit>:

/* This function is will put a transmit request to transmit message object */
XMC_CAN_STATUS_t XMC_CAN_MO_Transmit(const XMC_CAN_MO_t *const can_mo)
{
 8006698:	b480      	push	{r7}
 800669a:	b087      	sub	sp, #28
 800669c:	af00      	add	r7, sp, #0
 800669e:	6078      	str	r0, [r7, #4]
  XMC_CAN_STATUS_t error = XMC_CAN_STATUS_ERROR;
 80066a0:	2301      	movs	r3, #1
 80066a2:	75fb      	strb	r3, [r7, #23]
  uint32_t mo_type = (uint32_t)(((can_mo->can_mo_ptr->MOSTAT) & CAN_MO_MOSTAT_MSGVAL_Msk) >> CAN_MO_MOSTAT_MSGVAL_Pos);
 80066a4:	687b      	ldr	r3, [r7, #4]
 80066a6:	681b      	ldr	r3, [r3, #0]
 80066a8:	69db      	ldr	r3, [r3, #28]
 80066aa:	f003 0320 	and.w	r3, r3, #32
 80066ae:	095b      	lsrs	r3, r3, #5
 80066b0:	613b      	str	r3, [r7, #16]
  uint32_t mo_transmission_ongoing = (uint32_t) ((can_mo->can_mo_ptr->MOSTAT) & CAN_MO_MOSTAT_TXRQ_Msk) >> CAN_MO_MOSTAT_TXRQ_Pos;
 80066b2:	687b      	ldr	r3, [r7, #4]
 80066b4:	681b      	ldr	r3, [r3, #0]
 80066b6:	69db      	ldr	r3, [r3, #28]
 80066b8:	f403 7380 	and.w	r3, r3, #256	; 0x100
 80066bc:	0a1b      	lsrs	r3, r3, #8
 80066be:	60fb      	str	r3, [r7, #12]
  /* check if message is disabled */
  if (mo_type == 0U)
 80066c0:	693b      	ldr	r3, [r7, #16]
 80066c2:	2b00      	cmp	r3, #0
 80066c4:	d102      	bne.n	80066cc <XMC_CAN_MO_Transmit+0x34>
  {
    error = XMC_CAN_STATUS_MO_DISABLED;
 80066c6:	2304      	movs	r3, #4
 80066c8:	75fb      	strb	r3, [r7, #23]
 80066ca:	e00c      	b.n	80066e6 <XMC_CAN_MO_Transmit+0x4e>
  }
  /* check if transmission is ongoing on message object */
  else if (mo_transmission_ongoing == 1U)
 80066cc:	68fb      	ldr	r3, [r7, #12]
 80066ce:	2b01      	cmp	r3, #1
 80066d0:	d102      	bne.n	80066d8 <XMC_CAN_MO_Transmit+0x40>
  {
    error = XMC_CAN_STATUS_BUSY;
 80066d2:	2302      	movs	r3, #2
 80066d4:	75fb      	strb	r3, [r7, #23]
 80066d6:	e006      	b.n	80066e6 <XMC_CAN_MO_Transmit+0x4e>
  }
  else
  {
    /* set TXRQ bit */
    can_mo->can_mo_ptr-> MOCTR = CAN_MO_MOCTR_SETTXRQ_Msk | CAN_MO_MOCTR_SETTXEN0_Msk | CAN_MO_MOCTR_SETTXEN1_Msk;
 80066d8:	687b      	ldr	r3, [r7, #4]
 80066da:	681b      	ldr	r3, [r3, #0]
 80066dc:	f04f 62e0 	mov.w	r2, #117440512	; 0x7000000
 80066e0:	61da      	str	r2, [r3, #28]
    error = XMC_CAN_STATUS_SUCCESS;
 80066e2:	2300      	movs	r3, #0
 80066e4:	75fb      	strb	r3, [r7, #23]
  }
  return error;
 80066e6:	7dfb      	ldrb	r3, [r7, #23]
}
 80066e8:	4618      	mov	r0, r3
 80066ea:	371c      	adds	r7, #28
 80066ec:	46bd      	mov	sp, r7
 80066ee:	f85d 7b04 	ldr.w	r7, [sp], #4
 80066f2:	4770      	bx	lr

080066f4 <XMC_CAN_MO_Receive>:
}


/* This function is will read the message object data bytes */
XMC_CAN_STATUS_t XMC_CAN_MO_Receive (XMC_CAN_MO_t *can_mo)
{
 80066f4:	b480      	push	{r7}
 80066f6:	b087      	sub	sp, #28
 80066f8:	af00      	add	r7, sp, #0
 80066fa:	6078      	str	r0, [r7, #4]
  XMC_CAN_STATUS_t error = XMC_CAN_STATUS_ERROR;
 80066fc:	2301      	movs	r3, #1
 80066fe:	75fb      	strb	r3, [r7, #23]
  uint8_t rx_pnd = 0U;
 8006700:	2300      	movs	r3, #0
 8006702:	75bb      	strb	r3, [r7, #22]
  uint8_t new_data = 0U;
 8006704:	2300      	movs	r3, #0
 8006706:	757b      	strb	r3, [r7, #21]
  uint32_t mo_type = (uint32_t)((can_mo->can_mo_ptr->MOSTAT) & CAN_MO_MOSTAT_DIR_Msk) >> CAN_MO_MOSTAT_DIR_Pos;
 8006708:	687b      	ldr	r3, [r7, #4]
 800670a:	681b      	ldr	r3, [r3, #0]
 800670c:	69db      	ldr	r3, [r3, #28]
 800670e:	f403 6300 	and.w	r3, r3, #2048	; 0x800
 8006712:	0adb      	lsrs	r3, r3, #11
 8006714:	613b      	str	r3, [r7, #16]
  uint32_t mo_recepcion_ongoing = (uint32_t)((can_mo->can_mo_ptr->MOSTAT) & CAN_MO_MOSTAT_RXUPD_Msk) >> CAN_MO_MOSTAT_RXUPD_Pos;
 8006716:	687b      	ldr	r3, [r7, #4]
 8006718:	681b      	ldr	r3, [r3, #0]
 800671a:	69db      	ldr	r3, [r3, #28]
 800671c:	f003 0304 	and.w	r3, r3, #4
 8006720:	089b      	lsrs	r3, r3, #2
 8006722:	60fb      	str	r3, [r7, #12]
  /* check if message object is a receive message object */
  if (mo_type != (uint32_t)XMC_CAN_MO_TYPE_RECMSGOBJ)
 8006724:	693b      	ldr	r3, [r7, #16]
 8006726:	2b00      	cmp	r3, #0
 8006728:	d002      	beq.n	8006730 <XMC_CAN_MO_Receive+0x3c>
  {
    error = XMC_CAN_STATUS_MO_NOT_ACCEPTABLE;
 800672a:	2303      	movs	r3, #3
 800672c:	75fb      	strb	r3, [r7, #23]
 800672e:	e0a7      	b.n	8006880 <XMC_CAN_MO_Receive+0x18c>
  }
  /* check if reception is ongoing on message object */
  else if (mo_recepcion_ongoing == 1U)
 8006730:	68fb      	ldr	r3, [r7, #12]
 8006732:	2b01      	cmp	r3, #1
 8006734:	d102      	bne.n	800673c <XMC_CAN_MO_Receive+0x48>
  {
    error = XMC_CAN_STATUS_BUSY;
 8006736:	2302      	movs	r3, #2
 8006738:	75fb      	strb	r3, [r7, #23]
 800673a:	e0a1      	b.n	8006880 <XMC_CAN_MO_Receive+0x18c>
  else
  {
    /* read message parameters */
    do
    {
      can_mo->can_mo_ptr->MOCTR = CAN_MO_MOCTR_RESNEWDAT_Msk;
 800673c:	687b      	ldr	r3, [r7, #4]
 800673e:	681b      	ldr	r3, [r3, #0]
 8006740:	2208      	movs	r2, #8
 8006742:	61da      	str	r2, [r3, #28]
      if ((((can_mo->can_mo_ptr->MOAR) & CAN_MO_MOAR_IDE_Msk) >> CAN_MO_MOAR_IDE_Pos) == 0U)
 8006744:	687b      	ldr	r3, [r7, #4]
 8006746:	681b      	ldr	r3, [r3, #0]
 8006748:	699b      	ldr	r3, [r3, #24]
 800674a:	f003 5300 	and.w	r3, r3, #536870912	; 0x20000000
 800674e:	0f5b      	lsrs	r3, r3, #29
 8006750:	2b00      	cmp	r3, #0
 8006752:	d140      	bne.n	80067d6 <XMC_CAN_MO_Receive+0xe2>
      {
        can_mo->can_id_mode = (uint32_t)XMC_CAN_FRAME_TYPE_STANDARD_11BITS;
 8006754:	687a      	ldr	r2, [r7, #4]
 8006756:	79d3      	ldrb	r3, [r2, #7]
 8006758:	f36f 1345 	bfc	r3, #5, #1
 800675c:	71d3      	strb	r3, [r2, #7]
        can_mo->can_identifier = (can_mo->can_mo_ptr->MOAR & XMC_CAN_MO_MOAR_STDID_Msk) >> XMC_CAN_MO_MOAR_STDID_Pos;
 800675e:	687b      	ldr	r3, [r7, #4]
 8006760:	681b      	ldr	r3, [r3, #0]
 8006762:	699a      	ldr	r2, [r3, #24]
 8006764:	4b4a      	ldr	r3, [pc, #296]	; (8006890 <XMC_CAN_MO_Receive+0x19c>)
 8006766:	4013      	ands	r3, r2
 8006768:	0c9b      	lsrs	r3, r3, #18
 800676a:	f023 4160 	bic.w	r1, r3, #3758096384	; 0xe0000000
 800676e:	687a      	ldr	r2, [r7, #4]
 8006770:	6853      	ldr	r3, [r2, #4]
 8006772:	f361 031c 	bfi	r3, r1, #0, #29
 8006776:	6053      	str	r3, [r2, #4]
        can_mo->can_ide_mask = (uint32_t)(can_mo->can_mo_ptr->MOAMR & CAN_MO_MOAMR_MIDE_Msk) >> CAN_MO_MOAMR_MIDE_Pos;
 8006778:	687b      	ldr	r3, [r7, #4]
 800677a:	681b      	ldr	r3, [r3, #0]
 800677c:	68db      	ldr	r3, [r3, #12]
 800677e:	f003 5300 	and.w	r3, r3, #536870912	; 0x20000000
 8006782:	0f5b      	lsrs	r3, r3, #29
 8006784:	b2db      	uxtb	r3, r3
 8006786:	f003 0301 	and.w	r3, r3, #1
 800678a:	b2d9      	uxtb	r1, r3
 800678c:	687a      	ldr	r2, [r7, #4]
 800678e:	7ad3      	ldrb	r3, [r2, #11]
 8006790:	f361 1345 	bfi	r3, r1, #5, #1
 8006794:	72d3      	strb	r3, [r2, #11]
        if (can_mo->can_ide_mask == 1U)
 8006796:	687b      	ldr	r3, [r7, #4]
 8006798:	7adb      	ldrb	r3, [r3, #11]
 800679a:	f003 0320 	and.w	r3, r3, #32
 800679e:	b2db      	uxtb	r3, r3
 80067a0:	2b00      	cmp	r3, #0
 80067a2:	d00d      	beq.n	80067c0 <XMC_CAN_MO_Receive+0xcc>
        {
          can_mo->can_id_mask = (uint32_t)(can_mo->can_mo_ptr->MOAMR & XMC_CAN_MO_MOAR_STDID_Msk) >> XMC_CAN_MO_MOAR_STDID_Pos;
 80067a4:	687b      	ldr	r3, [r7, #4]
 80067a6:	681b      	ldr	r3, [r3, #0]
 80067a8:	68da      	ldr	r2, [r3, #12]
 80067aa:	4b39      	ldr	r3, [pc, #228]	; (8006890 <XMC_CAN_MO_Receive+0x19c>)
 80067ac:	4013      	ands	r3, r2
 80067ae:	0c9b      	lsrs	r3, r3, #18
 80067b0:	f023 4160 	bic.w	r1, r3, #3758096384	; 0xe0000000
 80067b4:	687a      	ldr	r2, [r7, #4]
 80067b6:	6893      	ldr	r3, [r2, #8]
 80067b8:	f361 031c 	bfi	r3, r1, #0, #29
 80067bc:	6093      	str	r3, [r2, #8]
 80067be:	e032      	b.n	8006826 <XMC_CAN_MO_Receive+0x132>
        }
        else
        {
          can_mo->can_id_mask = (uint32_t)(can_mo->can_mo_ptr->MOAMR & CAN_MO_MOAMR_AM_Msk);
 80067c0:	687b      	ldr	r3, [r7, #4]
 80067c2:	681b      	ldr	r3, [r3, #0]
 80067c4:	68db      	ldr	r3, [r3, #12]
 80067c6:	f023 4160 	bic.w	r1, r3, #3758096384	; 0xe0000000
 80067ca:	687a      	ldr	r2, [r7, #4]
 80067cc:	6893      	ldr	r3, [r2, #8]
 80067ce:	f361 031c 	bfi	r3, r1, #0, #29
 80067d2:	6093      	str	r3, [r2, #8]
 80067d4:	e027      	b.n	8006826 <XMC_CAN_MO_Receive+0x132>
        }
      }
      else
      {
        can_mo->can_id_mode = (uint32_t)XMC_CAN_FRAME_TYPE_EXTENDED_29BITS;
 80067d6:	687a      	ldr	r2, [r7, #4]
 80067d8:	79d3      	ldrb	r3, [r2, #7]
 80067da:	f043 0320 	orr.w	r3, r3, #32
 80067de:	71d3      	strb	r3, [r2, #7]
        can_mo->can_identifier = (can_mo->can_mo_ptr->MOAR & CAN_MO_MOAR_ID_Msk);
 80067e0:	687b      	ldr	r3, [r7, #4]
 80067e2:	681b      	ldr	r3, [r3, #0]
 80067e4:	699b      	ldr	r3, [r3, #24]
 80067e6:	f023 4160 	bic.w	r1, r3, #3758096384	; 0xe0000000
 80067ea:	687a      	ldr	r2, [r7, #4]
 80067ec:	6853      	ldr	r3, [r2, #4]
 80067ee:	f361 031c 	bfi	r3, r1, #0, #29
 80067f2:	6053      	str	r3, [r2, #4]
        can_mo->can_id_mask = (uint32_t)(can_mo->can_mo_ptr->MOAMR & CAN_MO_MOAMR_AM_Msk);
 80067f4:	687b      	ldr	r3, [r7, #4]
 80067f6:	681b      	ldr	r3, [r3, #0]
 80067f8:	68db      	ldr	r3, [r3, #12]
 80067fa:	f023 4160 	bic.w	r1, r3, #3758096384	; 0xe0000000
 80067fe:	687a      	ldr	r2, [r7, #4]
 8006800:	6893      	ldr	r3, [r2, #8]
 8006802:	f361 031c 	bfi	r3, r1, #0, #29
 8006806:	6093      	str	r3, [r2, #8]
        can_mo->can_ide_mask = (uint32_t)(can_mo->can_mo_ptr->MOAMR & CAN_MO_MOAMR_MIDE_Msk) >> CAN_MO_MOAMR_MIDE_Pos;
 8006808:	687b      	ldr	r3, [r7, #4]
 800680a:	681b      	ldr	r3, [r3, #0]
 800680c:	68db      	ldr	r3, [r3, #12]
 800680e:	f003 5300 	and.w	r3, r3, #536870912	; 0x20000000
 8006812:	0f5b      	lsrs	r3, r3, #29
 8006814:	b2db      	uxtb	r3, r3
 8006816:	f003 0301 	and.w	r3, r3, #1
 800681a:	b2d9      	uxtb	r1, r3
 800681c:	687a      	ldr	r2, [r7, #4]
 800681e:	7ad3      	ldrb	r3, [r2, #11]
 8006820:	f361 1345 	bfi	r3, r1, #5, #1
 8006824:	72d3      	strb	r3, [r2, #11]
      }
      can_mo->can_data_length = (uint8_t)((uint32_t)((can_mo->can_mo_ptr->MOFCR) & CAN_MO_MOFCR_DLC_Msk) >> CAN_MO_MOFCR_DLC_Pos);
 8006826:	687b      	ldr	r3, [r7, #4]
 8006828:	681b      	ldr	r3, [r3, #0]
 800682a:	681b      	ldr	r3, [r3, #0]
 800682c:	f003 6370 	and.w	r3, r3, #251658240	; 0xf000000
 8006830:	0e1b      	lsrs	r3, r3, #24
 8006832:	b2da      	uxtb	r2, r3
 8006834:	687b      	ldr	r3, [r7, #4]
 8006836:	731a      	strb	r2, [r3, #12]

      can_mo->can_data[0] = can_mo->can_mo_ptr->MODATAL;
 8006838:	687b      	ldr	r3, [r7, #4]
 800683a:	681b      	ldr	r3, [r3, #0]
 800683c:	691a      	ldr	r2, [r3, #16]
 800683e:	687b      	ldr	r3, [r7, #4]
 8006840:	611a      	str	r2, [r3, #16]
      can_mo->can_data[1] = can_mo->can_mo_ptr->MODATAH;
 8006842:	687b      	ldr	r3, [r7, #4]
 8006844:	681b      	ldr	r3, [r3, #0]
 8006846:	695a      	ldr	r2, [r3, #20]
 8006848:	687b      	ldr	r3, [r7, #4]
 800684a:	615a      	str	r2, [r3, #20]

      rx_pnd = (uint8_t)((uint32_t)((can_mo->can_mo_ptr->MOSTAT) & CAN_MO_MOSTAT_RXUPD_Msk) >> CAN_MO_MOSTAT_RXUPD_Pos);
 800684c:	687b      	ldr	r3, [r7, #4]
 800684e:	681b      	ldr	r3, [r3, #0]
 8006850:	69db      	ldr	r3, [r3, #28]
 8006852:	f003 0304 	and.w	r3, r3, #4
 8006856:	089b      	lsrs	r3, r3, #2
 8006858:	75bb      	strb	r3, [r7, #22]
      new_data = (uint8_t)((uint32_t)((can_mo->can_mo_ptr->MOSTAT) & CAN_MO_MOSTAT_NEWDAT_Msk) >> CAN_MO_MOSTAT_NEWDAT_Pos);
 800685a:	687b      	ldr	r3, [r7, #4]
 800685c:	681b      	ldr	r3, [r3, #0]
 800685e:	69db      	ldr	r3, [r3, #28]
 8006860:	f003 0308 	and.w	r3, r3, #8
 8006864:	08db      	lsrs	r3, r3, #3
 8006866:	757b      	strb	r3, [r7, #21]
    }
    while ((rx_pnd != 0U) && (new_data != 0U));
 8006868:	7dbb      	ldrb	r3, [r7, #22]
 800686a:	2b00      	cmp	r3, #0
 800686c:	d003      	beq.n	8006876 <XMC_CAN_MO_Receive+0x182>
 800686e:	7d7b      	ldrb	r3, [r7, #21]
 8006870:	2b00      	cmp	r3, #0
 8006872:	f47f af63 	bne.w	800673c <XMC_CAN_MO_Receive+0x48>

    can_mo->can_mo_type = XMC_CAN_MO_TYPE_RECMSGOBJ;
 8006876:	687b      	ldr	r3, [r7, #4]
 8006878:	2200      	movs	r2, #0
 800687a:	761a      	strb	r2, [r3, #24]
    error = XMC_CAN_STATUS_SUCCESS;
 800687c:	2300      	movs	r3, #0
 800687e:	75fb      	strb	r3, [r7, #23]
  }
  return error;
 8006880:	7dfb      	ldrb	r3, [r7, #23]
}
 8006882:	4618      	mov	r0, r3
 8006884:	371c      	adds	r7, #28
 8006886:	46bd      	mov	sp, r7
 8006888:	f85d 7b04 	ldr.w	r7, [sp], #4
 800688c:	4770      	bx	lr
 800688e:	bf00      	nop
 8006890:	1ffc0000 	.word	0x1ffc0000

08006894 <XMC_GPIO_SetHardwareControl>:
  port->IOCR[(uint32_t)pin >> 2U] &= ~(uint32_t)((uint32_t)PORT_IOCR_PC_Msk << ((uint32_t)PORT_IOCR_PC_Size * ((uint32_t)pin & 0x3U)));
  port->IOCR[(uint32_t)pin >> 2U] |= (uint32_t)mode << ((uint32_t)PORT_IOCR_PC_Size * ((uint32_t)pin & 0x3U));
}

void XMC_GPIO_SetHardwareControl(XMC_GPIO_PORT_t *const port, const uint8_t pin, const XMC_GPIO_HWCTRL_t hwctrl)
{
 8006894:	b480      	push	{r7}
 8006896:	b083      	sub	sp, #12
 8006898:	af00      	add	r7, sp, #0
 800689a:	6078      	str	r0, [r7, #4]
 800689c:	460b      	mov	r3, r1
 800689e:	70fb      	strb	r3, [r7, #3]
 80068a0:	4613      	mov	r3, r2
 80068a2:	70bb      	strb	r3, [r7, #2]
  XMC_ASSERT("XMC_GPIO_SetHardwareControl: Invalid port", XMC_GPIO_CHECK_PORT(port));
  XMC_ASSERT("XMC_GPIO_SetHardwareControl: Invalid hwctrl", XMC_GPIO_CHECK_HWCTRL(hwctrl));

  port->HWSEL &= ~(uint32_t)((uint32_t)PORT_HWSEL_Msk << ((uint32_t)pin << 1U));
 80068a4:	687b      	ldr	r3, [r7, #4]
 80068a6:	6f5a      	ldr	r2, [r3, #116]	; 0x74
 80068a8:	78fb      	ldrb	r3, [r7, #3]
 80068aa:	005b      	lsls	r3, r3, #1
 80068ac:	4619      	mov	r1, r3
 80068ae:	2303      	movs	r3, #3
 80068b0:	408b      	lsls	r3, r1
 80068b2:	43db      	mvns	r3, r3
 80068b4:	401a      	ands	r2, r3
 80068b6:	687b      	ldr	r3, [r7, #4]
 80068b8:	675a      	str	r2, [r3, #116]	; 0x74
  port->HWSEL |= (uint32_t)hwctrl << ((uint32_t)pin << 1U);
 80068ba:	687b      	ldr	r3, [r7, #4]
 80068bc:	6f5a      	ldr	r2, [r3, #116]	; 0x74
 80068be:	78bb      	ldrb	r3, [r7, #2]
 80068c0:	78f9      	ldrb	r1, [r7, #3]
 80068c2:	0049      	lsls	r1, r1, #1
 80068c4:	408b      	lsls	r3, r1
 80068c6:	431a      	orrs	r2, r3
 80068c8:	687b      	ldr	r3, [r7, #4]
 80068ca:	675a      	str	r2, [r3, #116]	; 0x74
}
 80068cc:	370c      	adds	r7, #12
 80068ce:	46bd      	mov	sp, r7
 80068d0:	f85d 7b04 	ldr.w	r7, [sp], #4
 80068d4:	4770      	bx	lr
 80068d6:	bf00      	nop

080068d8 <_sbrk>:

// defined in linker script
extern caddr_t Heap_Bank1_Start;
extern caddr_t Heap_Bank1_End;
caddr_t _sbrk(int nbytes)
{
 80068d8:	b580      	push	{r7, lr}
 80068da:	b084      	sub	sp, #16
 80068dc:	af00      	add	r7, sp, #0
 80068de:	6078      	str	r0, [r7, #4]
  static caddr_t heap_ptr = NULL;
  caddr_t base;

  if (heap_ptr == NULL) {
 80068e0:	4b14      	ldr	r3, [pc, #80]	; (8006934 <_sbrk+0x5c>)
 80068e2:	681b      	ldr	r3, [r3, #0]
 80068e4:	2b00      	cmp	r3, #0
 80068e6:	d102      	bne.n	80068ee <_sbrk+0x16>
    heap_ptr = (caddr_t)&Heap_Bank1_Start;
 80068e8:	4b12      	ldr	r3, [pc, #72]	; (8006934 <_sbrk+0x5c>)
 80068ea:	4a13      	ldr	r2, [pc, #76]	; (8006938 <_sbrk+0x60>)
 80068ec:	601a      	str	r2, [r3, #0]
  }

  base = heap_ptr;
 80068ee:	4b11      	ldr	r3, [pc, #68]	; (8006934 <_sbrk+0x5c>)
 80068f0:	681b      	ldr	r3, [r3, #0]
 80068f2:	60fb      	str	r3, [r7, #12]

  /* heap word alignment */
  nbytes = (nbytes + 3) & ~0x3U;
 80068f4:	687b      	ldr	r3, [r7, #4]
 80068f6:	3303      	adds	r3, #3
 80068f8:	f023 0303 	bic.w	r3, r3, #3
 80068fc:	607b      	str	r3, [r7, #4]
  if ((caddr_t)&Heap_Bank1_End > (heap_ptr + nbytes))
 80068fe:	4b0d      	ldr	r3, [pc, #52]	; (8006934 <_sbrk+0x5c>)
 8006900:	681a      	ldr	r2, [r3, #0]
 8006902:	687b      	ldr	r3, [r7, #4]
 8006904:	4413      	add	r3, r2
 8006906:	4a0d      	ldr	r2, [pc, #52]	; (800693c <_sbrk+0x64>)
 8006908:	4293      	cmp	r3, r2
 800690a:	d207      	bcs.n	800691c <_sbrk+0x44>
  {
    heap_ptr += nbytes;
 800690c:	4b09      	ldr	r3, [pc, #36]	; (8006934 <_sbrk+0x5c>)
 800690e:	681a      	ldr	r2, [r3, #0]
 8006910:	687b      	ldr	r3, [r7, #4]
 8006912:	4413      	add	r3, r2
 8006914:	4a07      	ldr	r2, [pc, #28]	; (8006934 <_sbrk+0x5c>)
 8006916:	6013      	str	r3, [r2, #0]
    return (base);
 8006918:	68fb      	ldr	r3, [r7, #12]
 800691a:	e006      	b.n	800692a <_sbrk+0x52>
  }
  else
  {
    /* Heap overflow */
    errno = ENOMEM;
 800691c:	f000 feea 	bl	80076f4 <__errno>
 8006920:	4602      	mov	r2, r0
 8006922:	230c      	movs	r3, #12
 8006924:	6013      	str	r3, [r2, #0]
    return ((caddr_t)-1);
 8006926:	f04f 33ff 	mov.w	r3, #4294967295
  }
}
 800692a:	4618      	mov	r0, r3
 800692c:	3710      	adds	r7, #16
 800692e:	46bd      	mov	sp, r7
 8006930:	bd80      	pop	{r7, pc}
 8006932:	bf00      	nop
 8006934:	1ffe8c8c 	.word	0x1ffe8c8c
 8006938:	20000000 	.word	0x20000000
 800693c:	2003ffc0 	.word	0x2003ffc0

08006940 <_init>:

/* Init */
void _init(void)
{}
 8006940:	b480      	push	{r7}
 8006942:	af00      	add	r7, sp, #0
 8006944:	46bd      	mov	sp, r7
 8006946:	f85d 7b04 	ldr.w	r7, [sp], #4
 800694a:	4770      	bx	lr

0800694c <MULTICAN_CONFIG_Init>:
  return (version);
}

/*Function to initialize MULTICAN_CONFIG APP */
MULTICAN_CONFIG_STATUS_t MULTICAN_CONFIG_Init(MULTICAN_CONFIG_t *handle)
{
 800694c:	b580      	push	{r7, lr}
 800694e:	b084      	sub	sp, #16
 8006950:	af00      	add	r7, sp, #0
 8006952:	6078      	str	r0, [r7, #4]
  MULTICAN_CONFIG_STATUS_t status = MULTICAN_CONFIG_STATUS_SUCCESS;
 8006954:	2300      	movs	r3, #0
 8006956:	73fb      	strb	r3, [r7, #15]

  status = handle->multican_config_init_func();
 8006958:	687b      	ldr	r3, [r7, #4]
 800695a:	699b      	ldr	r3, [r3, #24]
 800695c:	4798      	blx	r3
 800695e:	4603      	mov	r3, r0
 8006960:	73fb      	strb	r3, [r7, #15]

  return (status);
 8006962:	7bfb      	ldrb	r3, [r7, #15]
}
 8006964:	4618      	mov	r0, r3
 8006966:	3710      	adds	r7, #16
 8006968:	46bd      	mov	sp, r7
 800696a:	bd80      	pop	{r7, pc}

0800696c <XMC_CAN_NODE_SetEventNodePointer>:
 */

__STATIC_INLINE void XMC_CAN_NODE_SetEventNodePointer(XMC_CAN_NODE_t *const can_node,
    const XMC_CAN_NODE_POINTER_EVENT_t ptr_event,
    const uint32_t service_request)
{
 800696c:	b480      	push	{r7}
 800696e:	b085      	sub	sp, #20
 8006970:	af00      	add	r7, sp, #0
 8006972:	60f8      	str	r0, [r7, #12]
 8006974:	460b      	mov	r3, r1
 8006976:	607a      	str	r2, [r7, #4]
 8006978:	72fb      	strb	r3, [r7, #11]
  can_node->NIPR = (uint32_t)((can_node->NIPR) & ~(uint32_t)(CAN_NODE_NIPR_Msk << (uint32_t)ptr_event)) | (service_request << (uint32_t)ptr_event);
 800697a:	68fb      	ldr	r3, [r7, #12]
 800697c:	689a      	ldr	r2, [r3, #8]
 800697e:	7afb      	ldrb	r3, [r7, #11]
 8006980:	2107      	movs	r1, #7
 8006982:	fa01 f303 	lsl.w	r3, r1, r3
 8006986:	43db      	mvns	r3, r3
 8006988:	401a      	ands	r2, r3
 800698a:	7afb      	ldrb	r3, [r7, #11]
 800698c:	6879      	ldr	r1, [r7, #4]
 800698e:	fa01 f303 	lsl.w	r3, r1, r3
 8006992:	431a      	orrs	r2, r3
 8006994:	68fb      	ldr	r3, [r7, #12]
 8006996:	609a      	str	r2, [r3, #8]
}
 8006998:	3714      	adds	r7, #20
 800699a:	46bd      	mov	sp, r7
 800699c:	f85d 7b04 	ldr.w	r7, [sp], #4
 80069a0:	4770      	bx	lr
 80069a2:	bf00      	nop

080069a4 <XMC_CAN_NODE_EnableLoopBack>:
 *  NPCRx can be written only if bit NCRx.CCE is set.
 *
 */

__STATIC_INLINE void XMC_CAN_NODE_EnableLoopBack(XMC_CAN_NODE_t *const can_node)
{
 80069a4:	b480      	push	{r7}
 80069a6:	b083      	sub	sp, #12
 80069a8:	af00      	add	r7, sp, #0
 80069aa:	6078      	str	r0, [r7, #4]
  can_node->NPCR |= (uint32_t)CAN_NODE_NPCR_LBM_Msk;
 80069ac:	687b      	ldr	r3, [r7, #4]
 80069ae:	68db      	ldr	r3, [r3, #12]
 80069b0:	f443 7280 	orr.w	r2, r3, #256	; 0x100
 80069b4:	687b      	ldr	r3, [r7, #4]
 80069b6:	60da      	str	r2, [r3, #12]
}
 80069b8:	370c      	adds	r7, #12
 80069ba:	46bd      	mov	sp, r7
 80069bc:	f85d 7b04 	ldr.w	r7, [sp], #4
 80069c0:	4770      	bx	lr
 80069c2:	bf00      	nop

080069c4 <XMC_CAN_NODE_EnableConfigurationChange>:
 * XMC_CAN_NODE_DisableConfigurationChange()
 *
 */

__STATIC_INLINE void XMC_CAN_NODE_EnableConfigurationChange(XMC_CAN_NODE_t *const can_node)
{
 80069c4:	b480      	push	{r7}
 80069c6:	b083      	sub	sp, #12
 80069c8:	af00      	add	r7, sp, #0
 80069ca:	6078      	str	r0, [r7, #4]
  can_node->NCR |= (uint32_t)CAN_NODE_NCR_CCE_Msk;
 80069cc:	687b      	ldr	r3, [r7, #4]
 80069ce:	681b      	ldr	r3, [r3, #0]
 80069d0:	f043 0240 	orr.w	r2, r3, #64	; 0x40
 80069d4:	687b      	ldr	r3, [r7, #4]
 80069d6:	601a      	str	r2, [r3, #0]
}
 80069d8:	370c      	adds	r7, #12
 80069da:	46bd      	mov	sp, r7
 80069dc:	f85d 7b04 	ldr.w	r7, [sp], #4
 80069e0:	4770      	bx	lr
 80069e2:	bf00      	nop

080069e4 <XMC_CAN_NODE_DisableConfigurationChange>:
 * XMC_CAN_NODE_EnableConfigurationChange()
 *
 */

__STATIC_INLINE void XMC_CAN_NODE_DisableConfigurationChange(XMC_CAN_NODE_t *const can_node)
{
 80069e4:	b480      	push	{r7}
 80069e6:	b083      	sub	sp, #12
 80069e8:	af00      	add	r7, sp, #0
 80069ea:	6078      	str	r0, [r7, #4]
  can_node->NCR &= ~(uint32_t)CAN_NODE_NCR_CCE_Msk;
 80069ec:	687b      	ldr	r3, [r7, #4]
 80069ee:	681b      	ldr	r3, [r3, #0]
 80069f0:	f023 0240 	bic.w	r2, r3, #64	; 0x40
 80069f4:	687b      	ldr	r3, [r7, #4]
 80069f6:	601a      	str	r2, [r3, #0]
}
 80069f8:	370c      	adds	r7, #12
 80069fa:	46bd      	mov	sp, r7
 80069fc:	f85d 7b04 	ldr.w	r7, [sp], #4
 8006a00:	4770      	bx	lr
 8006a02:	bf00      	nop

08006a04 <XMC_CAN_NODE_SetInitBit>:
 * XMC_CAN_NODE_ResetInitBit()
 *
 */

__STATIC_INLINE void XMC_CAN_NODE_SetInitBit(XMC_CAN_NODE_t *const can_node)
{
 8006a04:	b480      	push	{r7}
 8006a06:	b083      	sub	sp, #12
 8006a08:	af00      	add	r7, sp, #0
 8006a0a:	6078      	str	r0, [r7, #4]
  can_node->NCR |= (uint32_t)CAN_NODE_NCR_INIT_Msk;
 8006a0c:	687b      	ldr	r3, [r7, #4]
 8006a0e:	681b      	ldr	r3, [r3, #0]
 8006a10:	f043 0201 	orr.w	r2, r3, #1
 8006a14:	687b      	ldr	r3, [r7, #4]
 8006a16:	601a      	str	r2, [r3, #0]
}
 8006a18:	370c      	adds	r7, #12
 8006a1a:	46bd      	mov	sp, r7
 8006a1c:	f85d 7b04 	ldr.w	r7, [sp], #4
 8006a20:	4770      	bx	lr
 8006a22:	bf00      	nop

08006a24 <XMC_CAN_NODE_ResetInitBit>:
 * \par<b>Related API's:</b><br>
 * XMC_CAN_NODE_SetInitBit()
 *
 */
__STATIC_INLINE void XMC_CAN_NODE_ResetInitBit(XMC_CAN_NODE_t *const can_node)
{
 8006a24:	b480      	push	{r7}
 8006a26:	b083      	sub	sp, #12
 8006a28:	af00      	add	r7, sp, #0
 8006a2a:	6078      	str	r0, [r7, #4]
  can_node->NCR &= ~(uint32_t)CAN_NODE_NCR_INIT_Msk;
 8006a2c:	687b      	ldr	r3, [r7, #4]
 8006a2e:	681b      	ldr	r3, [r3, #0]
 8006a30:	f023 0201 	bic.w	r2, r3, #1
 8006a34:	687b      	ldr	r3, [r7, #4]
 8006a36:	601a      	str	r2, [r3, #0]
}
 8006a38:	370c      	adds	r7, #12
 8006a3a:	46bd      	mov	sp, r7
 8006a3c:	f85d 7b04 	ldr.w	r7, [sp], #4
 8006a40:	4770      	bx	lr
 8006a42:	bf00      	nop

08006a44 <XMC_CAN_NODE_FrameCounterConfigure>:
 *
 */

__STATIC_INLINE void XMC_CAN_NODE_FrameCounterConfigure(XMC_CAN_NODE_t *const can_node,
    const XMC_CAN_NODE_FRAME_COUNTER_t *const can_node_init)
{
 8006a44:	b480      	push	{r7}
 8006a46:	b083      	sub	sp, #12
 8006a48:	af00      	add	r7, sp, #0
 8006a4a:	6078      	str	r0, [r7, #4]
 8006a4c:	6039      	str	r1, [r7, #0]
  can_node->NFCR = (can_node->NFCR & ~(uint32_t)(CAN_NODE_NFCR_CFMOD_Msk |
 8006a4e:	687b      	ldr	r3, [r7, #4]
 8006a50:	699b      	ldr	r3, [r3, #24]
 8006a52:	f423 12f8 	bic.w	r2, r3, #2031616	; 0x1f0000
                    CAN_NODE_NFCR_CFSEL_Msk)) |
                   can_node_init->nfcr;
 8006a56:	683b      	ldr	r3, [r7, #0]
 8006a58:	681b      	ldr	r3, [r3, #0]

__STATIC_INLINE void XMC_CAN_NODE_FrameCounterConfigure(XMC_CAN_NODE_t *const can_node,
    const XMC_CAN_NODE_FRAME_COUNTER_t *const can_node_init)
{
  can_node->NFCR = (can_node->NFCR & ~(uint32_t)(CAN_NODE_NFCR_CFMOD_Msk |
                    CAN_NODE_NFCR_CFSEL_Msk)) |
 8006a5a:	431a      	orrs	r2, r3
 */

__STATIC_INLINE void XMC_CAN_NODE_FrameCounterConfigure(XMC_CAN_NODE_t *const can_node,
    const XMC_CAN_NODE_FRAME_COUNTER_t *const can_node_init)
{
  can_node->NFCR = (can_node->NFCR & ~(uint32_t)(CAN_NODE_NFCR_CFMOD_Msk |
 8006a5c:	687b      	ldr	r3, [r7, #4]
 8006a5e:	619a      	str	r2, [r3, #24]
                    CAN_NODE_NFCR_CFSEL_Msk)) |
                   can_node_init->nfcr;
}
 8006a60:	370c      	adds	r7, #12
 8006a62:	46bd      	mov	sp, r7
 8006a64:	f85d 7b04 	ldr.w	r7, [sp], #4
 8006a68:	4770      	bx	lr
 8006a6a:	bf00      	nop

08006a6c <XMC_CAN_MO_SetEventNodePointer>:
 */

__STATIC_INLINE void XMC_CAN_MO_SetEventNodePointer(const XMC_CAN_MO_t *const can_mo,
    const XMC_CAN_MO_POINTER_EVENT_t can_mo_ptr_int,
    const uint32_t service_request)
{
 8006a6c:	b480      	push	{r7}
 8006a6e:	b085      	sub	sp, #20
 8006a70:	af00      	add	r7, sp, #0
 8006a72:	60f8      	str	r0, [r7, #12]
 8006a74:	460b      	mov	r3, r1
 8006a76:	607a      	str	r2, [r7, #4]
 8006a78:	72fb      	strb	r3, [r7, #11]
  can_mo->can_mo_ptr->MOIPR = ((can_mo->can_mo_ptr->MOIPR ) & ~(uint32_t)((uint32_t)CAN_MO_MOIPR_Msk << (uint32_t)can_mo_ptr_int)) |
 8006a7a:	68fb      	ldr	r3, [r7, #12]
 8006a7c:	681b      	ldr	r3, [r3, #0]
 8006a7e:	68fa      	ldr	r2, [r7, #12]
 8006a80:	6812      	ldr	r2, [r2, #0]
 8006a82:	6891      	ldr	r1, [r2, #8]
 8006a84:	7afa      	ldrb	r2, [r7, #11]
 8006a86:	2007      	movs	r0, #7
 8006a88:	fa00 f202 	lsl.w	r2, r0, r2
 8006a8c:	43d2      	mvns	r2, r2
 8006a8e:	4011      	ands	r1, r2
                              (service_request << (uint32_t)can_mo_ptr_int);
 8006a90:	7afa      	ldrb	r2, [r7, #11]
 8006a92:	6878      	ldr	r0, [r7, #4]
 8006a94:	fa00 f202 	lsl.w	r2, r0, r2

__STATIC_INLINE void XMC_CAN_MO_SetEventNodePointer(const XMC_CAN_MO_t *const can_mo,
    const XMC_CAN_MO_POINTER_EVENT_t can_mo_ptr_int,
    const uint32_t service_request)
{
  can_mo->can_mo_ptr->MOIPR = ((can_mo->can_mo_ptr->MOIPR ) & ~(uint32_t)((uint32_t)CAN_MO_MOIPR_Msk << (uint32_t)can_mo_ptr_int)) |
 8006a98:	430a      	orrs	r2, r1
 8006a9a:	609a      	str	r2, [r3, #8]
                              (service_request << (uint32_t)can_mo_ptr_int);
}
 8006a9c:	3714      	adds	r7, #20
 8006a9e:	46bd      	mov	sp, r7
 8006aa0:	f85d 7b04 	ldr.w	r7, [sp], #4
 8006aa4:	4770      	bx	lr
 8006aa6:	bf00      	nop

08006aa8 <XMC_CAN_MO_EnableEvent>:
 *
 */

__STATIC_INLINE void XMC_CAN_MO_EnableEvent(const XMC_CAN_MO_t *const can_mo,
    const uint32_t event)
{
 8006aa8:	b480      	push	{r7}
 8006aaa:	b083      	sub	sp, #12
 8006aac:	af00      	add	r7, sp, #0
 8006aae:	6078      	str	r0, [r7, #4]
 8006ab0:	6039      	str	r1, [r7, #0]
  can_mo->can_mo_ptr->MOFCR |= event;
 8006ab2:	687b      	ldr	r3, [r7, #4]
 8006ab4:	681b      	ldr	r3, [r3, #0]
 8006ab6:	687a      	ldr	r2, [r7, #4]
 8006ab8:	6812      	ldr	r2, [r2, #0]
 8006aba:	6811      	ldr	r1, [r2, #0]
 8006abc:	683a      	ldr	r2, [r7, #0]
 8006abe:	430a      	orrs	r2, r1
 8006ac0:	601a      	str	r2, [r3, #0]
}
 8006ac2:	370c      	adds	r7, #12
 8006ac4:	46bd      	mov	sp, r7
 8006ac6:	f85d 7b04 	ldr.w	r7, [sp], #4
 8006aca:	4770      	bx	lr

08006acc <MULTICAN_CONFIG_0_lInit>:
};
/*********************************************************************************************************************************
	 *  API IMPLEMENTATION
	*********************************************************************************************************************************/
MULTICAN_CONFIG_STATUS_t MULTICAN_CONFIG_0_lInit()
{
 8006acc:	b580      	push	{r7, lr}
 8006ace:	b082      	sub	sp, #8
 8006ad0:	af00      	add	r7, sp, #0
  MULTICAN_CONFIG_STATUS_t status;
  uint32_t temp_mo;

  status  = (MULTICAN_CONFIG_STATUS_t)GLOBAL_CAN_Init(MULTICAN_CONFIG_0.global_ptr);
 8006ad2:	4ba4      	ldr	r3, [pc, #656]	; (8006d64 <MULTICAN_CONFIG_0_lInit+0x298>)
 8006ad4:	681b      	ldr	r3, [r3, #0]
 8006ad6:	4618      	mov	r0, r3
 8006ad8:	f000 fa6a 	bl	8006fb0 <GLOBAL_CAN_Init>
 8006adc:	4603      	mov	r3, r0
 8006ade:	71fb      	strb	r3, [r7, #7]

  if (status == MULTICAN_CONFIG_STATUS_SUCCESS)
 8006ae0:	79fb      	ldrb	r3, [r7, #7]
 8006ae2:	2b00      	cmp	r3, #0
 8006ae4:	f040 81a1 	bne.w	8006e2a <MULTICAN_CONFIG_0_lInit+0x35e>
  {
    /**** NODE0 CONFIGURATION  ****
	---------------------------------------------------------------------------------------------------------------------*/
   
	/* Initialize the GUI configured values for baud rate to NBTR Reg */
	XMC_CAN_NODE_NominalBitTimeConfigure(MULTICAN_CONFIG_0.node0->node_ptr, MULTICAN_CONFIG_0.node0->baudrate_config);
 8006ae8:	4b9e      	ldr	r3, [pc, #632]	; (8006d64 <MULTICAN_CONFIG_0_lInit+0x298>)
 8006aea:	69db      	ldr	r3, [r3, #28]
 8006aec:	685a      	ldr	r2, [r3, #4]
 8006aee:	4b9d      	ldr	r3, [pc, #628]	; (8006d64 <MULTICAN_CONFIG_0_lInit+0x298>)
 8006af0:	69db      	ldr	r3, [r3, #28]
 8006af2:	689b      	ldr	r3, [r3, #8]
 8006af4:	4610      	mov	r0, r2
 8006af6:	4619      	mov	r1, r3
 8006af8:	f7ff fb5a 	bl	80061b0 <XMC_CAN_NODE_NominalBitTimeConfigure>

	/* set CCE and INIT bit NCR for node configuration */
	XMC_CAN_NODE_EnableConfigurationChange(MULTICAN_CONFIG_0.node0->node_ptr);
 8006afc:	4b99      	ldr	r3, [pc, #612]	; (8006d64 <MULTICAN_CONFIG_0_lInit+0x298>)
 8006afe:	69db      	ldr	r3, [r3, #28]
 8006b00:	685b      	ldr	r3, [r3, #4]
 8006b02:	4618      	mov	r0, r3
 8006b04:	f7ff ff5e 	bl	80069c4 <XMC_CAN_NODE_EnableConfigurationChange>

	XMC_CAN_NODE_SetInitBit(MULTICAN_CONFIG_0.node0->node_ptr);
 8006b08:	4b96      	ldr	r3, [pc, #600]	; (8006d64 <MULTICAN_CONFIG_0_lInit+0x298>)
 8006b0a:	69db      	ldr	r3, [r3, #28]
 8006b0c:	685b      	ldr	r3, [r3, #4]
 8006b0e:	4618      	mov	r0, r3
 8006b10:	f7ff ff78 	bl	8006a04 <XMC_CAN_NODE_SetInitBit>

	XMC_CAN_NODE_FrameCounterConfigure(MULTICAN_CONFIG_0.node0->node_ptr, MULTICAN_CONFIG_0.node0->node_fc_ptr);
 8006b14:	4b93      	ldr	r3, [pc, #588]	; (8006d64 <MULTICAN_CONFIG_0_lInit+0x298>)
 8006b16:	69db      	ldr	r3, [r3, #28]
 8006b18:	685a      	ldr	r2, [r3, #4]
 8006b1a:	4b92      	ldr	r3, [pc, #584]	; (8006d64 <MULTICAN_CONFIG_0_lInit+0x298>)
 8006b1c:	69db      	ldr	r3, [r3, #28]
 8006b1e:	68db      	ldr	r3, [r3, #12]
 8006b20:	4610      	mov	r0, r2
 8006b22:	4619      	mov	r1, r3
 8006b24:	f7ff ff8e 	bl	8006a44 <XMC_CAN_NODE_FrameCounterConfigure>
	
	XMC_CAN_NODE_EnableLoopBack(MULTICAN_CONFIG_0.node0->node_ptr);
 8006b28:	4b8e      	ldr	r3, [pc, #568]	; (8006d64 <MULTICAN_CONFIG_0_lInit+0x298>)
 8006b2a:	69db      	ldr	r3, [r3, #28]
 8006b2c:	685b      	ldr	r3, [r3, #4]
 8006b2e:	4618      	mov	r0, r3
 8006b30:	f7ff ff38 	bl	80069a4 <XMC_CAN_NODE_EnableLoopBack>

    /* Configure the node event pointer for the alert event with the service request number */
 
    XMC_CAN_NODE_SetEventNodePointer(MULTICAN_CONFIG_0.node0->node_ptr, XMC_CAN_NODE_POINTER_EVENT_ALERT,
 8006b34:	4b8b      	ldr	r3, [pc, #556]	; (8006d64 <MULTICAN_CONFIG_0_lInit+0x298>)
 8006b36:	69db      	ldr	r3, [r3, #28]
 8006b38:	685a      	ldr	r2, [r3, #4]
	                                 (uint32_t)MULTICAN_CONFIG_0.node0->alert_event_sr); 
 8006b3a:	4b8a      	ldr	r3, [pc, #552]	; (8006d64 <MULTICAN_CONFIG_0_lInit+0x298>)
 8006b3c:	69db      	ldr	r3, [r3, #28]
 8006b3e:	7c9b      	ldrb	r3, [r3, #18]
	
	XMC_CAN_NODE_EnableLoopBack(MULTICAN_CONFIG_0.node0->node_ptr);

    /* Configure the node event pointer for the alert event with the service request number */
 
    XMC_CAN_NODE_SetEventNodePointer(MULTICAN_CONFIG_0.node0->node_ptr, XMC_CAN_NODE_POINTER_EVENT_ALERT,
 8006b40:	4610      	mov	r0, r2
 8006b42:	2100      	movs	r1, #0
 8006b44:	461a      	mov	r2, r3
 8006b46:	f7ff ff11 	bl	800696c <XMC_CAN_NODE_SetEventNodePointer>
	                                 (uint32_t)MULTICAN_CONFIG_0.node0->alert_event_sr); 

    XMC_CAN_NODE_SetEventNodePointer(MULTICAN_CONFIG_0.node0->node_ptr, XMC_CAN_NODE_POINTER_EVENT_LEC,
 8006b4a:	4b86      	ldr	r3, [pc, #536]	; (8006d64 <MULTICAN_CONFIG_0_lInit+0x298>)
 8006b4c:	69db      	ldr	r3, [r3, #28]
 8006b4e:	685a      	ldr	r2, [r3, #4]
									 (uint32_t)MULTICAN_CONFIG_0.node0->lec_event_sr);
 8006b50:	4b84      	ldr	r3, [pc, #528]	; (8006d64 <MULTICAN_CONFIG_0_lInit+0x298>)
 8006b52:	69db      	ldr	r3, [r3, #28]
 8006b54:	7cdb      	ldrb	r3, [r3, #19]
    /* Configure the node event pointer for the alert event with the service request number */
 
    XMC_CAN_NODE_SetEventNodePointer(MULTICAN_CONFIG_0.node0->node_ptr, XMC_CAN_NODE_POINTER_EVENT_ALERT,
	                                 (uint32_t)MULTICAN_CONFIG_0.node0->alert_event_sr); 

    XMC_CAN_NODE_SetEventNodePointer(MULTICAN_CONFIG_0.node0->node_ptr, XMC_CAN_NODE_POINTER_EVENT_LEC,
 8006b56:	4610      	mov	r0, r2
 8006b58:	2104      	movs	r1, #4
 8006b5a:	461a      	mov	r2, r3
 8006b5c:	f7ff ff06 	bl	800696c <XMC_CAN_NODE_SetEventNodePointer>
									 (uint32_t)MULTICAN_CONFIG_0.node0->lec_event_sr);

	XMC_CAN_NODE_SetEventNodePointer(MULTICAN_CONFIG_0.node0->node_ptr, XMC_CAN_NODE_POINTER_EVENT_TRANSFER_OK,
 8006b60:	4b80      	ldr	r3, [pc, #512]	; (8006d64 <MULTICAN_CONFIG_0_lInit+0x298>)
 8006b62:	69db      	ldr	r3, [r3, #28]
 8006b64:	685a      	ldr	r2, [r3, #4]
									 (uint32_t)MULTICAN_CONFIG_0.node0->txok_event_sr);
 8006b66:	4b7f      	ldr	r3, [pc, #508]	; (8006d64 <MULTICAN_CONFIG_0_lInit+0x298>)
 8006b68:	69db      	ldr	r3, [r3, #28]
 8006b6a:	7d1b      	ldrb	r3, [r3, #20]
	                                 (uint32_t)MULTICAN_CONFIG_0.node0->alert_event_sr); 

    XMC_CAN_NODE_SetEventNodePointer(MULTICAN_CONFIG_0.node0->node_ptr, XMC_CAN_NODE_POINTER_EVENT_LEC,
									 (uint32_t)MULTICAN_CONFIG_0.node0->lec_event_sr);

	XMC_CAN_NODE_SetEventNodePointer(MULTICAN_CONFIG_0.node0->node_ptr, XMC_CAN_NODE_POINTER_EVENT_TRANSFER_OK,
 8006b6c:	4610      	mov	r0, r2
 8006b6e:	2108      	movs	r1, #8
 8006b70:	461a      	mov	r2, r3
 8006b72:	f7ff fefb 	bl	800696c <XMC_CAN_NODE_SetEventNodePointer>
									 (uint32_t)MULTICAN_CONFIG_0.node0->txok_event_sr);

	XMC_CAN_NODE_SetEventNodePointer(MULTICAN_CONFIG_0.node0->node_ptr, XMC_CAN_NODE_POINTER_EVENT_FRAME_COUNTER,
 8006b76:	4b7b      	ldr	r3, [pc, #492]	; (8006d64 <MULTICAN_CONFIG_0_lInit+0x298>)
 8006b78:	69db      	ldr	r3, [r3, #28]
 8006b7a:	685a      	ldr	r2, [r3, #4]
									 (uint32_t)MULTICAN_CONFIG_0.node0->framecount_event_sr);
 8006b7c:	4b79      	ldr	r3, [pc, #484]	; (8006d64 <MULTICAN_CONFIG_0_lInit+0x298>)
 8006b7e:	69db      	ldr	r3, [r3, #28]
 8006b80:	7d5b      	ldrb	r3, [r3, #21]
									 (uint32_t)MULTICAN_CONFIG_0.node0->lec_event_sr);

	XMC_CAN_NODE_SetEventNodePointer(MULTICAN_CONFIG_0.node0->node_ptr, XMC_CAN_NODE_POINTER_EVENT_TRANSFER_OK,
									 (uint32_t)MULTICAN_CONFIG_0.node0->txok_event_sr);

	XMC_CAN_NODE_SetEventNodePointer(MULTICAN_CONFIG_0.node0->node_ptr, XMC_CAN_NODE_POINTER_EVENT_FRAME_COUNTER,
 8006b82:	4610      	mov	r0, r2
 8006b84:	210c      	movs	r1, #12
 8006b86:	461a      	mov	r2, r3
 8006b88:	f7ff fef0 	bl	800696c <XMC_CAN_NODE_SetEventNodePointer>
									 (uint32_t)MULTICAN_CONFIG_0.node0->framecount_event_sr);

    /* Enable node events */

	/* reset CCE and INIT bit NCR for node configuration */
	XMC_CAN_NODE_DisableConfigurationChange(MULTICAN_CONFIG_0.node0->node_ptr);
 8006b8c:	4b75      	ldr	r3, [pc, #468]	; (8006d64 <MULTICAN_CONFIG_0_lInit+0x298>)
 8006b8e:	69db      	ldr	r3, [r3, #28]
 8006b90:	685b      	ldr	r3, [r3, #4]
 8006b92:	4618      	mov	r0, r3
 8006b94:	f7ff ff26 	bl	80069e4 <XMC_CAN_NODE_DisableConfigurationChange>

	XMC_CAN_NODE_ResetInitBit(MULTICAN_CONFIG_0.node0->node_ptr);
 8006b98:	4b72      	ldr	r3, [pc, #456]	; (8006d64 <MULTICAN_CONFIG_0_lInit+0x298>)
 8006b9a:	69db      	ldr	r3, [r3, #28]
 8006b9c:	685b      	ldr	r3, [r3, #4]
 8006b9e:	4618      	mov	r0, r3
 8006ba0:	f7ff ff40 	bl	8006a24 <XMC_CAN_NODE_ResetInitBit>
    /*------------------------------------------------------------------------------------------------------------*/
    /**** NODE1 CONFIGURATION  ****
	---------------------------------------------------------------------------------------------------------------------*/
   
	/* Initialize the GUI configured values for baud rate to NBTR Reg */
	XMC_CAN_NODE_NominalBitTimeConfigure(MULTICAN_CONFIG_0.node1->node_ptr, MULTICAN_CONFIG_0.node1->baudrate_config);
 8006ba4:	4b6f      	ldr	r3, [pc, #444]	; (8006d64 <MULTICAN_CONFIG_0_lInit+0x298>)
 8006ba6:	6a1b      	ldr	r3, [r3, #32]
 8006ba8:	685a      	ldr	r2, [r3, #4]
 8006baa:	4b6e      	ldr	r3, [pc, #440]	; (8006d64 <MULTICAN_CONFIG_0_lInit+0x298>)
 8006bac:	6a1b      	ldr	r3, [r3, #32]
 8006bae:	689b      	ldr	r3, [r3, #8]
 8006bb0:	4610      	mov	r0, r2
 8006bb2:	4619      	mov	r1, r3
 8006bb4:	f7ff fafc 	bl	80061b0 <XMC_CAN_NODE_NominalBitTimeConfigure>

	/* set CCE and INIT bit NCR for node configuration */
	XMC_CAN_NODE_EnableConfigurationChange(MULTICAN_CONFIG_0.node1->node_ptr);
 8006bb8:	4b6a      	ldr	r3, [pc, #424]	; (8006d64 <MULTICAN_CONFIG_0_lInit+0x298>)
 8006bba:	6a1b      	ldr	r3, [r3, #32]
 8006bbc:	685b      	ldr	r3, [r3, #4]
 8006bbe:	4618      	mov	r0, r3
 8006bc0:	f7ff ff00 	bl	80069c4 <XMC_CAN_NODE_EnableConfigurationChange>

	XMC_CAN_NODE_SetInitBit(MULTICAN_CONFIG_0.node1->node_ptr);
 8006bc4:	4b67      	ldr	r3, [pc, #412]	; (8006d64 <MULTICAN_CONFIG_0_lInit+0x298>)
 8006bc6:	6a1b      	ldr	r3, [r3, #32]
 8006bc8:	685b      	ldr	r3, [r3, #4]
 8006bca:	4618      	mov	r0, r3
 8006bcc:	f7ff ff1a 	bl	8006a04 <XMC_CAN_NODE_SetInitBit>

	XMC_CAN_NODE_FrameCounterConfigure(MULTICAN_CONFIG_0.node1->node_ptr, MULTICAN_CONFIG_0.node1->node_fc_ptr);
 8006bd0:	4b64      	ldr	r3, [pc, #400]	; (8006d64 <MULTICAN_CONFIG_0_lInit+0x298>)
 8006bd2:	6a1b      	ldr	r3, [r3, #32]
 8006bd4:	685a      	ldr	r2, [r3, #4]
 8006bd6:	4b63      	ldr	r3, [pc, #396]	; (8006d64 <MULTICAN_CONFIG_0_lInit+0x298>)
 8006bd8:	6a1b      	ldr	r3, [r3, #32]
 8006bda:	68db      	ldr	r3, [r3, #12]
 8006bdc:	4610      	mov	r0, r2
 8006bde:	4619      	mov	r1, r3
 8006be0:	f7ff ff30 	bl	8006a44 <XMC_CAN_NODE_FrameCounterConfigure>
	
	XMC_CAN_NODE_EnableLoopBack(MULTICAN_CONFIG_0.node1->node_ptr);
 8006be4:	4b5f      	ldr	r3, [pc, #380]	; (8006d64 <MULTICAN_CONFIG_0_lInit+0x298>)
 8006be6:	6a1b      	ldr	r3, [r3, #32]
 8006be8:	685b      	ldr	r3, [r3, #4]
 8006bea:	4618      	mov	r0, r3
 8006bec:	f7ff feda 	bl	80069a4 <XMC_CAN_NODE_EnableLoopBack>

    /* Configure the node event pointer for the alert event with the service request number */
 
    XMC_CAN_NODE_SetEventNodePointer(MULTICAN_CONFIG_0.node1->node_ptr, XMC_CAN_NODE_POINTER_EVENT_ALERT,
 8006bf0:	4b5c      	ldr	r3, [pc, #368]	; (8006d64 <MULTICAN_CONFIG_0_lInit+0x298>)
 8006bf2:	6a1b      	ldr	r3, [r3, #32]
 8006bf4:	685a      	ldr	r2, [r3, #4]
	                                 (uint32_t)MULTICAN_CONFIG_0.node1->alert_event_sr); 
 8006bf6:	4b5b      	ldr	r3, [pc, #364]	; (8006d64 <MULTICAN_CONFIG_0_lInit+0x298>)
 8006bf8:	6a1b      	ldr	r3, [r3, #32]
 8006bfa:	7c9b      	ldrb	r3, [r3, #18]
	
	XMC_CAN_NODE_EnableLoopBack(MULTICAN_CONFIG_0.node1->node_ptr);

    /* Configure the node event pointer for the alert event with the service request number */
 
    XMC_CAN_NODE_SetEventNodePointer(MULTICAN_CONFIG_0.node1->node_ptr, XMC_CAN_NODE_POINTER_EVENT_ALERT,
 8006bfc:	4610      	mov	r0, r2
 8006bfe:	2100      	movs	r1, #0
 8006c00:	461a      	mov	r2, r3
 8006c02:	f7ff feb3 	bl	800696c <XMC_CAN_NODE_SetEventNodePointer>
	                                 (uint32_t)MULTICAN_CONFIG_0.node1->alert_event_sr); 

    XMC_CAN_NODE_SetEventNodePointer(MULTICAN_CONFIG_0.node1->node_ptr, XMC_CAN_NODE_POINTER_EVENT_LEC,
 8006c06:	4b57      	ldr	r3, [pc, #348]	; (8006d64 <MULTICAN_CONFIG_0_lInit+0x298>)
 8006c08:	6a1b      	ldr	r3, [r3, #32]
 8006c0a:	685a      	ldr	r2, [r3, #4]
									 (uint32_t)MULTICAN_CONFIG_0.node1->lec_event_sr);
 8006c0c:	4b55      	ldr	r3, [pc, #340]	; (8006d64 <MULTICAN_CONFIG_0_lInit+0x298>)
 8006c0e:	6a1b      	ldr	r3, [r3, #32]
 8006c10:	7cdb      	ldrb	r3, [r3, #19]
    /* Configure the node event pointer for the alert event with the service request number */
 
    XMC_CAN_NODE_SetEventNodePointer(MULTICAN_CONFIG_0.node1->node_ptr, XMC_CAN_NODE_POINTER_EVENT_ALERT,
	                                 (uint32_t)MULTICAN_CONFIG_0.node1->alert_event_sr); 

    XMC_CAN_NODE_SetEventNodePointer(MULTICAN_CONFIG_0.node1->node_ptr, XMC_CAN_NODE_POINTER_EVENT_LEC,
 8006c12:	4610      	mov	r0, r2
 8006c14:	2104      	movs	r1, #4
 8006c16:	461a      	mov	r2, r3
 8006c18:	f7ff fea8 	bl	800696c <XMC_CAN_NODE_SetEventNodePointer>
									 (uint32_t)MULTICAN_CONFIG_0.node1->lec_event_sr);

	XMC_CAN_NODE_SetEventNodePointer(MULTICAN_CONFIG_0.node1->node_ptr, XMC_CAN_NODE_POINTER_EVENT_TRANSFER_OK,
 8006c1c:	4b51      	ldr	r3, [pc, #324]	; (8006d64 <MULTICAN_CONFIG_0_lInit+0x298>)
 8006c1e:	6a1b      	ldr	r3, [r3, #32]
 8006c20:	685a      	ldr	r2, [r3, #4]
									 (uint32_t)MULTICAN_CONFIG_0.node1->txok_event_sr);
 8006c22:	4b50      	ldr	r3, [pc, #320]	; (8006d64 <MULTICAN_CONFIG_0_lInit+0x298>)
 8006c24:	6a1b      	ldr	r3, [r3, #32]
 8006c26:	7d1b      	ldrb	r3, [r3, #20]
	                                 (uint32_t)MULTICAN_CONFIG_0.node1->alert_event_sr); 

    XMC_CAN_NODE_SetEventNodePointer(MULTICAN_CONFIG_0.node1->node_ptr, XMC_CAN_NODE_POINTER_EVENT_LEC,
									 (uint32_t)MULTICAN_CONFIG_0.node1->lec_event_sr);

	XMC_CAN_NODE_SetEventNodePointer(MULTICAN_CONFIG_0.node1->node_ptr, XMC_CAN_NODE_POINTER_EVENT_TRANSFER_OK,
 8006c28:	4610      	mov	r0, r2
 8006c2a:	2108      	movs	r1, #8
 8006c2c:	461a      	mov	r2, r3
 8006c2e:	f7ff fe9d 	bl	800696c <XMC_CAN_NODE_SetEventNodePointer>
									 (uint32_t)MULTICAN_CONFIG_0.node1->txok_event_sr);

	XMC_CAN_NODE_SetEventNodePointer(MULTICAN_CONFIG_0.node1->node_ptr, XMC_CAN_NODE_POINTER_EVENT_FRAME_COUNTER,
 8006c32:	4b4c      	ldr	r3, [pc, #304]	; (8006d64 <MULTICAN_CONFIG_0_lInit+0x298>)
 8006c34:	6a1b      	ldr	r3, [r3, #32]
 8006c36:	685a      	ldr	r2, [r3, #4]
									 (uint32_t)MULTICAN_CONFIG_0.node1->framecount_event_sr);
 8006c38:	4b4a      	ldr	r3, [pc, #296]	; (8006d64 <MULTICAN_CONFIG_0_lInit+0x298>)
 8006c3a:	6a1b      	ldr	r3, [r3, #32]
 8006c3c:	7d5b      	ldrb	r3, [r3, #21]
									 (uint32_t)MULTICAN_CONFIG_0.node1->lec_event_sr);

	XMC_CAN_NODE_SetEventNodePointer(MULTICAN_CONFIG_0.node1->node_ptr, XMC_CAN_NODE_POINTER_EVENT_TRANSFER_OK,
									 (uint32_t)MULTICAN_CONFIG_0.node1->txok_event_sr);

	XMC_CAN_NODE_SetEventNodePointer(MULTICAN_CONFIG_0.node1->node_ptr, XMC_CAN_NODE_POINTER_EVENT_FRAME_COUNTER,
 8006c3e:	4610      	mov	r0, r2
 8006c40:	210c      	movs	r1, #12
 8006c42:	461a      	mov	r2, r3
 8006c44:	f7ff fe92 	bl	800696c <XMC_CAN_NODE_SetEventNodePointer>
									 (uint32_t)MULTICAN_CONFIG_0.node1->framecount_event_sr);

    /* Enable node events */

	/* reset CCE and INIT bit NCR for node configuration */
	XMC_CAN_NODE_DisableConfigurationChange(MULTICAN_CONFIG_0.node1->node_ptr);
 8006c48:	4b46      	ldr	r3, [pc, #280]	; (8006d64 <MULTICAN_CONFIG_0_lInit+0x298>)
 8006c4a:	6a1b      	ldr	r3, [r3, #32]
 8006c4c:	685b      	ldr	r3, [r3, #4]
 8006c4e:	4618      	mov	r0, r3
 8006c50:	f7ff fec8 	bl	80069e4 <XMC_CAN_NODE_DisableConfigurationChange>

	XMC_CAN_NODE_ResetInitBit(MULTICAN_CONFIG_0.node1->node_ptr);
 8006c54:	4b43      	ldr	r3, [pc, #268]	; (8006d64 <MULTICAN_CONFIG_0_lInit+0x298>)
 8006c56:	6a1b      	ldr	r3, [r3, #32]
 8006c58:	685b      	ldr	r3, [r3, #4]
 8006c5a:	4618      	mov	r0, r3
 8006c5c:	f7ff fee2 	bl	8006a24 <XMC_CAN_NODE_ResetInitBit>
    /*------------------------------------------------------------------------------------------------------------*/
    /**** NODE2 CONFIGURATION  ****
	---------------------------------------------------------------------------------------------------------------------*/
   
	/* Initialize the GUI configured values for baud rate to NBTR Reg */
	XMC_CAN_NODE_NominalBitTimeConfigure(MULTICAN_CONFIG_0.node2->node_ptr, MULTICAN_CONFIG_0.node2->baudrate_config);
 8006c60:	4b40      	ldr	r3, [pc, #256]	; (8006d64 <MULTICAN_CONFIG_0_lInit+0x298>)
 8006c62:	6a5b      	ldr	r3, [r3, #36]	; 0x24
 8006c64:	685a      	ldr	r2, [r3, #4]
 8006c66:	4b3f      	ldr	r3, [pc, #252]	; (8006d64 <MULTICAN_CONFIG_0_lInit+0x298>)
 8006c68:	6a5b      	ldr	r3, [r3, #36]	; 0x24
 8006c6a:	689b      	ldr	r3, [r3, #8]
 8006c6c:	4610      	mov	r0, r2
 8006c6e:	4619      	mov	r1, r3
 8006c70:	f7ff fa9e 	bl	80061b0 <XMC_CAN_NODE_NominalBitTimeConfigure>

	/* set CCE and INIT bit NCR for node configuration */
	XMC_CAN_NODE_EnableConfigurationChange(MULTICAN_CONFIG_0.node2->node_ptr);
 8006c74:	4b3b      	ldr	r3, [pc, #236]	; (8006d64 <MULTICAN_CONFIG_0_lInit+0x298>)
 8006c76:	6a5b      	ldr	r3, [r3, #36]	; 0x24
 8006c78:	685b      	ldr	r3, [r3, #4]
 8006c7a:	4618      	mov	r0, r3
 8006c7c:	f7ff fea2 	bl	80069c4 <XMC_CAN_NODE_EnableConfigurationChange>

	XMC_CAN_NODE_SetInitBit(MULTICAN_CONFIG_0.node2->node_ptr);
 8006c80:	4b38      	ldr	r3, [pc, #224]	; (8006d64 <MULTICAN_CONFIG_0_lInit+0x298>)
 8006c82:	6a5b      	ldr	r3, [r3, #36]	; 0x24
 8006c84:	685b      	ldr	r3, [r3, #4]
 8006c86:	4618      	mov	r0, r3
 8006c88:	f7ff febc 	bl	8006a04 <XMC_CAN_NODE_SetInitBit>

	XMC_CAN_NODE_FrameCounterConfigure(MULTICAN_CONFIG_0.node2->node_ptr, MULTICAN_CONFIG_0.node2->node_fc_ptr);
 8006c8c:	4b35      	ldr	r3, [pc, #212]	; (8006d64 <MULTICAN_CONFIG_0_lInit+0x298>)
 8006c8e:	6a5b      	ldr	r3, [r3, #36]	; 0x24
 8006c90:	685a      	ldr	r2, [r3, #4]
 8006c92:	4b34      	ldr	r3, [pc, #208]	; (8006d64 <MULTICAN_CONFIG_0_lInit+0x298>)
 8006c94:	6a5b      	ldr	r3, [r3, #36]	; 0x24
 8006c96:	68db      	ldr	r3, [r3, #12]
 8006c98:	4610      	mov	r0, r2
 8006c9a:	4619      	mov	r1, r3
 8006c9c:	f7ff fed2 	bl	8006a44 <XMC_CAN_NODE_FrameCounterConfigure>
	
	XMC_CAN_NODE_EnableLoopBack(MULTICAN_CONFIG_0.node2->node_ptr);
 8006ca0:	4b30      	ldr	r3, [pc, #192]	; (8006d64 <MULTICAN_CONFIG_0_lInit+0x298>)
 8006ca2:	6a5b      	ldr	r3, [r3, #36]	; 0x24
 8006ca4:	685b      	ldr	r3, [r3, #4]
 8006ca6:	4618      	mov	r0, r3
 8006ca8:	f7ff fe7c 	bl	80069a4 <XMC_CAN_NODE_EnableLoopBack>

    /* Configure the node event pointer for the alert event with the service request number */
 
    XMC_CAN_NODE_SetEventNodePointer(MULTICAN_CONFIG_0.node2->node_ptr, XMC_CAN_NODE_POINTER_EVENT_ALERT,
 8006cac:	4b2d      	ldr	r3, [pc, #180]	; (8006d64 <MULTICAN_CONFIG_0_lInit+0x298>)
 8006cae:	6a5b      	ldr	r3, [r3, #36]	; 0x24
 8006cb0:	685a      	ldr	r2, [r3, #4]
	                                 (uint32_t)MULTICAN_CONFIG_0.node2->alert_event_sr); 
 8006cb2:	4b2c      	ldr	r3, [pc, #176]	; (8006d64 <MULTICAN_CONFIG_0_lInit+0x298>)
 8006cb4:	6a5b      	ldr	r3, [r3, #36]	; 0x24
 8006cb6:	7c9b      	ldrb	r3, [r3, #18]
	
	XMC_CAN_NODE_EnableLoopBack(MULTICAN_CONFIG_0.node2->node_ptr);

    /* Configure the node event pointer for the alert event with the service request number */
 
    XMC_CAN_NODE_SetEventNodePointer(MULTICAN_CONFIG_0.node2->node_ptr, XMC_CAN_NODE_POINTER_EVENT_ALERT,
 8006cb8:	4610      	mov	r0, r2
 8006cba:	2100      	movs	r1, #0
 8006cbc:	461a      	mov	r2, r3
 8006cbe:	f7ff fe55 	bl	800696c <XMC_CAN_NODE_SetEventNodePointer>
	                                 (uint32_t)MULTICAN_CONFIG_0.node2->alert_event_sr); 

    XMC_CAN_NODE_SetEventNodePointer(MULTICAN_CONFIG_0.node2->node_ptr, XMC_CAN_NODE_POINTER_EVENT_LEC,
 8006cc2:	4b28      	ldr	r3, [pc, #160]	; (8006d64 <MULTICAN_CONFIG_0_lInit+0x298>)
 8006cc4:	6a5b      	ldr	r3, [r3, #36]	; 0x24
 8006cc6:	685a      	ldr	r2, [r3, #4]
									 (uint32_t)MULTICAN_CONFIG_0.node2->lec_event_sr);
 8006cc8:	4b26      	ldr	r3, [pc, #152]	; (8006d64 <MULTICAN_CONFIG_0_lInit+0x298>)
 8006cca:	6a5b      	ldr	r3, [r3, #36]	; 0x24
 8006ccc:	7cdb      	ldrb	r3, [r3, #19]
    /* Configure the node event pointer for the alert event with the service request number */
 
    XMC_CAN_NODE_SetEventNodePointer(MULTICAN_CONFIG_0.node2->node_ptr, XMC_CAN_NODE_POINTER_EVENT_ALERT,
	                                 (uint32_t)MULTICAN_CONFIG_0.node2->alert_event_sr); 

    XMC_CAN_NODE_SetEventNodePointer(MULTICAN_CONFIG_0.node2->node_ptr, XMC_CAN_NODE_POINTER_EVENT_LEC,
 8006cce:	4610      	mov	r0, r2
 8006cd0:	2104      	movs	r1, #4
 8006cd2:	461a      	mov	r2, r3
 8006cd4:	f7ff fe4a 	bl	800696c <XMC_CAN_NODE_SetEventNodePointer>
									 (uint32_t)MULTICAN_CONFIG_0.node2->lec_event_sr);

	XMC_CAN_NODE_SetEventNodePointer(MULTICAN_CONFIG_0.node2->node_ptr, XMC_CAN_NODE_POINTER_EVENT_TRANSFER_OK,
 8006cd8:	4b22      	ldr	r3, [pc, #136]	; (8006d64 <MULTICAN_CONFIG_0_lInit+0x298>)
 8006cda:	6a5b      	ldr	r3, [r3, #36]	; 0x24
 8006cdc:	685a      	ldr	r2, [r3, #4]
									 (uint32_t)MULTICAN_CONFIG_0.node2->txok_event_sr);
 8006cde:	4b21      	ldr	r3, [pc, #132]	; (8006d64 <MULTICAN_CONFIG_0_lInit+0x298>)
 8006ce0:	6a5b      	ldr	r3, [r3, #36]	; 0x24
 8006ce2:	7d1b      	ldrb	r3, [r3, #20]
	                                 (uint32_t)MULTICAN_CONFIG_0.node2->alert_event_sr); 

    XMC_CAN_NODE_SetEventNodePointer(MULTICAN_CONFIG_0.node2->node_ptr, XMC_CAN_NODE_POINTER_EVENT_LEC,
									 (uint32_t)MULTICAN_CONFIG_0.node2->lec_event_sr);

	XMC_CAN_NODE_SetEventNodePointer(MULTICAN_CONFIG_0.node2->node_ptr, XMC_CAN_NODE_POINTER_EVENT_TRANSFER_OK,
 8006ce4:	4610      	mov	r0, r2
 8006ce6:	2108      	movs	r1, #8
 8006ce8:	461a      	mov	r2, r3
 8006cea:	f7ff fe3f 	bl	800696c <XMC_CAN_NODE_SetEventNodePointer>
									 (uint32_t)MULTICAN_CONFIG_0.node2->txok_event_sr);

	XMC_CAN_NODE_SetEventNodePointer(MULTICAN_CONFIG_0.node2->node_ptr, XMC_CAN_NODE_POINTER_EVENT_FRAME_COUNTER,
 8006cee:	4b1d      	ldr	r3, [pc, #116]	; (8006d64 <MULTICAN_CONFIG_0_lInit+0x298>)
 8006cf0:	6a5b      	ldr	r3, [r3, #36]	; 0x24
 8006cf2:	685a      	ldr	r2, [r3, #4]
									 (uint32_t)MULTICAN_CONFIG_0.node2->framecount_event_sr);
 8006cf4:	4b1b      	ldr	r3, [pc, #108]	; (8006d64 <MULTICAN_CONFIG_0_lInit+0x298>)
 8006cf6:	6a5b      	ldr	r3, [r3, #36]	; 0x24
 8006cf8:	7d5b      	ldrb	r3, [r3, #21]
									 (uint32_t)MULTICAN_CONFIG_0.node2->lec_event_sr);

	XMC_CAN_NODE_SetEventNodePointer(MULTICAN_CONFIG_0.node2->node_ptr, XMC_CAN_NODE_POINTER_EVENT_TRANSFER_OK,
									 (uint32_t)MULTICAN_CONFIG_0.node2->txok_event_sr);

	XMC_CAN_NODE_SetEventNodePointer(MULTICAN_CONFIG_0.node2->node_ptr, XMC_CAN_NODE_POINTER_EVENT_FRAME_COUNTER,
 8006cfa:	4610      	mov	r0, r2
 8006cfc:	210c      	movs	r1, #12
 8006cfe:	461a      	mov	r2, r3
 8006d00:	f7ff fe34 	bl	800696c <XMC_CAN_NODE_SetEventNodePointer>
									 (uint32_t)MULTICAN_CONFIG_0.node2->framecount_event_sr);

    /* Enable node events */

	/* reset CCE and INIT bit NCR for node configuration */
	XMC_CAN_NODE_DisableConfigurationChange(MULTICAN_CONFIG_0.node2->node_ptr);
 8006d04:	4b17      	ldr	r3, [pc, #92]	; (8006d64 <MULTICAN_CONFIG_0_lInit+0x298>)
 8006d06:	6a5b      	ldr	r3, [r3, #36]	; 0x24
 8006d08:	685b      	ldr	r3, [r3, #4]
 8006d0a:	4618      	mov	r0, r3
 8006d0c:	f7ff fe6a 	bl	80069e4 <XMC_CAN_NODE_DisableConfigurationChange>

	XMC_CAN_NODE_ResetInitBit(MULTICAN_CONFIG_0.node2->node_ptr);
 8006d10:	4b14      	ldr	r3, [pc, #80]	; (8006d64 <MULTICAN_CONFIG_0_lInit+0x298>)
 8006d12:	6a5b      	ldr	r3, [r3, #36]	; 0x24
 8006d14:	685b      	ldr	r3, [r3, #4]
 8006d16:	4618      	mov	r0, r3
 8006d18:	f7ff fe84 	bl	8006a24 <XMC_CAN_NODE_ResetInitBit>
    /*------------------------------------------------------------------------------------------------------------*/

    XMC_CAN_AllocateMOtoNodeList(MULTICAN_CONFIG_0.global_ptr->canglobal_ptr, MULTICAN_CONFIG_0.node1->node_num,
 8006d1c:	4b11      	ldr	r3, [pc, #68]	; (8006d64 <MULTICAN_CONFIG_0_lInit+0x298>)
 8006d1e:	681b      	ldr	r3, [r3, #0]
 8006d20:	6859      	ldr	r1, [r3, #4]
 8006d22:	4b10      	ldr	r3, [pc, #64]	; (8006d64 <MULTICAN_CONFIG_0_lInit+0x298>)
 8006d24:	6a1b      	ldr	r3, [r3, #32]
 8006d26:	7c5a      	ldrb	r2, [r3, #17]
                                 MULTICAN_CONFIG_0.lmobj_ptr[0]->number);
 8006d28:	4b0e      	ldr	r3, [pc, #56]	; (8006d64 <MULTICAN_CONFIG_0_lInit+0x298>)
 8006d2a:	685b      	ldr	r3, [r3, #4]
	XMC_CAN_NODE_DisableConfigurationChange(MULTICAN_CONFIG_0.node2->node_ptr);

	XMC_CAN_NODE_ResetInitBit(MULTICAN_CONFIG_0.node2->node_ptr);
    /*------------------------------------------------------------------------------------------------------------*/

    XMC_CAN_AllocateMOtoNodeList(MULTICAN_CONFIG_0.global_ptr->canglobal_ptr, MULTICAN_CONFIG_0.node1->node_num,
 8006d2c:	7b9b      	ldrb	r3, [r3, #14]
 8006d2e:	4608      	mov	r0, r1
 8006d30:	4611      	mov	r1, r2
 8006d32:	461a      	mov	r2, r3
 8006d34:	f7ff fb1e 	bl	8006374 <XMC_CAN_AllocateMOtoNodeList>
                                 MULTICAN_CONFIG_0.lmobj_ptr[0]->number);

    XMC_CAN_AllocateMOtoNodeList(MULTICAN_CONFIG_0.global_ptr->canglobal_ptr, MULTICAN_CONFIG_0.node1->node_num,
 8006d38:	4b0a      	ldr	r3, [pc, #40]	; (8006d64 <MULTICAN_CONFIG_0_lInit+0x298>)
 8006d3a:	681b      	ldr	r3, [r3, #0]
 8006d3c:	6859      	ldr	r1, [r3, #4]
 8006d3e:	4b09      	ldr	r3, [pc, #36]	; (8006d64 <MULTICAN_CONFIG_0_lInit+0x298>)
 8006d40:	6a1b      	ldr	r3, [r3, #32]
 8006d42:	7c5a      	ldrb	r2, [r3, #17]
                                 MULTICAN_CONFIG_0.lmobj_ptr[1]->number);
 8006d44:	4b07      	ldr	r3, [pc, #28]	; (8006d64 <MULTICAN_CONFIG_0_lInit+0x298>)
 8006d46:	689b      	ldr	r3, [r3, #8]
    /*------------------------------------------------------------------------------------------------------------*/

    XMC_CAN_AllocateMOtoNodeList(MULTICAN_CONFIG_0.global_ptr->canglobal_ptr, MULTICAN_CONFIG_0.node1->node_num,
                                 MULTICAN_CONFIG_0.lmobj_ptr[0]->number);

    XMC_CAN_AllocateMOtoNodeList(MULTICAN_CONFIG_0.global_ptr->canglobal_ptr, MULTICAN_CONFIG_0.node1->node_num,
 8006d48:	7b9b      	ldrb	r3, [r3, #14]
 8006d4a:	4608      	mov	r0, r1
 8006d4c:	4611      	mov	r1, r2
 8006d4e:	461a      	mov	r2, r3
 8006d50:	f7ff fb10 	bl	8006374 <XMC_CAN_AllocateMOtoNodeList>
                                 MULTICAN_CONFIG_0.lmobj_ptr[1]->number);

    XMC_CAN_AllocateMOtoNodeList(MULTICAN_CONFIG_0.global_ptr->canglobal_ptr, MULTICAN_CONFIG_0.node1->node_num,
 8006d54:	4b03      	ldr	r3, [pc, #12]	; (8006d64 <MULTICAN_CONFIG_0_lInit+0x298>)
 8006d56:	681b      	ldr	r3, [r3, #0]
 8006d58:	6859      	ldr	r1, [r3, #4]
 8006d5a:	4b02      	ldr	r3, [pc, #8]	; (8006d64 <MULTICAN_CONFIG_0_lInit+0x298>)
 8006d5c:	6a1b      	ldr	r3, [r3, #32]
 8006d5e:	7c5a      	ldrb	r2, [r3, #17]
 8006d60:	e002      	b.n	8006d68 <MULTICAN_CONFIG_0_lInit+0x29c>
 8006d62:	bf00      	nop
 8006d64:	1ffe8918 	.word	0x1ffe8918
                                 MULTICAN_CONFIG_0.lmobj_ptr[2]->number);
 8006d68:	4b33      	ldr	r3, [pc, #204]	; (8006e38 <MULTICAN_CONFIG_0_lInit+0x36c>)
 8006d6a:	68db      	ldr	r3, [r3, #12]
                                 MULTICAN_CONFIG_0.lmobj_ptr[0]->number);

    XMC_CAN_AllocateMOtoNodeList(MULTICAN_CONFIG_0.global_ptr->canglobal_ptr, MULTICAN_CONFIG_0.node1->node_num,
                                 MULTICAN_CONFIG_0.lmobj_ptr[1]->number);

    XMC_CAN_AllocateMOtoNodeList(MULTICAN_CONFIG_0.global_ptr->canglobal_ptr, MULTICAN_CONFIG_0.node1->node_num,
 8006d6c:	7b9b      	ldrb	r3, [r3, #14]
 8006d6e:	4608      	mov	r0, r1
 8006d70:	4611      	mov	r1, r2
 8006d72:	461a      	mov	r2, r3
 8006d74:	f7ff fafe 	bl	8006374 <XMC_CAN_AllocateMOtoNodeList>
                                 MULTICAN_CONFIG_0.lmobj_ptr[2]->number);

    XMC_CAN_AllocateMOtoNodeList(MULTICAN_CONFIG_0.global_ptr->canglobal_ptr, MULTICAN_CONFIG_0.node2->node_num,
 8006d78:	4b2f      	ldr	r3, [pc, #188]	; (8006e38 <MULTICAN_CONFIG_0_lInit+0x36c>)
 8006d7a:	681b      	ldr	r3, [r3, #0]
 8006d7c:	6859      	ldr	r1, [r3, #4]
 8006d7e:	4b2e      	ldr	r3, [pc, #184]	; (8006e38 <MULTICAN_CONFIG_0_lInit+0x36c>)
 8006d80:	6a5b      	ldr	r3, [r3, #36]	; 0x24
 8006d82:	7c5a      	ldrb	r2, [r3, #17]
                                 MULTICAN_CONFIG_0.lmobj_ptr[3]->number);
 8006d84:	4b2c      	ldr	r3, [pc, #176]	; (8006e38 <MULTICAN_CONFIG_0_lInit+0x36c>)
 8006d86:	691b      	ldr	r3, [r3, #16]
                                 MULTICAN_CONFIG_0.lmobj_ptr[1]->number);

    XMC_CAN_AllocateMOtoNodeList(MULTICAN_CONFIG_0.global_ptr->canglobal_ptr, MULTICAN_CONFIG_0.node1->node_num,
                                 MULTICAN_CONFIG_0.lmobj_ptr[2]->number);

    XMC_CAN_AllocateMOtoNodeList(MULTICAN_CONFIG_0.global_ptr->canglobal_ptr, MULTICAN_CONFIG_0.node2->node_num,
 8006d88:	7b9b      	ldrb	r3, [r3, #14]
 8006d8a:	4608      	mov	r0, r1
 8006d8c:	4611      	mov	r1, r2
 8006d8e:	461a      	mov	r2, r3
 8006d90:	f7ff faf0 	bl	8006374 <XMC_CAN_AllocateMOtoNodeList>
                                 MULTICAN_CONFIG_0.lmobj_ptr[3]->number);

    XMC_CAN_AllocateMOtoNodeList(MULTICAN_CONFIG_0.global_ptr->canglobal_ptr, MULTICAN_CONFIG_0.node2->node_num,
 8006d94:	4b28      	ldr	r3, [pc, #160]	; (8006e38 <MULTICAN_CONFIG_0_lInit+0x36c>)
 8006d96:	681b      	ldr	r3, [r3, #0]
 8006d98:	6859      	ldr	r1, [r3, #4]
 8006d9a:	4b27      	ldr	r3, [pc, #156]	; (8006e38 <MULTICAN_CONFIG_0_lInit+0x36c>)
 8006d9c:	6a5b      	ldr	r3, [r3, #36]	; 0x24
 8006d9e:	7c5a      	ldrb	r2, [r3, #17]
                                 MULTICAN_CONFIG_0.lmobj_ptr[4]->number);
 8006da0:	4b25      	ldr	r3, [pc, #148]	; (8006e38 <MULTICAN_CONFIG_0_lInit+0x36c>)
 8006da2:	695b      	ldr	r3, [r3, #20]
                                 MULTICAN_CONFIG_0.lmobj_ptr[2]->number);

    XMC_CAN_AllocateMOtoNodeList(MULTICAN_CONFIG_0.global_ptr->canglobal_ptr, MULTICAN_CONFIG_0.node2->node_num,
                                 MULTICAN_CONFIG_0.lmobj_ptr[3]->number);

    XMC_CAN_AllocateMOtoNodeList(MULTICAN_CONFIG_0.global_ptr->canglobal_ptr, MULTICAN_CONFIG_0.node2->node_num,
 8006da4:	7b9b      	ldrb	r3, [r3, #14]
 8006da6:	4608      	mov	r0, r1
 8006da8:	4611      	mov	r1, r2
 8006daa:	461a      	mov	r2, r3
 8006dac:	f7ff fae2 	bl	8006374 <XMC_CAN_AllocateMOtoNodeList>
                                 MULTICAN_CONFIG_0.lmobj_ptr[4]->number);

	for(temp_mo = 0; temp_mo < NUM_MSGOBJECTS; temp_mo++)
 8006db0:	2300      	movs	r3, #0
 8006db2:	603b      	str	r3, [r7, #0]
 8006db4:	e02d      	b.n	8006e12 <MULTICAN_CONFIG_0_lInit+0x346>
	{
      XMC_CAN_MO_Config(MULTICAN_CONFIG_0.lmobj_ptr[temp_mo]->mo_ptr);
 8006db6:	4a20      	ldr	r2, [pc, #128]	; (8006e38 <MULTICAN_CONFIG_0_lInit+0x36c>)
 8006db8:	683b      	ldr	r3, [r7, #0]
 8006dba:	009b      	lsls	r3, r3, #2
 8006dbc:	4413      	add	r3, r2
 8006dbe:	685b      	ldr	r3, [r3, #4]
 8006dc0:	681b      	ldr	r3, [r3, #0]
 8006dc2:	4618      	mov	r0, r3
 8006dc4:	f7ff fb94 	bl	80064f0 <XMC_CAN_MO_Config>

      XMC_CAN_MO_SetEventNodePointer(MULTICAN_CONFIG_0.lmobj_ptr[temp_mo]->mo_ptr, XMC_CAN_MO_POINTER_EVENT_RECEIVE,
 8006dc8:	4a1b      	ldr	r2, [pc, #108]	; (8006e38 <MULTICAN_CONFIG_0_lInit+0x36c>)
 8006dca:	683b      	ldr	r3, [r7, #0]
 8006dcc:	009b      	lsls	r3, r3, #2
 8006dce:	4413      	add	r3, r2
 8006dd0:	685b      	ldr	r3, [r3, #4]
 8006dd2:	6819      	ldr	r1, [r3, #0]
                                     (uint32_t)MULTICAN_CONFIG_0.lmobj_ptr[temp_mo]->rx_sr);
 8006dd4:	4a18      	ldr	r2, [pc, #96]	; (8006e38 <MULTICAN_CONFIG_0_lInit+0x36c>)
 8006dd6:	683b      	ldr	r3, [r7, #0]
 8006dd8:	009b      	lsls	r3, r3, #2
 8006dda:	4413      	add	r3, r2
 8006ddc:	685b      	ldr	r3, [r3, #4]
 8006dde:	7c1b      	ldrb	r3, [r3, #16]

	for(temp_mo = 0; temp_mo < NUM_MSGOBJECTS; temp_mo++)
	{
      XMC_CAN_MO_Config(MULTICAN_CONFIG_0.lmobj_ptr[temp_mo]->mo_ptr);

      XMC_CAN_MO_SetEventNodePointer(MULTICAN_CONFIG_0.lmobj_ptr[temp_mo]->mo_ptr, XMC_CAN_MO_POINTER_EVENT_RECEIVE,
 8006de0:	4608      	mov	r0, r1
 8006de2:	2100      	movs	r1, #0
 8006de4:	461a      	mov	r2, r3
 8006de6:	f7ff fe41 	bl	8006a6c <XMC_CAN_MO_SetEventNodePointer>
                                     (uint32_t)MULTICAN_CONFIG_0.lmobj_ptr[temp_mo]->rx_sr);

      XMC_CAN_MO_SetEventNodePointer(MULTICAN_CONFIG_0.lmobj_ptr[temp_mo]->mo_ptr, XMC_CAN_MO_POINTER_EVENT_TRANSMIT,
 8006dea:	4a13      	ldr	r2, [pc, #76]	; (8006e38 <MULTICAN_CONFIG_0_lInit+0x36c>)
 8006dec:	683b      	ldr	r3, [r7, #0]
 8006dee:	009b      	lsls	r3, r3, #2
 8006df0:	4413      	add	r3, r2
 8006df2:	685b      	ldr	r3, [r3, #4]
 8006df4:	6819      	ldr	r1, [r3, #0]
								     (uint32_t)MULTICAN_CONFIG_0.lmobj_ptr[temp_mo]->tx_sr);
 8006df6:	4a10      	ldr	r2, [pc, #64]	; (8006e38 <MULTICAN_CONFIG_0_lInit+0x36c>)
 8006df8:	683b      	ldr	r3, [r7, #0]
 8006dfa:	009b      	lsls	r3, r3, #2
 8006dfc:	4413      	add	r3, r2
 8006dfe:	685b      	ldr	r3, [r3, #4]
 8006e00:	7bdb      	ldrb	r3, [r3, #15]
      XMC_CAN_MO_Config(MULTICAN_CONFIG_0.lmobj_ptr[temp_mo]->mo_ptr);

      XMC_CAN_MO_SetEventNodePointer(MULTICAN_CONFIG_0.lmobj_ptr[temp_mo]->mo_ptr, XMC_CAN_MO_POINTER_EVENT_RECEIVE,
                                     (uint32_t)MULTICAN_CONFIG_0.lmobj_ptr[temp_mo]->rx_sr);

      XMC_CAN_MO_SetEventNodePointer(MULTICAN_CONFIG_0.lmobj_ptr[temp_mo]->mo_ptr, XMC_CAN_MO_POINTER_EVENT_TRANSMIT,
 8006e02:	4608      	mov	r0, r1
 8006e04:	2104      	movs	r1, #4
 8006e06:	461a      	mov	r2, r3
 8006e08:	f7ff fe30 	bl	8006a6c <XMC_CAN_MO_SetEventNodePointer>
                                 MULTICAN_CONFIG_0.lmobj_ptr[3]->number);

    XMC_CAN_AllocateMOtoNodeList(MULTICAN_CONFIG_0.global_ptr->canglobal_ptr, MULTICAN_CONFIG_0.node2->node_num,
                                 MULTICAN_CONFIG_0.lmobj_ptr[4]->number);

	for(temp_mo = 0; temp_mo < NUM_MSGOBJECTS; temp_mo++)
 8006e0c:	683b      	ldr	r3, [r7, #0]
 8006e0e:	3301      	adds	r3, #1
 8006e10:	603b      	str	r3, [r7, #0]
 8006e12:	683b      	ldr	r3, [r7, #0]
 8006e14:	2b04      	cmp	r3, #4
 8006e16:	d9ce      	bls.n	8006db6 <MULTICAN_CONFIG_0_lInit+0x2ea>

      XMC_CAN_MO_SetEventNodePointer(MULTICAN_CONFIG_0.lmobj_ptr[temp_mo]->mo_ptr, XMC_CAN_MO_POINTER_EVENT_TRANSMIT,
								     (uint32_t)MULTICAN_CONFIG_0.lmobj_ptr[temp_mo]->tx_sr);
	}

    XMC_CAN_MO_EnableEvent(MULTICAN_CONFIG_0.lmobj_ptr[4]->mo_ptr, (uint32_t)XMC_CAN_MO_EVENT_RECEIVE);
 8006e18:	4b07      	ldr	r3, [pc, #28]	; (8006e38 <MULTICAN_CONFIG_0_lInit+0x36c>)
 8006e1a:	695b      	ldr	r3, [r3, #20]
 8006e1c:	681b      	ldr	r3, [r3, #0]
 8006e1e:	4618      	mov	r0, r3
 8006e20:	f44f 3180 	mov.w	r1, #65536	; 0x10000
 8006e24:	f7ff fe40 	bl	8006aa8 <XMC_CAN_MO_EnableEvent>
 8006e28:	e001      	b.n	8006e2e <MULTICAN_CONFIG_0_lInit+0x362>

  }
  else
  {
    status = MULTICAN_CONFIG_STATUS_FAILURE;
 8006e2a:	2301      	movs	r3, #1
 8006e2c:	71fb      	strb	r3, [r7, #7]
  }
  return (status);
 8006e2e:	79fb      	ldrb	r3, [r7, #7]
}
 8006e30:	4618      	mov	r0, r3
 8006e32:	3708      	adds	r7, #8
 8006e34:	46bd      	mov	sp, r7
 8006e36:	bd80      	pop	{r7, pc}
 8006e38:	1ffe8918 	.word	0x1ffe8918

08006e3c <__NVIC_GetPriorityGrouping>:
  \brief   Get Priority Grouping
  \details Reads the priority grouping field from the NVIC Interrupt Controller.
  \return                Priority grouping field (SCB->AIRCR [10:8] PRIGROUP field).
 */
__STATIC_INLINE uint32_t __NVIC_GetPriorityGrouping(void)
{
 8006e3c:	b480      	push	{r7}
 8006e3e:	af00      	add	r7, sp, #0
  return ((uint32_t)((SCB->AIRCR & SCB_AIRCR_PRIGROUP_Msk) >> SCB_AIRCR_PRIGROUP_Pos));
 8006e40:	4b04      	ldr	r3, [pc, #16]	; (8006e54 <__NVIC_GetPriorityGrouping+0x18>)
 8006e42:	68db      	ldr	r3, [r3, #12]
 8006e44:	f403 63e0 	and.w	r3, r3, #1792	; 0x700
 8006e48:	0a1b      	lsrs	r3, r3, #8
}
 8006e4a:	4618      	mov	r0, r3
 8006e4c:	46bd      	mov	sp, r7
 8006e4e:	f85d 7b04 	ldr.w	r7, [sp], #4
 8006e52:	4770      	bx	lr
 8006e54:	e000ed00 	.word	0xe000ed00

08006e58 <__NVIC_EnableIRQ>:
  \details Enables a device specific interrupt in the NVIC interrupt controller.
  \param [in]      IRQn  Device specific interrupt number.
  \note    IRQn must not be negative.
 */
__STATIC_INLINE void __NVIC_EnableIRQ(IRQn_Type IRQn)
{
 8006e58:	b480      	push	{r7}
 8006e5a:	b083      	sub	sp, #12
 8006e5c:	af00      	add	r7, sp, #0
 8006e5e:	4603      	mov	r3, r0
 8006e60:	71fb      	strb	r3, [r7, #7]
  if ((int32_t)(IRQn) >= 0)
 8006e62:	f997 3007 	ldrsb.w	r3, [r7, #7]
 8006e66:	2b00      	cmp	r3, #0
 8006e68:	db0b      	blt.n	8006e82 <__NVIC_EnableIRQ+0x2a>
  {
    __COMPILER_BARRIER();
    NVIC->ISER[(((uint32_t)IRQn) >> 5UL)] = (uint32_t)(1UL << (((uint32_t)IRQn) & 0x1FUL));
 8006e6a:	4908      	ldr	r1, [pc, #32]	; (8006e8c <__NVIC_EnableIRQ+0x34>)
 8006e6c:	f997 3007 	ldrsb.w	r3, [r7, #7]
 8006e70:	095b      	lsrs	r3, r3, #5
 8006e72:	79fa      	ldrb	r2, [r7, #7]
 8006e74:	f002 021f 	and.w	r2, r2, #31
 8006e78:	2001      	movs	r0, #1
 8006e7a:	fa00 f202 	lsl.w	r2, r0, r2
 8006e7e:	f841 2023 	str.w	r2, [r1, r3, lsl #2]
    __COMPILER_BARRIER();
  }
}
 8006e82:	370c      	adds	r7, #12
 8006e84:	46bd      	mov	sp, r7
 8006e86:	f85d 7b04 	ldr.w	r7, [sp], #4
 8006e8a:	4770      	bx	lr
 8006e8c:	e000e100 	.word	0xe000e100

08006e90 <__NVIC_SetPriority>:
  \param [in]      IRQn  Interrupt number.
  \param [in]  priority  Priority to set.
  \note    The priority cannot be set for every processor exception.
 */
__STATIC_INLINE void __NVIC_SetPriority(IRQn_Type IRQn, uint32_t priority)
{
 8006e90:	b480      	push	{r7}
 8006e92:	b083      	sub	sp, #12
 8006e94:	af00      	add	r7, sp, #0
 8006e96:	4603      	mov	r3, r0
 8006e98:	6039      	str	r1, [r7, #0]
 8006e9a:	71fb      	strb	r3, [r7, #7]
  if ((int32_t)(IRQn) >= 0)
 8006e9c:	f997 3007 	ldrsb.w	r3, [r7, #7]
 8006ea0:	2b00      	cmp	r3, #0
 8006ea2:	db0a      	blt.n	8006eba <__NVIC_SetPriority+0x2a>
  {
    NVIC->IP[((uint32_t)IRQn)]               = (uint8_t)((priority << (8U - __NVIC_PRIO_BITS)) & (uint32_t)0xFFUL);
 8006ea4:	490d      	ldr	r1, [pc, #52]	; (8006edc <__NVIC_SetPriority+0x4c>)
 8006ea6:	f997 3007 	ldrsb.w	r3, [r7, #7]
 8006eaa:	683a      	ldr	r2, [r7, #0]
 8006eac:	b2d2      	uxtb	r2, r2
 8006eae:	0092      	lsls	r2, r2, #2
 8006eb0:	b2d2      	uxtb	r2, r2
 8006eb2:	440b      	add	r3, r1
 8006eb4:	f883 2300 	strb.w	r2, [r3, #768]	; 0x300
 8006eb8:	e00a      	b.n	8006ed0 <__NVIC_SetPriority+0x40>
  }
  else
  {
    SCB->SHP[(((uint32_t)IRQn) & 0xFUL)-4UL] = (uint8_t)((priority << (8U - __NVIC_PRIO_BITS)) & (uint32_t)0xFFUL);
 8006eba:	4909      	ldr	r1, [pc, #36]	; (8006ee0 <__NVIC_SetPriority+0x50>)
 8006ebc:	79fb      	ldrb	r3, [r7, #7]
 8006ebe:	f003 030f 	and.w	r3, r3, #15
 8006ec2:	3b04      	subs	r3, #4
 8006ec4:	683a      	ldr	r2, [r7, #0]
 8006ec6:	b2d2      	uxtb	r2, r2
 8006ec8:	0092      	lsls	r2, r2, #2
 8006eca:	b2d2      	uxtb	r2, r2
 8006ecc:	440b      	add	r3, r1
 8006ece:	761a      	strb	r2, [r3, #24]
  }
}
 8006ed0:	370c      	adds	r7, #12
 8006ed2:	46bd      	mov	sp, r7
 8006ed4:	f85d 7b04 	ldr.w	r7, [sp], #4
 8006ed8:	4770      	bx	lr
 8006eda:	bf00      	nop
 8006edc:	e000e100 	.word	0xe000e100
 8006ee0:	e000ed00 	.word	0xe000ed00

08006ee4 <NVIC_EncodePriority>:
  \param [in]   PreemptPriority  Preemptive priority value (starting from 0).
  \param [in]       SubPriority  Subpriority value (starting from 0).
  \return                        Encoded priority. Value can be used in the function \ref NVIC_SetPriority().
 */
__STATIC_INLINE uint32_t NVIC_EncodePriority (uint32_t PriorityGroup, uint32_t PreemptPriority, uint32_t SubPriority)
{
 8006ee4:	b480      	push	{r7}
 8006ee6:	b089      	sub	sp, #36	; 0x24
 8006ee8:	af00      	add	r7, sp, #0
 8006eea:	60f8      	str	r0, [r7, #12]
 8006eec:	60b9      	str	r1, [r7, #8]
 8006eee:	607a      	str	r2, [r7, #4]
  uint32_t PriorityGroupTmp = (PriorityGroup & (uint32_t)0x07UL);   /* only values 0..7 are used          */
 8006ef0:	68fb      	ldr	r3, [r7, #12]
 8006ef2:	f003 0307 	and.w	r3, r3, #7
 8006ef6:	61fb      	str	r3, [r7, #28]
  uint32_t PreemptPriorityBits;
  uint32_t SubPriorityBits;

  PreemptPriorityBits = ((7UL - PriorityGroupTmp) > (uint32_t)(__NVIC_PRIO_BITS)) ? (uint32_t)(__NVIC_PRIO_BITS) : (uint32_t)(7UL - PriorityGroupTmp);
 8006ef8:	69fb      	ldr	r3, [r7, #28]
 8006efa:	f1c3 0307 	rsb	r3, r3, #7
 8006efe:	2b06      	cmp	r3, #6
 8006f00:	bf28      	it	cs
 8006f02:	2306      	movcs	r3, #6
 8006f04:	61bb      	str	r3, [r7, #24]
  SubPriorityBits     = ((PriorityGroupTmp + (uint32_t)(__NVIC_PRIO_BITS)) < (uint32_t)7UL) ? (uint32_t)0UL : (uint32_t)((PriorityGroupTmp - 7UL) + (uint32_t)(__NVIC_PRIO_BITS));
 8006f06:	69fb      	ldr	r3, [r7, #28]
 8006f08:	3306      	adds	r3, #6
 8006f0a:	2b06      	cmp	r3, #6
 8006f0c:	d902      	bls.n	8006f14 <NVIC_EncodePriority+0x30>
 8006f0e:	69fb      	ldr	r3, [r7, #28]
 8006f10:	3b01      	subs	r3, #1
 8006f12:	e000      	b.n	8006f16 <NVIC_EncodePriority+0x32>
 8006f14:	2300      	movs	r3, #0
 8006f16:	617b      	str	r3, [r7, #20]

  return (
           ((PreemptPriority & (uint32_t)((1UL << (PreemptPriorityBits)) - 1UL)) << SubPriorityBits) |
 8006f18:	69bb      	ldr	r3, [r7, #24]
 8006f1a:	2201      	movs	r2, #1
 8006f1c:	fa02 f303 	lsl.w	r3, r2, r3
 8006f20:	1e5a      	subs	r2, r3, #1
 8006f22:	68bb      	ldr	r3, [r7, #8]
 8006f24:	401a      	ands	r2, r3
 8006f26:	697b      	ldr	r3, [r7, #20]
 8006f28:	409a      	lsls	r2, r3
           ((SubPriority     & (uint32_t)((1UL << (SubPriorityBits    )) - 1UL)))
 8006f2a:	697b      	ldr	r3, [r7, #20]
 8006f2c:	2101      	movs	r1, #1
 8006f2e:	fa01 f303 	lsl.w	r3, r1, r3
 8006f32:	1e59      	subs	r1, r3, #1
 8006f34:	687b      	ldr	r3, [r7, #4]
 8006f36:	400b      	ands	r3, r1
  uint32_t SubPriorityBits;

  PreemptPriorityBits = ((7UL - PriorityGroupTmp) > (uint32_t)(__NVIC_PRIO_BITS)) ? (uint32_t)(__NVIC_PRIO_BITS) : (uint32_t)(7UL - PriorityGroupTmp);
  SubPriorityBits     = ((PriorityGroupTmp + (uint32_t)(__NVIC_PRIO_BITS)) < (uint32_t)7UL) ? (uint32_t)0UL : (uint32_t)((PriorityGroupTmp - 7UL) + (uint32_t)(__NVIC_PRIO_BITS));

  return (
 8006f38:	4313      	orrs	r3, r2
           ((PreemptPriority & (uint32_t)((1UL << (PreemptPriorityBits)) - 1UL)) << SubPriorityBits) |
           ((SubPriority     & (uint32_t)((1UL << (SubPriorityBits    )) - 1UL)))
         );
}
 8006f3a:	4618      	mov	r0, r3
 8006f3c:	3724      	adds	r7, #36	; 0x24
 8006f3e:	46bd      	mov	sp, r7
 8006f40:	f85d 7b04 	ldr.w	r7, [sp], #4
 8006f44:	4770      	bx	lr
 8006f46:	bf00      	nop

08006f48 <INTERRUPT_Enable>:
 *    return 0;
 *  }
 * @endcode<BR> </p>
 */
__STATIC_INLINE void INTERRUPT_Enable(const INTERRUPT_t *const handler)
{
 8006f48:	b580      	push	{r7, lr}
 8006f4a:	b082      	sub	sp, #8
 8006f4c:	af00      	add	r7, sp, #0
 8006f4e:	6078      	str	r0, [r7, #4]
  XMC_ASSERT("Handler NULL", (handler != NULL));
  NVIC_EnableIRQ(handler->node);
 8006f50:	687b      	ldr	r3, [r7, #4]
 8006f52:	781b      	ldrb	r3, [r3, #0]
 8006f54:	b25b      	sxtb	r3, r3
 8006f56:	4618      	mov	r0, r3
 8006f58:	f7ff ff7e 	bl	8006e58 <__NVIC_EnableIRQ>
}
 8006f5c:	3708      	adds	r7, #8
 8006f5e:	46bd      	mov	sp, r7
 8006f60:	bd80      	pop	{r7, pc}
 8006f62:	bf00      	nop

08006f64 <INTERRUPT_Init>:

/*
 * API to initialize the INTERRUPT APP
 */
INTERRUPT_STATUS_t INTERRUPT_Init(const INTERRUPT_t *const handler)
{
 8006f64:	b590      	push	{r4, r7, lr}
 8006f66:	b083      	sub	sp, #12
 8006f68:	af00      	add	r7, sp, #0
 8006f6a:	6078      	str	r0, [r7, #4]
  XMC_ASSERT("INTERRUPT_Init:HandlePtr NULL", (handler != NULL));
  
#if(UC_FAMILY == XMC4)

  NVIC_SetPriority(handler->node,
 8006f6c:	687b      	ldr	r3, [r7, #4]
 8006f6e:	781c      	ldrb	r4, [r3, #0]
 8006f70:	f7ff ff64 	bl	8006e3c <__NVIC_GetPriorityGrouping>
 8006f74:	4601      	mov	r1, r0
                   NVIC_EncodePriority(NVIC_GetPriorityGrouping(),
                                       handler->priority,
 8006f76:	687b      	ldr	r3, [r7, #4]
 8006f78:	785b      	ldrb	r3, [r3, #1]
{
  XMC_ASSERT("INTERRUPT_Init:HandlePtr NULL", (handler != NULL));
  
#if(UC_FAMILY == XMC4)

  NVIC_SetPriority(handler->node,
 8006f7a:	461a      	mov	r2, r3
                   NVIC_EncodePriority(NVIC_GetPriorityGrouping(),
                                       handler->priority,
                                       handler->subpriority));
 8006f7c:	687b      	ldr	r3, [r7, #4]
 8006f7e:	789b      	ldrb	r3, [r3, #2]
{
  XMC_ASSERT("INTERRUPT_Init:HandlePtr NULL", (handler != NULL));
  
#if(UC_FAMILY == XMC4)

  NVIC_SetPriority(handler->node,
 8006f80:	4608      	mov	r0, r1
 8006f82:	4611      	mov	r1, r2
 8006f84:	461a      	mov	r2, r3
 8006f86:	f7ff ffad 	bl	8006ee4 <NVIC_EncodePriority>
 8006f8a:	4602      	mov	r2, r0
 8006f8c:	b263      	sxtb	r3, r4
 8006f8e:	4618      	mov	r0, r3
 8006f90:	4611      	mov	r1, r2
 8006f92:	f7ff ff7d 	bl	8006e90 <__NVIC_SetPriority>
                   NVIC_EncodePriority(NVIC_GetPriorityGrouping(),
                                       handler->priority,
                                       handler->subpriority));
  if (handler->enable_at_init == true)
 8006f96:	687b      	ldr	r3, [r7, #4]
 8006f98:	78db      	ldrb	r3, [r3, #3]
 8006f9a:	2b00      	cmp	r3, #0
 8006f9c:	d002      	beq.n	8006fa4 <INTERRUPT_Init+0x40>
  {
    INTERRUPT_Enable(handler);
 8006f9e:	6878      	ldr	r0, [r7, #4]
 8006fa0:	f7ff ffd2 	bl	8006f48 <INTERRUPT_Enable>
  {
    INTERRUPT_Enable(handler);
  }
#endif

  return (INTERRUPT_STATUS_SUCCESS);
 8006fa4:	2300      	movs	r3, #0
}
 8006fa6:	4618      	mov	r0, r3
 8006fa8:	370c      	adds	r7, #12
 8006faa:	46bd      	mov	sp, r7
 8006fac:	bd90      	pop	{r4, r7, pc}
 8006fae:	bf00      	nop

08006fb0 <GLOBAL_CAN_Init>:
  return (version);
}

/*  Function to initialize the CAN Peripheral module clock.  */
GLOBAL_CAN_STATUS_t GLOBAL_CAN_Init(GLOBAL_CAN_t *handle)
{
 8006fb0:	b580      	push	{r7, lr}
 8006fb2:	b084      	sub	sp, #16
 8006fb4:	af00      	add	r7, sp, #0
 8006fb6:	6078      	str	r0, [r7, #4]
  GLOBAL_CAN_STATUS_t status = GLOBAL_CAN_STATUS_SUCCESS;
 8006fb8:	2300      	movs	r3, #0
 8006fba:	73fb      	strb	r3, [r7, #15]

  XMC_ASSERT("GLOBAL_CAN_Init: handle null", handle != NULL);

  if (handle->init_status != true)
 8006fbc:	687b      	ldr	r3, [r7, #4]
 8006fbe:	7a5b      	ldrb	r3, [r3, #9]
 8006fc0:	f083 0301 	eor.w	r3, r3, #1
 8006fc4:	b2db      	uxtb	r3, r3
 8006fc6:	2b00      	cmp	r3, #0
 8006fc8:	d00f      	beq.n	8006fea <GLOBAL_CAN_Init+0x3a>
  {
#if defined(MULTICAN_PLUS)
    XMC_CAN_InitEx(handle->canglobal_ptr, (XMC_CAN_CANCLKSRC_t)handle->can_clock_src, handle->can_frequency);
 8006fca:	687b      	ldr	r3, [r7, #4]
 8006fcc:	6859      	ldr	r1, [r3, #4]
 8006fce:	687b      	ldr	r3, [r7, #4]
 8006fd0:	7a1a      	ldrb	r2, [r3, #8]
 8006fd2:	687b      	ldr	r3, [r7, #4]
 8006fd4:	681b      	ldr	r3, [r3, #0]
 8006fd6:	4608      	mov	r0, r1
 8006fd8:	4611      	mov	r1, r2
 8006fda:	461a      	mov	r2, r3
 8006fdc:	f7ff fa48 	bl	8006470 <XMC_CAN_InitEx>
#else
    XMC_CAN_InitEx(handle->canglobal_ptr, XMC_CAN_CANCLKSRC_FPERI, handle->can_frequency);
#endif
    handle->init_status = true;
 8006fe0:	687b      	ldr	r3, [r7, #4]
 8006fe2:	2201      	movs	r2, #1
 8006fe4:	725a      	strb	r2, [r3, #9]
    status = GLOBAL_CAN_STATUS_SUCCESS;
 8006fe6:	2300      	movs	r3, #0
 8006fe8:	73fb      	strb	r3, [r7, #15]
  }
  return (status);
 8006fea:	7bfb      	ldrb	r3, [r7, #15]

}
 8006fec:	4618      	mov	r0, r3
 8006fee:	3710      	adds	r7, #16
 8006ff0:	46bd      	mov	sp, r7
 8006ff2:	bd80      	pop	{r7, pc}

08006ff4 <DIGITAL_IO_Init>:
* @param handler Pointer pointing to APP data structure.
* @return DIGITAL_IO_STATUS_t DIGITAL_IO APP status.
*/

DIGITAL_IO_STATUS_t DIGITAL_IO_Init(const DIGITAL_IO_t *const handler)
{
 8006ff4:	b580      	push	{r7, lr}
 8006ff6:	b082      	sub	sp, #8
 8006ff8:	af00      	add	r7, sp, #0
 8006ffa:	6078      	str	r0, [r7, #4]
  XMC_ASSERT("DIGITAL_IO_Init: handler null pointer", handler != NULL);

  /* Initializes input / output characteristics */
  XMC_GPIO_Init(handler->gpio_port, handler->gpio_pin, &handler->gpio_config);
 8006ffc:	687b      	ldr	r3, [r7, #4]
 8006ffe:	6819      	ldr	r1, [r3, #0]
 8007000:	687b      	ldr	r3, [r7, #4]
 8007002:	7c1a      	ldrb	r2, [r3, #16]
 8007004:	687b      	ldr	r3, [r7, #4]
 8007006:	3304      	adds	r3, #4
 8007008:	4608      	mov	r0, r1
 800700a:	4611      	mov	r1, r2
 800700c:	461a      	mov	r2, r3
 800700e:	f7fe fb19 	bl	8005644 <XMC_GPIO_Init>

  /*Configure hardware port control*/
  XMC_GPIO_SetHardwareControl(handler->gpio_port, handler->gpio_pin, handler->hwctrl);
 8007012:	687b      	ldr	r3, [r7, #4]
 8007014:	6819      	ldr	r1, [r3, #0]
 8007016:	687b      	ldr	r3, [r7, #4]
 8007018:	7c1a      	ldrb	r2, [r3, #16]
 800701a:	687b      	ldr	r3, [r7, #4]
 800701c:	7c5b      	ldrb	r3, [r3, #17]
 800701e:	4608      	mov	r0, r1
 8007020:	4611      	mov	r1, r2
 8007022:	461a      	mov	r2, r3
 8007024:	f7ff fc36 	bl	8006894 <XMC_GPIO_SetHardwareControl>

  return (DIGITAL_IO_STATUS_OK);
 8007028:	2300      	movs	r3, #0
}
 800702a:	4618      	mov	r0, r3
 800702c:	3708      	adds	r7, #8
 800702e:	46bd      	mov	sp, r7
 8007030:	bd80      	pop	{r7, pc}
 8007032:	bf00      	nop

08007034 <__NVIC_SetPriorityGrouping>:
           In case of a conflict between priority grouping and available
           priority bits (__NVIC_PRIO_BITS), the smallest possible priority group is set.
  \param [in]      PriorityGroup  Priority grouping field.
 */
__STATIC_INLINE void __NVIC_SetPriorityGrouping(uint32_t PriorityGroup)
{
 8007034:	b480      	push	{r7}
 8007036:	b085      	sub	sp, #20
 8007038:	af00      	add	r7, sp, #0
 800703a:	6078      	str	r0, [r7, #4]
  uint32_t reg_value;
  uint32_t PriorityGroupTmp = (PriorityGroup & (uint32_t)0x07UL);             /* only values 0..7 are used          */
 800703c:	687b      	ldr	r3, [r7, #4]
 800703e:	f003 0307 	and.w	r3, r3, #7
 8007042:	60fb      	str	r3, [r7, #12]

  reg_value  =  SCB->AIRCR;                                                   /* read old register configuration    */
 8007044:	4b0c      	ldr	r3, [pc, #48]	; (8007078 <__NVIC_SetPriorityGrouping+0x44>)
 8007046:	68db      	ldr	r3, [r3, #12]
 8007048:	60bb      	str	r3, [r7, #8]
  reg_value &= ~((uint32_t)(SCB_AIRCR_VECTKEY_Msk | SCB_AIRCR_PRIGROUP_Msk)); /* clear bits to change               */
 800704a:	68ba      	ldr	r2, [r7, #8]
 800704c:	f64f 03ff 	movw	r3, #63743	; 0xf8ff
 8007050:	4013      	ands	r3, r2
 8007052:	60bb      	str	r3, [r7, #8]
  reg_value  =  (reg_value                                   |
                ((uint32_t)0x5FAUL << SCB_AIRCR_VECTKEY_Pos) |
                (PriorityGroupTmp << SCB_AIRCR_PRIGROUP_Pos)  );              /* Insert write key and priority group */
 8007054:	68fb      	ldr	r3, [r7, #12]
 8007056:	021a      	lsls	r2, r3, #8
  uint32_t PriorityGroupTmp = (PriorityGroup & (uint32_t)0x07UL);             /* only values 0..7 are used          */

  reg_value  =  SCB->AIRCR;                                                   /* read old register configuration    */
  reg_value &= ~((uint32_t)(SCB_AIRCR_VECTKEY_Msk | SCB_AIRCR_PRIGROUP_Msk)); /* clear bits to change               */
  reg_value  =  (reg_value                                   |
                ((uint32_t)0x5FAUL << SCB_AIRCR_VECTKEY_Pos) |
 8007058:	68bb      	ldr	r3, [r7, #8]
 800705a:	4313      	orrs	r3, r2
  uint32_t reg_value;
  uint32_t PriorityGroupTmp = (PriorityGroup & (uint32_t)0x07UL);             /* only values 0..7 are used          */

  reg_value  =  SCB->AIRCR;                                                   /* read old register configuration    */
  reg_value &= ~((uint32_t)(SCB_AIRCR_VECTKEY_Msk | SCB_AIRCR_PRIGROUP_Msk)); /* clear bits to change               */
  reg_value  =  (reg_value                                   |
 800705c:	f043 63bf 	orr.w	r3, r3, #100139008	; 0x5f80000
 8007060:	f443 3300 	orr.w	r3, r3, #131072	; 0x20000
 8007064:	60bb      	str	r3, [r7, #8]
                ((uint32_t)0x5FAUL << SCB_AIRCR_VECTKEY_Pos) |
                (PriorityGroupTmp << SCB_AIRCR_PRIGROUP_Pos)  );              /* Insert write key and priority group */
  SCB->AIRCR =  reg_value;
 8007066:	4a04      	ldr	r2, [pc, #16]	; (8007078 <__NVIC_SetPriorityGrouping+0x44>)
 8007068:	68bb      	ldr	r3, [r7, #8]
 800706a:	60d3      	str	r3, [r2, #12]
}
 800706c:	3714      	adds	r7, #20
 800706e:	46bd      	mov	sp, r7
 8007070:	f85d 7b04 	ldr.w	r7, [sp], #4
 8007074:	4770      	bx	lr
 8007076:	bf00      	nop
 8007078:	e000ed00 	.word	0xe000ed00

0800707c <SystemCoreSetup>:
  .initialized = false
};	


void SystemCoreSetup(void)
{
 800707c:	b580      	push	{r7, lr}
 800707e:	b082      	sub	sp, #8
 8007080:	af00      	add	r7, sp, #0
  uint32_t temp;

  NVIC_SetPriorityGrouping(1U);
 8007082:	2001      	movs	r0, #1
 8007084:	f7ff ffd6 	bl	8007034 <__NVIC_SetPriorityGrouping>
  \details Disables IRQ interrupts by setting the I-bit in the CPSR.
           Can only be executed in Privileged modes.
 */
__STATIC_FORCEINLINE void __disable_irq(void)
{
  __ASM volatile ("cpsid i" : : : "memory");
 8007088:	b672      	cpsid	i
	
  /* relocate vector table */
  __disable_irq();

#if !defined(__TASKING__)
  SCB->VTOR = (uint32_t)(&__Vectors);
 800708a:	4b21      	ldr	r3, [pc, #132]	; (8007110 <SystemCoreSetup+0x94>)
 800708c:	4a21      	ldr	r2, [pc, #132]	; (8007114 <SystemCoreSetup+0x98>)
 800708e:	609a      	str	r2, [r3, #8]
  \details Acts as a special kind of Data Memory Barrier.
           It completes when all explicit memory accesses before this instruction complete.
 */
__STATIC_FORCEINLINE void __DSB(void)
{
  __ASM volatile ("dsb 0xF":::"memory");
 8007090:	f3bf 8f4f 	dsb	sy
  \details Enables IRQ interrupts by clearing the I-bit in the CPSR.
           Can only be executed in Privileged modes.
 */
__STATIC_FORCEINLINE void __enable_irq(void)
{
  __ASM volatile ("cpsie i" : : : "memory");
 8007094:	b662      	cpsie	i

  __DSB();
  __enable_irq();
	
#if ((__FPU_PRESENT == 1) && (__FPU_USED == 1))
  SCB->CPACR |= ((3UL << 10*2) |                 /* set CP10 Full Access */
 8007096:	4a1e      	ldr	r2, [pc, #120]	; (8007110 <SystemCoreSetup+0x94>)
 8007098:	4b1d      	ldr	r3, [pc, #116]	; (8007110 <SystemCoreSetup+0x94>)
 800709a:	f8d3 3088 	ldr.w	r3, [r3, #136]	; 0x88
 800709e:	f443 0370 	orr.w	r3, r3, #15728640	; 0xf00000
 80070a2:	f8c2 3088 	str.w	r3, [r2, #136]	; 0x88
				 (3UL << 11*2)  );               /* set CP11 Full Access */
#endif
  /* Set flash wait states */
  temp = FLASH0->FCON;
 80070a6:	4b1c      	ldr	r3, [pc, #112]	; (8007118 <SystemCoreSetup+0x9c>)
 80070a8:	f503 5380 	add.w	r3, r3, #4096	; 0x1000
 80070ac:	3314      	adds	r3, #20
 80070ae:	681b      	ldr	r3, [r3, #0]
 80070b0:	607b      	str	r3, [r7, #4]
  temp &= ~FLASH_FCON_WSPFLASH_Msk;
 80070b2:	687b      	ldr	r3, [r7, #4]
 80070b4:	f023 030f 	bic.w	r3, r3, #15
 80070b8:	607b      	str	r3, [r7, #4]
  temp |= PMU_FLASH_WS;
 80070ba:	687b      	ldr	r3, [r7, #4]
 80070bc:	f043 0304 	orr.w	r3, r3, #4
 80070c0:	607b      	str	r3, [r7, #4]
  FLASH0->FCON = temp;
 80070c2:	4b15      	ldr	r3, [pc, #84]	; (8007118 <SystemCoreSetup+0x9c>)
 80070c4:	f503 5380 	add.w	r3, r3, #4096	; 0x1000
 80070c8:	3314      	adds	r3, #20
 80070ca:	687a      	ldr	r2, [r7, #4]
 80070cc:	601a      	str	r2, [r3, #0]


  /* Disable divide by zero trap */
  SCB->CCR &= ~SCB_CCR_DIV_0_TRP_Msk; 
 80070ce:	4a10      	ldr	r2, [pc, #64]	; (8007110 <SystemCoreSetup+0x94>)
 80070d0:	4b0f      	ldr	r3, [pc, #60]	; (8007110 <SystemCoreSetup+0x94>)
 80070d2:	695b      	ldr	r3, [r3, #20]
 80070d4:	f023 0310 	bic.w	r3, r3, #16
 80070d8:	6153      	str	r3, [r2, #20]

  /* Disable unaligned memory access trap */
  SCB->CCR &= ~SCB_CCR_UNALIGN_TRP_Msk; 
 80070da:	4a0d      	ldr	r2, [pc, #52]	; (8007110 <SystemCoreSetup+0x94>)
 80070dc:	4b0c      	ldr	r3, [pc, #48]	; (8007110 <SystemCoreSetup+0x94>)
 80070de:	695b      	ldr	r3, [r3, #20]
 80070e0:	f023 0308 	bic.w	r3, r3, #8
 80070e4:	6153      	str	r3, [r2, #20]

  /* Disable memory management fault */
  SCB->SHCSR &= ~SCB_SHCSR_MEMFAULTENA_Msk;
 80070e6:	4a0a      	ldr	r2, [pc, #40]	; (8007110 <SystemCoreSetup+0x94>)
 80070e8:	4b09      	ldr	r3, [pc, #36]	; (8007110 <SystemCoreSetup+0x94>)
 80070ea:	6a5b      	ldr	r3, [r3, #36]	; 0x24
 80070ec:	f423 3380 	bic.w	r3, r3, #65536	; 0x10000
 80070f0:	6253      	str	r3, [r2, #36]	; 0x24

  /* Disable bus fault */
  SCB->SHCSR &= ~SCB_SHCSR_BUSFAULTENA_Msk;
 80070f2:	4a07      	ldr	r2, [pc, #28]	; (8007110 <SystemCoreSetup+0x94>)
 80070f4:	4b06      	ldr	r3, [pc, #24]	; (8007110 <SystemCoreSetup+0x94>)
 80070f6:	6a5b      	ldr	r3, [r3, #36]	; 0x24
 80070f8:	f423 3300 	bic.w	r3, r3, #131072	; 0x20000
 80070fc:	6253      	str	r3, [r2, #36]	; 0x24

  /* Disable usage fault */
  SCB->SHCSR &= ~SCB_SHCSR_USGFAULTENA_Msk;
 80070fe:	4a04      	ldr	r2, [pc, #16]	; (8007110 <SystemCoreSetup+0x94>)
 8007100:	4b03      	ldr	r3, [pc, #12]	; (8007110 <SystemCoreSetup+0x94>)
 8007102:	6a5b      	ldr	r3, [r3, #36]	; 0x24
 8007104:	f423 2380 	bic.w	r3, r3, #262144	; 0x40000
 8007108:	6253      	str	r3, [r2, #36]	; 0x24
}
 800710a:	3708      	adds	r7, #8
 800710c:	46bd      	mov	sp, r7
 800710e:	bd80      	pop	{r7, pc}
 8007110:	e000ed00 	.word	0xe000ed00
 8007114:	08000000 	.word	0x08000000
 8007118:	58001000 	.word	0x58001000

0800711c <CLOCK_XMC4_Init>:

/*
 * API to initialize the CLOCK_XMC4 APP TRAP events
 */
CLOCK_XMC4_STATUS_t CLOCK_XMC4_Init(CLOCK_XMC4_t *handle)
{
 800711c:	b480      	push	{r7}
 800711e:	b085      	sub	sp, #20
 8007120:	af00      	add	r7, sp, #0
 8007122:	6078      	str	r0, [r7, #4]
  CLOCK_XMC4_STATUS_t status = CLOCK_XMC4_STATUS_SUCCESS;
 8007124:	2300      	movs	r3, #0
 8007126:	73fb      	strb	r3, [r7, #15]

  XMC_ASSERT("CLOCK_XMC4 APP handle function pointer uninitialized", (handle != NULL));

  handle->init_status = true;
 8007128:	687b      	ldr	r3, [r7, #4]
 800712a:	2201      	movs	r2, #1
 800712c:	701a      	strb	r2, [r3, #0]

  return (status);
 800712e:	7bfb      	ldrb	r3, [r7, #15]
}
 8007130:	4618      	mov	r0, r3
 8007132:	3714      	adds	r7, #20
 8007134:	46bd      	mov	sp, r7
 8007136:	f85d 7b04 	ldr.w	r7, [sp], #4
 800713a:	4770      	bx	lr

0800713c <OSCHP_GetFrequency>:

#ifdef CLOCK_XMC4_OSCHP_ENABLED
/*  API to retrieve high precision external oscillator frequency */
uint32_t OSCHP_GetFrequency(void)
{
 800713c:	b480      	push	{r7}
 800713e:	af00      	add	r7, sp, #0
  return (CLOCK_XMC4_OSCHP_FREQUENCY);
 8007140:	4b02      	ldr	r3, [pc, #8]	; (800714c <OSCHP_GetFrequency+0x10>)
}
 8007142:	4618      	mov	r0, r3
 8007144:	46bd      	mov	sp, r7
 8007146:	f85d 7b04 	ldr.w	r7, [sp], #4
 800714a:	4770      	bx	lr
 800714c:	00b71b00 	.word	0x00b71b00

08007150 <XMC_SCU_CLOCK_SetECATClockSource>:
 * The value is configured to \a ECATSEL bit of \a ECATCLKCR register.
 * \par<b>Related APIs:</b><BR>
 * XMC_SCU_CLOCK_GetECATClockSource() \n\n\n
 */
__STATIC_INLINE void XMC_SCU_CLOCK_SetECATClockSource(const XMC_SCU_CLOCK_ECATCLKSRC_t source)
{
 8007150:	b480      	push	{r7}
 8007152:	b083      	sub	sp, #12
 8007154:	af00      	add	r7, sp, #0
 8007156:	6078      	str	r0, [r7, #4]
  SCU_CLK->ECATCLKCR = (SCU_CLK->ECATCLKCR & ((uint32_t)~SCU_CLK_ECATCLKCR_ECATSEL_Msk)) |
 8007158:	4906      	ldr	r1, [pc, #24]	; (8007174 <XMC_SCU_CLOCK_SetECATClockSource+0x24>)
 800715a:	4b06      	ldr	r3, [pc, #24]	; (8007174 <XMC_SCU_CLOCK_SetECATClockSource+0x24>)
 800715c:	6b9b      	ldr	r3, [r3, #56]	; 0x38
 800715e:	f423 3280 	bic.w	r2, r3, #65536	; 0x10000
 8007162:	687b      	ldr	r3, [r7, #4]
 8007164:	4313      	orrs	r3, r2
 8007166:	638b      	str	r3, [r1, #56]	; 0x38
                       ((uint32_t)source);
}
 8007168:	370c      	adds	r7, #12
 800716a:	46bd      	mov	sp, r7
 800716c:	f85d 7b04 	ldr.w	r7, [sp], #4
 8007170:	4770      	bx	lr
 8007172:	bf00      	nop
 8007174:	50004600 	.word	0x50004600

08007178 <SystemCoreClockSetup>:
* @note   -
* @param  None
* @retval None
*/
void SystemCoreClockSetup(void)
{
 8007178:	b5b0      	push	{r4, r5, r7, lr}
 800717a:	b086      	sub	sp, #24
 800717c:	af00      	add	r7, sp, #0
  /* Local data structure for initializing the clock functional block */
  const XMC_SCU_CLOCK_CONFIG_t CLOCK_XMC4_0_CONFIG =
 800717e:	4b16      	ldr	r3, [pc, #88]	; (80071d8 <SystemCoreClockSetup+0x60>)
 8007180:	1d3c      	adds	r4, r7, #4
 8007182:	461d      	mov	r5, r3
 8007184:	cd0f      	ldmia	r5!, {r0, r1, r2, r3}
 8007186:	c40f      	stmia	r4!, {r0, r1, r2, r3}
 8007188:	682b      	ldr	r3, [r5, #0]
 800718a:	6023      	str	r3, [r4, #0]
#endif
    /* Peripheral Clock Divider Value */
    .fperipheral_clkdiv = 1U
  };
  /* Initialize the SCU clock */
  XMC_SCU_CLOCK_Init(&CLOCK_XMC4_0_CONFIG);
 800718c:	1d3b      	adds	r3, r7, #4
 800718e:	4618      	mov	r0, r3
 8007190:	f7fe fb52 	bl	8005838 <XMC_SCU_CLOCK_Init>
  /* RTC source clock */
  XMC_SCU_HIB_SetRtcClockSource(XMC_SCU_HIB_RTCCLKSRC_OSI);
 8007194:	2000      	movs	r0, #0
 8007196:	f7fe fc53 	bl	8005a40 <XMC_SCU_HIB_SetRtcClockSource>
  
#ifdef CLOCK_XMC4_USBCLK_ENABLED  
  /* USB/SDMMC source clock */
  XMC_SCU_CLOCK_SetUsbClockSource(XMC_SCU_CLOCK_USBCLKSRC_SYSPLL);
 800719a:	f44f 3080 	mov.w	r0, #65536	; 0x10000
 800719e:	f7fe fc07 	bl	80059b0 <XMC_SCU_CLOCK_SetUsbClockSource>
  /* USB/SDMMC divider setting */
  XMC_SCU_CLOCK_SetUsbClockDivider(6U);
 80071a2:	2006      	movs	r0, #6
 80071a4:	f7fe fcd8 	bl	8005b58 <XMC_SCU_CLOCK_SetUsbClockDivider>
#endif
  /* Start USB PLL */
  XMC_SCU_CLOCK_EnableUsbPll();
 80071a8:	f7fe fd42 	bl	8005c30 <XMC_SCU_CLOCK_EnableUsbPll>
  XMC_SCU_CLOCK_StartUsbPll(3U, 100U);
 80071ac:	2003      	movs	r0, #3
 80071ae:	2164      	movs	r1, #100	; 0x64
 80071b0:	f7fe fd4e 	bl	8005c50 <XMC_SCU_CLOCK_StartUsbPll>
  
#ifdef CLOCK_XMC4_ECATCLK_ENABLED    
  /* ECAT source clock */
  XMC_SCU_CLOCK_SetECATClockSource(XMC_SCU_CLOCK_ECATCLKSRC_USBPLL);
 80071b4:	2000      	movs	r0, #0
 80071b6:	f7ff ffcb 	bl	8007150 <XMC_SCU_CLOCK_SetECATClockSource>
  /* ECAT divider setting */
  XMC_SCU_CLOCK_SetECATClockDivider(2U);
 80071ba:	2002      	movs	r0, #2
 80071bc:	f7fe fd08 	bl	8005bd0 <XMC_SCU_CLOCK_SetECATClockDivider>
#endif

#ifdef CLOCK_XMC4_WDTCLK_ENABLED    
  /* WDT source clock */
  XMC_SCU_CLOCK_SetWdtClockSource(XMC_SCU_CLOCK_WDTCLKSRC_OFI);
 80071c0:	2000      	movs	r0, #0
 80071c2:	f7fe fc09 	bl	80059d8 <XMC_SCU_CLOCK_SetWdtClockSource>
  /* WDT divider setting */
  XMC_SCU_CLOCK_SetWdtClockDivider(1U);
 80071c6:	2001      	movs	r0, #1
 80071c8:	f7fe fcee 	bl	8005ba8 <XMC_SCU_CLOCK_SetWdtClockDivider>
#endif

#ifdef CLOCK_XMC4_EBUCLK_ENABLED 
  /* EBU divider setting */
  XMC_SCU_CLOCK_SetEbuClockDivider(1U);
 80071cc:	2001      	movs	r0, #1
 80071ce:	f7fe fcd7 	bl	8005b80 <XMC_SCU_CLOCK_SetEbuClockDivider>
#endif

}
 80071d2:	3718      	adds	r7, #24
 80071d4:	46bd      	mov	sp, r7
 80071d6:	bdb0      	pop	{r4, r5, r7, pc}
 80071d8:	080083c0 	.word	0x080083c0

080071dc <DAVE_Init>:
 * @param[in]  None
 *
 * @return  DAVE_STATUS_t <BR>
 ******************************************************************************/
__WEAK DAVE_STATUS_t DAVE_Init(void)
{
 80071dc:	b580      	push	{r7, lr}
 80071de:	b082      	sub	sp, #8
 80071e0:	af00      	add	r7, sp, #0
  DAVE_STATUS_t init_status;
  
  init_status = DAVE_STATUS_SUCCESS;
 80071e2:	2300      	movs	r3, #0
 80071e4:	71fb      	strb	r3, [r7, #7]
     /** @Initialization of APPs Init Functions */
     init_status = (DAVE_STATUS_t)CLOCK_XMC4_Init(&CLOCK_XMC4_0);
 80071e6:	4811      	ldr	r0, [pc, #68]	; (800722c <DAVE_Init+0x50>)
 80071e8:	f7ff ff98 	bl	800711c <CLOCK_XMC4_Init>
 80071ec:	4603      	mov	r3, r0
 80071ee:	71fb      	strb	r3, [r7, #7]

  if (init_status == DAVE_STATUS_SUCCESS)
 80071f0:	79fb      	ldrb	r3, [r7, #7]
 80071f2:	2b00      	cmp	r3, #0
 80071f4:	d104      	bne.n	8007200 <DAVE_Init+0x24>
  {
	 /**  Initialization of MULTICAN_CONFIG APP instance MULTICAN_CONFIG_0 */
	 init_status = (DAVE_STATUS_t)MULTICAN_CONFIG_Init(&MULTICAN_CONFIG_0); 
 80071f6:	480e      	ldr	r0, [pc, #56]	; (8007230 <DAVE_Init+0x54>)
 80071f8:	f7ff fba8 	bl	800694c <MULTICAN_CONFIG_Init>
 80071fc:	4603      	mov	r3, r0
 80071fe:	71fb      	strb	r3, [r7, #7]
   } 
  if (init_status == DAVE_STATUS_SUCCESS)
 8007200:	79fb      	ldrb	r3, [r7, #7]
 8007202:	2b00      	cmp	r3, #0
 8007204:	d104      	bne.n	8007210 <DAVE_Init+0x34>
  {
	 /**  Initialization of INTERRUPT APP instance INTERRUPT_0 */
	 init_status = (DAVE_STATUS_t)INTERRUPT_Init(&INTERRUPT_0); 
 8007206:	480b      	ldr	r0, [pc, #44]	; (8007234 <DAVE_Init+0x58>)
 8007208:	f7ff feac 	bl	8006f64 <INTERRUPT_Init>
 800720c:	4603      	mov	r3, r0
 800720e:	71fb      	strb	r3, [r7, #7]
   } 
  if (init_status == DAVE_STATUS_SUCCESS)
 8007210:	79fb      	ldrb	r3, [r7, #7]
 8007212:	2b00      	cmp	r3, #0
 8007214:	d104      	bne.n	8007220 <DAVE_Init+0x44>
  {
	 /**  Initialization of DIGITAL_IO APP instance DIGITAL_IO_0 */
	 init_status = (DAVE_STATUS_t)DIGITAL_IO_Init(&DIGITAL_IO_0); 
 8007216:	4808      	ldr	r0, [pc, #32]	; (8007238 <DAVE_Init+0x5c>)
 8007218:	f7ff feec 	bl	8006ff4 <DIGITAL_IO_Init>
 800721c:	4603      	mov	r3, r0
 800721e:	71fb      	strb	r3, [r7, #7]
   }  
  return init_status;
 8007220:	79fb      	ldrb	r3, [r7, #7]
} /**  End of function DAVE_Init */
 8007222:	4618      	mov	r0, r3
 8007224:	3708      	adds	r7, #8
 8007226:	46bd      	mov	sp, r7
 8007228:	bd80      	pop	{r7, pc}
 800722a:	bf00      	nop
 800722c:	1ffe8c90 	.word	0x1ffe8c90
 8007230:	1ffe8918 	.word	0x1ffe8918
 8007234:	080083a8 	.word	0x080083a8
 8007238:	080083ac 	.word	0x080083ac

0800723c <XMC_GPIO_SetOutputHigh>:
 * Register Pn_OMR is virtual and does not contain any flip-flop. A read action delivers the value of 0.
 *
 */

__STATIC_INLINE void XMC_GPIO_SetOutputHigh(XMC_GPIO_PORT_t *const port, const uint8_t pin)
{
 800723c:	b480      	push	{r7}
 800723e:	b083      	sub	sp, #12
 8007240:	af00      	add	r7, sp, #0
 8007242:	6078      	str	r0, [r7, #4]
 8007244:	460b      	mov	r3, r1
 8007246:	70fb      	strb	r3, [r7, #3]
  XMC_ASSERT("XMC_GPIO_SetOutputHigh: Invalid port", XMC_GPIO_CHECK_OUTPUT_PORT(port));

  port->OMR = (uint32_t)0x1U << pin;
 8007248:	78fb      	ldrb	r3, [r7, #3]
 800724a:	2201      	movs	r2, #1
 800724c:	409a      	lsls	r2, r3
 800724e:	687b      	ldr	r3, [r7, #4]
 8007250:	605a      	str	r2, [r3, #4]
}
 8007252:	370c      	adds	r7, #12
 8007254:	46bd      	mov	sp, r7
 8007256:	f85d 7b04 	ldr.w	r7, [sp], #4
 800725a:	4770      	bx	lr

0800725c <XMC_GPIO_SetOutputLow>:
 * Register Pn_OMR is virtual and does not contain any flip-flop. A read action delivers the value of 0.\n
 *
 */

__STATIC_INLINE void XMC_GPIO_SetOutputLow(XMC_GPIO_PORT_t *const port, const uint8_t pin)
{
 800725c:	b480      	push	{r7}
 800725e:	b083      	sub	sp, #12
 8007260:	af00      	add	r7, sp, #0
 8007262:	6078      	str	r0, [r7, #4]
 8007264:	460b      	mov	r3, r1
 8007266:	70fb      	strb	r3, [r7, #3]
  XMC_ASSERT("XMC_GPIO_SetOutputLow: Invalid port", XMC_GPIO_CHECK_OUTPUT_PORT(port));

  port->OMR = 0x10000U << pin;
 8007268:	78fb      	ldrb	r3, [r7, #3]
 800726a:	f44f 3280 	mov.w	r2, #65536	; 0x10000
 800726e:	409a      	lsls	r2, r3
 8007270:	687b      	ldr	r3, [r7, #4]
 8007272:	605a      	str	r2, [r3, #4]
}
 8007274:	370c      	adds	r7, #12
 8007276:	46bd      	mov	sp, r7
 8007278:	f85d 7b04 	ldr.w	r7, [sp], #4
 800727c:	4770      	bx	lr
 800727e:	bf00      	nop

08007280 <XMC_CAN_MO_GetStatus>:
 * None
 *
 */

__STATIC_INLINE uint32_t XMC_CAN_MO_GetStatus(const XMC_CAN_MO_t *const can_mo)
{
 8007280:	b480      	push	{r7}
 8007282:	b083      	sub	sp, #12
 8007284:	af00      	add	r7, sp, #0
 8007286:	6078      	str	r0, [r7, #4]
  return ((can_mo->can_mo_ptr->MOSTAT));
 8007288:	687b      	ldr	r3, [r7, #4]
 800728a:	681b      	ldr	r3, [r3, #0]
 800728c:	69db      	ldr	r3, [r3, #28]
}
 800728e:	4618      	mov	r0, r3
 8007290:	370c      	adds	r7, #12
 8007292:	46bd      	mov	sp, r7
 8007294:	f85d 7b04 	ldr.w	r7, [sp], #4
 8007298:	4770      	bx	lr
 800729a:	bf00      	nop

0800729c <fixture_init>:

/* Configure MO3/MO4 so they can act as a PMB fixture for loopback testing.
 * MO3 becomes a plain extended TX; MO4 is filtered to accept PMB responses
 * addressed to FIXTURE_ADDR. */
static void fixture_init(void)
{
 800729c:	b580      	push	{r7, lr}
 800729e:	b082      	sub	sp, #8
 80072a0:	af00      	add	r7, sp, #0
    XMC_CAN_MO_t *tx_mo = MULTICAN_CONFIG_0.lmobj_ptr[FIXTURE_TX_MO]->mo_ptr;
 80072a2:	4b1a      	ldr	r3, [pc, #104]	; (800730c <fixture_init+0x70>)
 80072a4:	691b      	ldr	r3, [r3, #16]
 80072a6:	681b      	ldr	r3, [r3, #0]
 80072a8:	607b      	str	r3, [r7, #4]
    XMC_CAN_MO_t *rx_mo = MULTICAN_CONFIG_0.lmobj_ptr[FIXTURE_RX_MO]->mo_ptr;
 80072aa:	4b18      	ldr	r3, [pc, #96]	; (800730c <fixture_init+0x70>)
 80072ac:	695b      	ldr	r3, [r3, #20]
 80072ae:	681b      	ldr	r3, [r3, #0]
 80072b0:	603b      	str	r3, [r7, #0]

    tx_mo->can_id_mode     = XMC_CAN_FRAME_TYPE_EXTENDED_29BITS;
 80072b2:	687a      	ldr	r2, [r7, #4]
 80072b4:	79d3      	ldrb	r3, [r2, #7]
 80072b6:	f043 0320 	orr.w	r3, r3, #32
 80072ba:	71d3      	strb	r3, [r2, #7]
    tx_mo->can_mo_type     = XMC_CAN_MO_TYPE_TRANSMSGOBJ;
 80072bc:	687b      	ldr	r3, [r7, #4]
 80072be:	2201      	movs	r2, #1
 80072c0:	761a      	strb	r2, [r3, #24]
    tx_mo->can_data_length = 8U;
 80072c2:	687b      	ldr	r3, [r7, #4]
 80072c4:	2208      	movs	r2, #8
 80072c6:	731a      	strb	r2, [r3, #12]
    XMC_CAN_MO_Config(tx_mo);
 80072c8:	6878      	ldr	r0, [r7, #4]
 80072ca:	f7ff f911 	bl	80064f0 <XMC_CAN_MO_Config>

    /* Accept any response where bits[15:8] (dst) == FIXTURE_ADDR */
    rx_mo->can_identifier  = PMB_CAN_BUILD_ID(0U, 0U, FIXTURE_ADDR, 0U);
 80072ce:	683a      	ldr	r2, [r7, #0]
 80072d0:	6853      	ldr	r3, [r2, #4]
 80072d2:	f44f 4120 	mov.w	r1, #40960	; 0xa000
 80072d6:	f361 031c 	bfi	r3, r1, #0, #29
 80072da:	6053      	str	r3, [r2, #4]
    rx_mo->can_id_mask     = 0x0000FF00UL;
 80072dc:	683a      	ldr	r2, [r7, #0]
 80072de:	6893      	ldr	r3, [r2, #8]
 80072e0:	f44f 417f 	mov.w	r1, #65280	; 0xff00
 80072e4:	f361 031c 	bfi	r3, r1, #0, #29
 80072e8:	6093      	str	r3, [r2, #8]
    rx_mo->can_id_mode     = XMC_CAN_FRAME_TYPE_EXTENDED_29BITS;
 80072ea:	683a      	ldr	r2, [r7, #0]
 80072ec:	79d3      	ldrb	r3, [r2, #7]
 80072ee:	f043 0320 	orr.w	r3, r3, #32
 80072f2:	71d3      	strb	r3, [r2, #7]
    rx_mo->can_mo_type     = XMC_CAN_MO_TYPE_RECMSGOBJ;
 80072f4:	683b      	ldr	r3, [r7, #0]
 80072f6:	2200      	movs	r2, #0
 80072f8:	761a      	strb	r2, [r3, #24]
    rx_mo->can_data_length = 8U;
 80072fa:	683b      	ldr	r3, [r7, #0]
 80072fc:	2208      	movs	r2, #8
 80072fe:	731a      	strb	r2, [r3, #12]
    XMC_CAN_MO_Config(rx_mo);
 8007300:	6838      	ldr	r0, [r7, #0]
 8007302:	f7ff f8f5 	bl	80064f0 <XMC_CAN_MO_Config>
}
 8007306:	3708      	adds	r7, #8
 8007308:	46bd      	mov	sp, r7
 800730a:	bd80      	pop	{r7, pc}
 800730c:	1ffe8918 	.word	0x1ffe8918

08007310 <fixture_send_read>:

/* Transmit a PMB read request (payload bytes 0-5 all zero) via MO3. */
static void fixture_send_read(uint16_t data_id)
{
 8007310:	b580      	push	{r7, lr}
 8007312:	b084      	sub	sp, #16
 8007314:	af00      	add	r7, sp, #0
 8007316:	4603      	mov	r3, r0
 8007318:	80fb      	strh	r3, [r7, #6]
    XMC_CAN_MO_t *mo = MULTICAN_CONFIG_0.lmobj_ptr[FIXTURE_TX_MO]->mo_ptr;
 800731a:	4b23      	ldr	r3, [pc, #140]	; (80073a8 <fixture_send_read+0x98>)
 800731c:	691b      	ldr	r3, [r3, #16]
 800731e:	681b      	ldr	r3, [r3, #0]
 8007320:	60bb      	str	r3, [r7, #8]
    uint8_t i;

    while (XMC_CAN_MO_GetStatus(mo) & (uint32_t)XMC_CAN_MO_STATUS_TX_REQUEST) {}
 8007322:	bf00      	nop
 8007324:	68b8      	ldr	r0, [r7, #8]
 8007326:	f7ff ffab 	bl	8007280 <XMC_CAN_MO_GetStatus>
 800732a:	4603      	mov	r3, r0
 800732c:	f403 7380 	and.w	r3, r3, #256	; 0x100
 8007330:	2b00      	cmp	r3, #0
 8007332:	d1f7      	bne.n	8007324 <fixture_send_read+0x14>

    mo->can_identifier  = PMB_CAN_BUILD_ID(4U, data_id, PMB_ADDR, FIXTURE_ADDR);
 8007334:	88fb      	ldrh	r3, [r7, #6]
 8007336:	041a      	lsls	r2, r3, #16
 8007338:	4b1c      	ldr	r3, [pc, #112]	; (80073ac <fixture_send_read+0x9c>)
 800733a:	4313      	orrs	r3, r2
 800733c:	f023 4160 	bic.w	r1, r3, #3758096384	; 0xe0000000
 8007340:	68ba      	ldr	r2, [r7, #8]
 8007342:	6853      	ldr	r3, [r2, #4]
 8007344:	f361 031c 	bfi	r3, r1, #0, #29
 8007348:	6053      	str	r3, [r2, #4]
    mo->can_data_length = 8U;
 800734a:	68bb      	ldr	r3, [r7, #8]
 800734c:	2208      	movs	r2, #8
 800734e:	731a      	strb	r2, [r3, #12]
    for (i = 0U; i < 6U; i++) mo->can_data_byte[i] = 0U; /* read request */
 8007350:	2300      	movs	r3, #0
 8007352:	73fb      	strb	r3, [r7, #15]
 8007354:	e007      	b.n	8007366 <fixture_send_read+0x56>
 8007356:	7bfb      	ldrb	r3, [r7, #15]
 8007358:	68ba      	ldr	r2, [r7, #8]
 800735a:	4413      	add	r3, r2
 800735c:	2200      	movs	r2, #0
 800735e:	741a      	strb	r2, [r3, #16]
 8007360:	7bfb      	ldrb	r3, [r7, #15]
 8007362:	3301      	adds	r3, #1
 8007364:	73fb      	strb	r3, [r7, #15]
 8007366:	7bfb      	ldrb	r3, [r7, #15]
 8007368:	2b05      	cmp	r3, #5
 800736a:	d9f4      	bls.n	8007356 <fixture_send_read+0x46>
    mo->can_data_byte[6] = TEST_PKT_LO;
 800736c:	68bb      	ldr	r3, [r7, #8]
 800736e:	2234      	movs	r2, #52	; 0x34
 8007370:	759a      	strb	r2, [r3, #22]
    mo->can_data_byte[7] = TEST_PKT_HI;
 8007372:	68bb      	ldr	r3, [r7, #8]
 8007374:	2212      	movs	r2, #18
 8007376:	75da      	strb	r2, [r3, #23]

    if (XMC_CAN_MO_UpdateData(mo) != XMC_CAN_STATUS_SUCCESS)
 8007378:	68b8      	ldr	r0, [r7, #8]
 800737a:	f7ff f955 	bl	8006628 <XMC_CAN_MO_UpdateData>
 800737e:	4603      	mov	r3, r0
 8007380:	2b00      	cmp	r3, #0
 8007382:	d003      	beq.n	800738c <fixture_send_read+0x7c>
    {
        XMC_DEBUG("fixture: UpdateData failed\n");
 8007384:	480a      	ldr	r0, [pc, #40]	; (80073b0 <fixture_send_read+0xa0>)
 8007386:	f000 fa53 	bl	8007830 <puts>
        while (1U) {}
 800738a:	e7fe      	b.n	800738a <fixture_send_read+0x7a>
    }
    if (XMC_CAN_MO_Transmit(mo) != XMC_CAN_STATUS_SUCCESS)
 800738c:	68b8      	ldr	r0, [r7, #8]
 800738e:	f7ff f983 	bl	8006698 <XMC_CAN_MO_Transmit>
 8007392:	4603      	mov	r3, r0
 8007394:	2b00      	cmp	r3, #0
 8007396:	d003      	beq.n	80073a0 <fixture_send_read+0x90>
    {
        XMC_DEBUG("fixture: Transmit failed\n");
 8007398:	4806      	ldr	r0, [pc, #24]	; (80073b4 <fixture_send_read+0xa4>)
 800739a:	f000 fa49 	bl	8007830 <puts>
        while (1U) {}
 800739e:	e7fe      	b.n	800739e <fixture_send_read+0x8e>
    }
}
 80073a0:	3710      	adds	r7, #16
 80073a2:	46bd      	mov	sp, r7
 80073a4:	bd80      	pop	{r7, pc}
 80073a6:	bf00      	nop
 80073a8:	1ffe8918 	.word	0x1ffe8918
 80073ac:	1000c0a0 	.word	0x1000c0a0
 80073b0:	080083d4 	.word	0x080083d4
 80073b4:	080083f0 	.word	0x080083f0

080073b8 <loopback_test>:
 * packs for this data_id.  Bytes outside that range are not checked because
 * XMC_CAN_MO_Receive does not overwrite MO data bytes that the incoming frame
 * leaves unchanged, so they may contain stale data from the previous frame. */
static void loopback_test(uint16_t data_id, const uint8_t expected[6],
                          uint8_t chk_lo, uint8_t chk_hi)
{
 80073b8:	b580      	push	{r7, lr}
 80073ba:	b084      	sub	sp, #16
 80073bc:	af00      	add	r7, sp, #0
 80073be:	6039      	str	r1, [r7, #0]
 80073c0:	4611      	mov	r1, r2
 80073c2:	461a      	mov	r2, r3
 80073c4:	4603      	mov	r3, r0
 80073c6:	80fb      	strh	r3, [r7, #6]
 80073c8:	460b      	mov	r3, r1
 80073ca:	717b      	strb	r3, [r7, #5]
 80073cc:	4613      	mov	r3, r2
 80073ce:	713b      	strb	r3, [r7, #4]
    s_fixture_rx_ready = 0U;
 80073d0:	4b27      	ldr	r3, [pc, #156]	; (8007470 <loopback_test+0xb8>)
 80073d2:	2200      	movs	r2, #0
 80073d4:	701a      	strb	r2, [r3, #0]
    fixture_send_read(data_id);
 80073d6:	88fb      	ldrh	r3, [r7, #6]
 80073d8:	4618      	mov	r0, r3
 80073da:	f7ff ff99 	bl	8007310 <fixture_send_read>
    while (!s_fixture_rx_ready)
 80073de:	e001      	b.n	80073e4 <loopback_test+0x2c>
    {
        PMB_Emulator_Run();
 80073e0:	f7fe f8c4 	bl	800556c <PMB_Emulator_Run>
static void loopback_test(uint16_t data_id, const uint8_t expected[6],
                          uint8_t chk_lo, uint8_t chk_hi)
{
    s_fixture_rx_ready = 0U;
    fixture_send_read(data_id);
    while (!s_fixture_rx_ready)
 80073e4:	4b22      	ldr	r3, [pc, #136]	; (8007470 <loopback_test+0xb8>)
 80073e6:	781b      	ldrb	r3, [r3, #0]
 80073e8:	b2db      	uxtb	r3, r3
 80073ea:	2b00      	cmp	r3, #0
 80073ec:	d0f8      	beq.n	80073e0 <loopback_test+0x28>
    {
        PMB_Emulator_Run();
    }

    /* Verify response fields */
    if (s_fixture_rx_dlc != 8U)
 80073ee:	4b21      	ldr	r3, [pc, #132]	; (8007474 <loopback_test+0xbc>)
 80073f0:	781b      	ldrb	r3, [r3, #0]
 80073f2:	2b08      	cmp	r3, #8
 80073f4:	d003      	beq.n	80073fe <loopback_test+0x46>
    {
        XMC_DEBUG("loopback: DLC mismatch\n");
 80073f6:	4820      	ldr	r0, [pc, #128]	; (8007478 <loopback_test+0xc0>)
 80073f8:	f000 fa1a 	bl	8007830 <puts>
        while (1U) {}
 80073fc:	e7fe      	b.n	80073fc <loopback_test+0x44>
    }
    if (s_fixture_rx_data[6] != TEST_PKT_LO || s_fixture_rx_data[7] != TEST_PKT_HI)
 80073fe:	4b1f      	ldr	r3, [pc, #124]	; (800747c <loopback_test+0xc4>)
 8007400:	799b      	ldrb	r3, [r3, #6]
 8007402:	2b34      	cmp	r3, #52	; 0x34
 8007404:	d103      	bne.n	800740e <loopback_test+0x56>
 8007406:	4b1d      	ldr	r3, [pc, #116]	; (800747c <loopback_test+0xc4>)
 8007408:	79db      	ldrb	r3, [r3, #7]
 800740a:	2b12      	cmp	r3, #18
 800740c:	d003      	beq.n	8007416 <loopback_test+0x5e>
    {
        XMC_DEBUG("loopback: packet counter not echoed\n");
 800740e:	481c      	ldr	r0, [pc, #112]	; (8007480 <loopback_test+0xc8>)
 8007410:	f000 fa0e 	bl	8007830 <puts>
        while (1U) {}
 8007414:	e7fe      	b.n	8007414 <loopback_test+0x5c>
    }
    if (PMB_GET_DST(s_fixture_rx_id) != FIXTURE_ADDR)
 8007416:	4b1b      	ldr	r3, [pc, #108]	; (8007484 <loopback_test+0xcc>)
 8007418:	681b      	ldr	r3, [r3, #0]
 800741a:	0a1b      	lsrs	r3, r3, #8
 800741c:	b2db      	uxtb	r3, r3
 800741e:	2ba0      	cmp	r3, #160	; 0xa0
 8007420:	d003      	beq.n	800742a <loopback_test+0x72>
    {
        XMC_DEBUG("loopback: response dst wrong\n");
 8007422:	4819      	ldr	r0, [pc, #100]	; (8007488 <loopback_test+0xd0>)
 8007424:	f000 fa04 	bl	8007830 <puts>
        while (1U) {}
 8007428:	e7fe      	b.n	8007428 <loopback_test+0x70>
    }
    if (PMB_GET_SRC(s_fixture_rx_id) != PMB_ADDR)
 800742a:	4b16      	ldr	r3, [pc, #88]	; (8007484 <loopback_test+0xcc>)
 800742c:	681b      	ldr	r3, [r3, #0]
 800742e:	b2db      	uxtb	r3, r3
 8007430:	2bc0      	cmp	r3, #192	; 0xc0
 8007432:	d003      	beq.n	800743c <loopback_test+0x84>
    {
        XMC_DEBUG("loopback: response src wrong\n");
 8007434:	4815      	ldr	r0, [pc, #84]	; (800748c <loopback_test+0xd4>)
 8007436:	f000 f9fb 	bl	8007830 <puts>
        while (1U) {}
 800743a:	e7fe      	b.n	800743a <loopback_test+0x82>
    }
    uint8_t i;
    for (i = chk_lo; i < chk_hi; i++)
 800743c:	797b      	ldrb	r3, [r7, #5]
 800743e:	73fb      	strb	r3, [r7, #15]
 8007440:	e00f      	b.n	8007462 <loopback_test+0xaa>
    {
        if (s_fixture_rx_data[i] != expected[i])
 8007442:	7bfb      	ldrb	r3, [r7, #15]
 8007444:	4a0d      	ldr	r2, [pc, #52]	; (800747c <loopback_test+0xc4>)
 8007446:	5cd2      	ldrb	r2, [r2, r3]
 8007448:	7bfb      	ldrb	r3, [r7, #15]
 800744a:	6839      	ldr	r1, [r7, #0]
 800744c:	440b      	add	r3, r1
 800744e:	781b      	ldrb	r3, [r3, #0]
 8007450:	429a      	cmp	r2, r3
 8007452:	d003      	beq.n	800745c <loopback_test+0xa4>
        {
            XMC_DEBUG("loopback: data mismatch\n");
 8007454:	480e      	ldr	r0, [pc, #56]	; (8007490 <loopback_test+0xd8>)
 8007456:	f000 f9eb 	bl	8007830 <puts>
            while (1U) {}
 800745a:	e7fe      	b.n	800745a <loopback_test+0xa2>
    {
        XMC_DEBUG("loopback: response src wrong\n");
        while (1U) {}
    }
    uint8_t i;
    for (i = chk_lo; i < chk_hi; i++)
 800745c:	7bfb      	ldrb	r3, [r7, #15]
 800745e:	3301      	adds	r3, #1
 8007460:	73fb      	strb	r3, [r7, #15]
 8007462:	7bfa      	ldrb	r2, [r7, #15]
 8007464:	793b      	ldrb	r3, [r7, #4]
 8007466:	429a      	cmp	r2, r3
 8007468:	d3eb      	bcc.n	8007442 <loopback_test+0x8a>
            XMC_DEBUG("loopback: data mismatch\n");
            while (1U) {}
        }
    }

}
 800746a:	3710      	adds	r7, #16
 800746c:	46bd      	mov	sp, r7
 800746e:	bd80      	pop	{r7, pc}
 8007470:	1ffe8c94 	.word	0x1ffe8c94
 8007474:	1ffe8ca0 	.word	0x1ffe8ca0
 8007478:	0800840c 	.word	0x0800840c
 800747c:	1ffe8c98 	.word	0x1ffe8c98
 8007480:	08008424 	.word	0x08008424
 8007484:	1ffe8ca4 	.word	0x1ffe8ca4
 8007488:	08008448 	.word	0x08008448
 800748c:	08008468 	.word	0x08008468
 8007490:	08008488 	.word	0x08008488

08007494 <led_on>:
#define SOS_EGAP   6000000U   /* 1 unit  off — between elements */
#define SOS_LGAP  18000000U   /* 3 units off — between letters  */
#define SOS_WGAP  42000000U   /* 7 units off — after full SOS   */

static void led_on(uint32_t cycles)
{
 8007494:	b580      	push	{r7, lr}
 8007496:	b084      	sub	sp, #16
 8007498:	af00      	add	r7, sp, #0
 800749a:	6078      	str	r0, [r7, #4]
    XMC_GPIO_SetOutputHigh(DIGITAL_IO_0.gpio_port, DIGITAL_IO_0.gpio_pin);
 800749c:	4b0a      	ldr	r3, [pc, #40]	; (80074c8 <led_on+0x34>)
 800749e:	681a      	ldr	r2, [r3, #0]
 80074a0:	4b09      	ldr	r3, [pc, #36]	; (80074c8 <led_on+0x34>)
 80074a2:	7c1b      	ldrb	r3, [r3, #16]
 80074a4:	4610      	mov	r0, r2
 80074a6:	4619      	mov	r1, r3
 80074a8:	f7ff fec8 	bl	800723c <XMC_GPIO_SetOutputHigh>
    for (volatile uint32_t d = 0U; d < cycles; d++) {}
 80074ac:	2300      	movs	r3, #0
 80074ae:	60fb      	str	r3, [r7, #12]
 80074b0:	e002      	b.n	80074b8 <led_on+0x24>
 80074b2:	68fb      	ldr	r3, [r7, #12]
 80074b4:	3301      	adds	r3, #1
 80074b6:	60fb      	str	r3, [r7, #12]
 80074b8:	68fa      	ldr	r2, [r7, #12]
 80074ba:	687b      	ldr	r3, [r7, #4]
 80074bc:	429a      	cmp	r2, r3
 80074be:	d3f8      	bcc.n	80074b2 <led_on+0x1e>
}
 80074c0:	3710      	adds	r7, #16
 80074c2:	46bd      	mov	sp, r7
 80074c4:	bd80      	pop	{r7, pc}
 80074c6:	bf00      	nop
 80074c8:	080083ac 	.word	0x080083ac

080074cc <led_off>:

static void led_off(uint32_t cycles)
{
 80074cc:	b580      	push	{r7, lr}
 80074ce:	b084      	sub	sp, #16
 80074d0:	af00      	add	r7, sp, #0
 80074d2:	6078      	str	r0, [r7, #4]
    XMC_GPIO_SetOutputLow(DIGITAL_IO_0.gpio_port, DIGITAL_IO_0.gpio_pin);
 80074d4:	4b0a      	ldr	r3, [pc, #40]	; (8007500 <led_off+0x34>)
 80074d6:	681a      	ldr	r2, [r3, #0]
 80074d8:	4b09      	ldr	r3, [pc, #36]	; (8007500 <led_off+0x34>)
 80074da:	7c1b      	ldrb	r3, [r3, #16]
 80074dc:	4610      	mov	r0, r2
 80074de:	4619      	mov	r1, r3
 80074e0:	f7ff febc 	bl	800725c <XMC_GPIO_SetOutputLow>
    for (volatile uint32_t d = 0U; d < cycles; d++) {}
 80074e4:	2300      	movs	r3, #0
 80074e6:	60fb      	str	r3, [r7, #12]
 80074e8:	e002      	b.n	80074f0 <led_off+0x24>
 80074ea:	68fb      	ldr	r3, [r7, #12]
 80074ec:	3301      	adds	r3, #1
 80074ee:	60fb      	str	r3, [r7, #12]
 80074f0:	68fa      	ldr	r2, [r7, #12]
 80074f2:	687b      	ldr	r3, [r7, #4]
 80074f4:	429a      	cmp	r2, r3
 80074f6:	d3f8      	bcc.n	80074ea <led_off+0x1e>
}
 80074f8:	3710      	adds	r7, #16
 80074fa:	46bd      	mov	sp, r7
 80074fc:	bd80      	pop	{r7, pc}
 80074fe:	bf00      	nop
 8007500:	080083ac 	.word	0x080083ac

08007504 <blink_sos>:

static void blink_sos(void)
{
 8007504:	b580      	push	{r7, lr}
 8007506:	af00      	add	r7, sp, #0
    /* S: dot dot dot */
    led_on(SOS_DOT);  led_off(SOS_EGAP);
 8007508:	481b      	ldr	r0, [pc, #108]	; (8007578 <blink_sos+0x74>)
 800750a:	f7ff ffc3 	bl	8007494 <led_on>
 800750e:	481a      	ldr	r0, [pc, #104]	; (8007578 <blink_sos+0x74>)
 8007510:	f7ff ffdc 	bl	80074cc <led_off>
    led_on(SOS_DOT);  led_off(SOS_EGAP);
 8007514:	4818      	ldr	r0, [pc, #96]	; (8007578 <blink_sos+0x74>)
 8007516:	f7ff ffbd 	bl	8007494 <led_on>
 800751a:	4817      	ldr	r0, [pc, #92]	; (8007578 <blink_sos+0x74>)
 800751c:	f7ff ffd6 	bl	80074cc <led_off>
    led_on(SOS_DOT);  led_off(SOS_LGAP);
 8007520:	4815      	ldr	r0, [pc, #84]	; (8007578 <blink_sos+0x74>)
 8007522:	f7ff ffb7 	bl	8007494 <led_on>
 8007526:	4815      	ldr	r0, [pc, #84]	; (800757c <blink_sos+0x78>)
 8007528:	f7ff ffd0 	bl	80074cc <led_off>
    /* O: dash dash dash */
    led_on(SOS_DASH); led_off(SOS_EGAP);
 800752c:	4813      	ldr	r0, [pc, #76]	; (800757c <blink_sos+0x78>)
 800752e:	f7ff ffb1 	bl	8007494 <led_on>
 8007532:	4811      	ldr	r0, [pc, #68]	; (8007578 <blink_sos+0x74>)
 8007534:	f7ff ffca 	bl	80074cc <led_off>
    led_on(SOS_DASH); led_off(SOS_EGAP);
 8007538:	4810      	ldr	r0, [pc, #64]	; (800757c <blink_sos+0x78>)
 800753a:	f7ff ffab 	bl	8007494 <led_on>
 800753e:	480e      	ldr	r0, [pc, #56]	; (8007578 <blink_sos+0x74>)
 8007540:	f7ff ffc4 	bl	80074cc <led_off>
    led_on(SOS_DASH); led_off(SOS_LGAP);
 8007544:	480d      	ldr	r0, [pc, #52]	; (800757c <blink_sos+0x78>)
 8007546:	f7ff ffa5 	bl	8007494 <led_on>
 800754a:	480c      	ldr	r0, [pc, #48]	; (800757c <blink_sos+0x78>)
 800754c:	f7ff ffbe 	bl	80074cc <led_off>
    /* S: dot dot dot */
    led_on(SOS_DOT);  led_off(SOS_EGAP);
 8007550:	4809      	ldr	r0, [pc, #36]	; (8007578 <blink_sos+0x74>)
 8007552:	f7ff ff9f 	bl	8007494 <led_on>
 8007556:	4808      	ldr	r0, [pc, #32]	; (8007578 <blink_sos+0x74>)
 8007558:	f7ff ffb8 	bl	80074cc <led_off>
    led_on(SOS_DOT);  led_off(SOS_EGAP);
 800755c:	4806      	ldr	r0, [pc, #24]	; (8007578 <blink_sos+0x74>)
 800755e:	f7ff ff99 	bl	8007494 <led_on>
 8007562:	4805      	ldr	r0, [pc, #20]	; (8007578 <blink_sos+0x74>)
 8007564:	f7ff ffb2 	bl	80074cc <led_off>
    led_on(SOS_DOT);  led_off(SOS_WGAP);
 8007568:	4803      	ldr	r0, [pc, #12]	; (8007578 <blink_sos+0x74>)
 800756a:	f7ff ff93 	bl	8007494 <led_on>
 800756e:	4804      	ldr	r0, [pc, #16]	; (8007580 <blink_sos+0x7c>)
 8007570:	f7ff ffac 	bl	80074cc <led_off>
}
 8007574:	bd80      	pop	{r7, pc}
 8007576:	bf00      	nop
 8007578:	005b8d80 	.word	0x005b8d80
 800757c:	0112a880 	.word	0x0112a880
 8007580:	0280de80 	.word	0x0280de80

08007584 <run_all_loopback_tests>:
};

#define TEST_TABLE_LEN ((uint8_t)(sizeof(s_test_table) / sizeof(s_test_table[0])))

static void run_all_loopback_tests(void)
{
 8007584:	b590      	push	{r4, r7, lr}
 8007586:	b087      	sub	sp, #28
 8007588:	af00      	add	r7, sp, #0
    uint8_t expected[6];
    uint8_t i, j;

    for (i = 0U; i < TEST_TABLE_LEN; i++)
 800758a:	2300      	movs	r3, #0
 800758c:	75fb      	strb	r3, [r7, #23]
 800758e:	e050      	b.n	8007632 <run_all_loopback_tests+0xae>
    {
        const PMBTestVec_t *tv = &s_test_table[i];
 8007590:	7dfa      	ldrb	r2, [r7, #23]
 8007592:	4613      	mov	r3, r2
 8007594:	005b      	lsls	r3, r3, #1
 8007596:	4413      	add	r3, r2
 8007598:	005b      	lsls	r3, r3, #1
 800759a:	4a29      	ldr	r2, [pc, #164]	; (8007640 <run_all_loopback_tests+0xbc>)
 800759c:	4413      	add	r3, r2
 800759e:	613b      	str	r3, [r7, #16]
        PMB_Registers_t *regs  = PMB_GetRegsMutable();
 80075a0:	f7fe f846 	bl	8005630 <PMB_GetRegsMutable>
 80075a4:	60f8      	str	r0, [r7, #12]

        /* Stamp seed bytes directly into the struct at the field's raw address.
         * For payload_off > 0 (only 0xCC today) the seed slice that maps to
         * the active payload positions is used so expected == seed. */
        memcpy((uint8_t *)regs + tv->reg_offset,
 80075a6:	693b      	ldr	r3, [r7, #16]
 80075a8:	885b      	ldrh	r3, [r3, #2]
 80075aa:	461a      	mov	r2, r3
 80075ac:	68fb      	ldr	r3, [r7, #12]
 80075ae:	1899      	adds	r1, r3, r2
               s_seed6 + tv->payload_off,
 80075b0:	693b      	ldr	r3, [r7, #16]
 80075b2:	795b      	ldrb	r3, [r3, #5]
        PMB_Registers_t *regs  = PMB_GetRegsMutable();

        /* Stamp seed bytes directly into the struct at the field's raw address.
         * For payload_off > 0 (only 0xCC today) the seed slice that maps to
         * the active payload positions is used so expected == seed. */
        memcpy((uint8_t *)regs + tv->reg_offset,
 80075b4:	461a      	mov	r2, r3
               s_seed6 + tv->payload_off,
 80075b6:	4b23      	ldr	r3, [pc, #140]	; (8007644 <run_all_loopback_tests+0xc0>)
 80075b8:	441a      	add	r2, r3
               tv->n_active);
 80075ba:	693b      	ldr	r3, [r7, #16]
 80075bc:	791b      	ldrb	r3, [r3, #4]
        PMB_Registers_t *regs  = PMB_GetRegsMutable();

        /* Stamp seed bytes directly into the struct at the field's raw address.
         * For payload_off > 0 (only 0xCC today) the seed slice that maps to
         * the active payload positions is used so expected == seed. */
        memcpy((uint8_t *)regs + tv->reg_offset,
 80075be:	4608      	mov	r0, r1
 80075c0:	4611      	mov	r1, r2
 80075c2:	461a      	mov	r2, r3
 80075c4:	f000 f8c2 	bl	800774c <memcpy>
               s_seed6 + tv->payload_off,
               tv->n_active);

        /* Build expected: seed at [payload_off .. payload_off+n_active), zeros elsewhere */
        memset(expected, 0U, 6U);
 80075c8:	1d3b      	adds	r3, r7, #4
 80075ca:	4618      	mov	r0, r3
 80075cc:	2100      	movs	r1, #0
 80075ce:	2206      	movs	r2, #6
 80075d0:	f000 f8c7 	bl	8007762 <memset>
        for (j = 0U; j < tv->n_active; j++) {
 80075d4:	2300      	movs	r3, #0
 80075d6:	75bb      	strb	r3, [r7, #22]
 80075d8:	e013      	b.n	8007602 <run_all_loopback_tests+0x7e>
            expected[tv->payload_off + j] = s_seed6[tv->payload_off + j];
 80075da:	693b      	ldr	r3, [r7, #16]
 80075dc:	795b      	ldrb	r3, [r3, #5]
 80075de:	461a      	mov	r2, r3
 80075e0:	7dbb      	ldrb	r3, [r7, #22]
 80075e2:	4413      	add	r3, r2
 80075e4:	693a      	ldr	r2, [r7, #16]
 80075e6:	7952      	ldrb	r2, [r2, #5]
 80075e8:	4611      	mov	r1, r2
 80075ea:	7dba      	ldrb	r2, [r7, #22]
 80075ec:	440a      	add	r2, r1
 80075ee:	4915      	ldr	r1, [pc, #84]	; (8007644 <run_all_loopback_tests+0xc0>)
 80075f0:	5c8a      	ldrb	r2, [r1, r2]
 80075f2:	f107 0118 	add.w	r1, r7, #24
 80075f6:	440b      	add	r3, r1
 80075f8:	f803 2c14 	strb.w	r2, [r3, #-20]
               s_seed6 + tv->payload_off,
               tv->n_active);

        /* Build expected: seed at [payload_off .. payload_off+n_active), zeros elsewhere */
        memset(expected, 0U, 6U);
        for (j = 0U; j < tv->n_active; j++) {
 80075fc:	7dbb      	ldrb	r3, [r7, #22]
 80075fe:	3301      	adds	r3, #1
 8007600:	75bb      	strb	r3, [r7, #22]
 8007602:	693b      	ldr	r3, [r7, #16]
 8007604:	791b      	ldrb	r3, [r3, #4]
 8007606:	7dba      	ldrb	r2, [r7, #22]
 8007608:	429a      	cmp	r2, r3
 800760a:	d3e6      	bcc.n	80075da <run_all_loopback_tests+0x56>
            expected[tv->payload_off + j] = s_seed6[tv->payload_off + j];
        }

        loopback_test(tv->data_id, expected,
 800760c:	693b      	ldr	r3, [r7, #16]
 800760e:	8819      	ldrh	r1, [r3, #0]
 8007610:	693b      	ldr	r3, [r7, #16]
 8007612:	795c      	ldrb	r4, [r3, #5]
                      tv->payload_off, (uint8_t)(tv->payload_off + tv->n_active));
 8007614:	693b      	ldr	r3, [r7, #16]
 8007616:	795a      	ldrb	r2, [r3, #5]
 8007618:	693b      	ldr	r3, [r7, #16]
 800761a:	791b      	ldrb	r3, [r3, #4]
        memset(expected, 0U, 6U);
        for (j = 0U; j < tv->n_active; j++) {
            expected[tv->payload_off + j] = s_seed6[tv->payload_off + j];
        }

        loopback_test(tv->data_id, expected,
 800761c:	4413      	add	r3, r2
 800761e:	b2db      	uxtb	r3, r3
 8007620:	1d3a      	adds	r2, r7, #4
 8007622:	4608      	mov	r0, r1
 8007624:	4611      	mov	r1, r2
 8007626:	4622      	mov	r2, r4
 8007628:	f7ff fec6 	bl	80073b8 <loopback_test>
static void run_all_loopback_tests(void)
{
    uint8_t expected[6];
    uint8_t i, j;

    for (i = 0U; i < TEST_TABLE_LEN; i++)
 800762c:	7dfb      	ldrb	r3, [r7, #23]
 800762e:	3301      	adds	r3, #1
 8007630:	75fb      	strb	r3, [r7, #23]
 8007632:	7dfb      	ldrb	r3, [r7, #23]
 8007634:	2ba0      	cmp	r3, #160	; 0xa0
 8007636:	d9ab      	bls.n	8007590 <run_all_loopback_tests+0xc>
        }

        loopback_test(tv->data_id, expected,
                      tv->payload_off, (uint8_t)(tv->payload_off + tv->n_active));
    }
}
 8007638:	371c      	adds	r7, #28
 800763a:	46bd      	mov	sp, r7
 800763c:	bd90      	pop	{r4, r7, pc}
 800763e:	bf00      	nop
 8007640:	080084d4 	.word	0x080084d4
 8007644:	080084cc 	.word	0x080084cc

08007648 <main>:

int main(void)
{
 8007648:	b580      	push	{r7, lr}
 800764a:	b082      	sub	sp, #8
 800764c:	af00      	add	r7, sp, #0
    DAVE_STATUS_t app_status;

    app_status = DAVE_Init();
 800764e:	f7ff fdc5 	bl	80071dc <DAVE_Init>
 8007652:	4603      	mov	r3, r0
 8007654:	71fb      	strb	r3, [r7, #7]
    initialise_monitor_handles();
 8007656:	f000 fcfb 	bl	8008050 <initialise_monitor_handles>

    if (app_status == DAVE_STATUS_FAILURE)
 800765a:	79fb      	ldrb	r3, [r7, #7]
 800765c:	2b01      	cmp	r3, #1
 800765e:	d103      	bne.n	8007668 <main+0x20>
    {
        XMC_DEBUG("DAVE APPs initialization failed\n");
 8007660:	4807      	ldr	r0, [pc, #28]	; (8007680 <main+0x38>)
 8007662:	f000 f8e5 	bl	8007830 <puts>
        while (1U) {}
 8007666:	e7fe      	b.n	8007666 <main+0x1e>
    }
    XMC_DEBUG("hello world\n");
 8007668:	4806      	ldr	r0, [pc, #24]	; (8007684 <main+0x3c>)
 800766a:	f000 f8e1 	bl	8007830 <puts>

    PMB_Emulator_Init();
 800766e:	f7fd ff3b 	bl	80054e8 <PMB_Emulator_Init>
    fixture_init();
 8007672:	f7ff fe13 	bl	800729c <fixture_init>

    run_all_loopback_tests();
 8007676:	f7ff ff85 	bl	8007584 <run_all_loopback_tests>

    /* All tests passed — blink SOS continuously */
    while (1U)
    {
        blink_sos();
 800767a:	f7ff ff43 	bl	8007504 <blink_sos>
    }
 800767e:	e7fc      	b.n	800767a <main+0x32>
 8007680:	080084a0 	.word	0x080084a0
 8007684:	080084c0 	.word	0x080084c0

08007688 <CAN0_0_IRQHandler>:
}

/* ISR for MO4 (FIXTURE_RX_MO) service request — fires when a PMB response
 * arrives on the fixture RX during loopback verification. */
void CAN_IRQHandler(void)
{
 8007688:	b580      	push	{r7, lr}
 800768a:	b082      	sub	sp, #8
 800768c:	af00      	add	r7, sp, #0
    uint8_t i;
    XMC_CAN_MO_t *mo = MULTICAN_CONFIG_0.lmobj_ptr[FIXTURE_RX_MO]->mo_ptr;
 800768e:	4b14      	ldr	r3, [pc, #80]	; (80076e0 <CAN0_0_IRQHandler+0x58>)
 8007690:	695b      	ldr	r3, [r3, #20]
 8007692:	681b      	ldr	r3, [r3, #0]
 8007694:	603b      	str	r3, [r7, #0]

    XMC_CAN_MO_Receive(mo);
 8007696:	6838      	ldr	r0, [r7, #0]
 8007698:	f7ff f82c 	bl	80066f4 <XMC_CAN_MO_Receive>
    s_fixture_rx_id  = mo->can_identifier;
 800769c:	683b      	ldr	r3, [r7, #0]
 800769e:	685b      	ldr	r3, [r3, #4]
 80076a0:	f3c3 031c 	ubfx	r3, r3, #0, #29
 80076a4:	461a      	mov	r2, r3
 80076a6:	4b0f      	ldr	r3, [pc, #60]	; (80076e4 <CAN0_0_IRQHandler+0x5c>)
 80076a8:	601a      	str	r2, [r3, #0]
    s_fixture_rx_dlc = mo->can_data_length;
 80076aa:	683b      	ldr	r3, [r7, #0]
 80076ac:	7b1a      	ldrb	r2, [r3, #12]
 80076ae:	4b0e      	ldr	r3, [pc, #56]	; (80076e8 <CAN0_0_IRQHandler+0x60>)
 80076b0:	701a      	strb	r2, [r3, #0]
    for (i = 0U; i < 8U; i++) s_fixture_rx_data[i] = mo->can_data_byte[i];
 80076b2:	2300      	movs	r3, #0
 80076b4:	71fb      	strb	r3, [r7, #7]
 80076b6:	e009      	b.n	80076cc <CAN0_0_IRQHandler+0x44>
 80076b8:	79fb      	ldrb	r3, [r7, #7]
 80076ba:	79fa      	ldrb	r2, [r7, #7]
 80076bc:	6839      	ldr	r1, [r7, #0]
 80076be:	440a      	add	r2, r1
 80076c0:	7c11      	ldrb	r1, [r2, #16]
 80076c2:	4a0a      	ldr	r2, [pc, #40]	; (80076ec <CAN0_0_IRQHandler+0x64>)
 80076c4:	54d1      	strb	r1, [r2, r3]
 80076c6:	79fb      	ldrb	r3, [r7, #7]
 80076c8:	3301      	adds	r3, #1
 80076ca:	71fb      	strb	r3, [r7, #7]
 80076cc:	79fb      	ldrb	r3, [r7, #7]
 80076ce:	2b07      	cmp	r3, #7
 80076d0:	d9f2      	bls.n	80076b8 <CAN0_0_IRQHandler+0x30>
    s_fixture_rx_ready = 1U;
 80076d2:	4b07      	ldr	r3, [pc, #28]	; (80076f0 <CAN0_0_IRQHandler+0x68>)
 80076d4:	2201      	movs	r2, #1
 80076d6:	701a      	strb	r2, [r3, #0]
}
 80076d8:	3708      	adds	r7, #8
 80076da:	46bd      	mov	sp, r7
 80076dc:	bd80      	pop	{r7, pc}
 80076de:	bf00      	nop
 80076e0:	1ffe8918 	.word	0x1ffe8918
 80076e4:	1ffe8ca4 	.word	0x1ffe8ca4
 80076e8:	1ffe8ca0 	.word	0x1ffe8ca0
 80076ec:	1ffe8c98 	.word	0x1ffe8c98
 80076f0:	1ffe8c94 	.word	0x1ffe8c94

080076f4 <__errno>:
 80076f4:	4b01      	ldr	r3, [pc, #4]	; (80076fc <__errno+0x8>)
 80076f6:	6818      	ldr	r0, [r3, #0]
 80076f8:	4770      	bx	lr
 80076fa:	bf00      	nop
 80076fc:	1ffe89ac 	.word	0x1ffe89ac

08007700 <__libc_init_array>:
 8007700:	b570      	push	{r4, r5, r6, lr}
 8007702:	4b0e      	ldr	r3, [pc, #56]	; (800773c <__libc_init_array+0x3c>)
 8007704:	4c0e      	ldr	r4, [pc, #56]	; (8007740 <__libc_init_array+0x40>)
 8007706:	1ae4      	subs	r4, r4, r3
 8007708:	10a4      	asrs	r4, r4, #2
 800770a:	2500      	movs	r5, #0
 800770c:	461e      	mov	r6, r3
 800770e:	42a5      	cmp	r5, r4
 8007710:	d004      	beq.n	800771c <__libc_init_array+0x1c>
 8007712:	f856 3025 	ldr.w	r3, [r6, r5, lsl #2]
 8007716:	4798      	blx	r3
 8007718:	3501      	adds	r5, #1
 800771a:	e7f8      	b.n	800770e <__libc_init_array+0xe>
 800771c:	f7ff f910 	bl	8006940 <_init>
 8007720:	4c08      	ldr	r4, [pc, #32]	; (8007744 <__libc_init_array+0x44>)
 8007722:	4b09      	ldr	r3, [pc, #36]	; (8007748 <__libc_init_array+0x48>)
 8007724:	1ae4      	subs	r4, r4, r3
 8007726:	10a4      	asrs	r4, r4, #2
 8007728:	2500      	movs	r5, #0
 800772a:	461e      	mov	r6, r3
 800772c:	42a5      	cmp	r5, r4
 800772e:	d004      	beq.n	800773a <__libc_init_array+0x3a>
 8007730:	f856 3025 	ldr.w	r3, [r6, r5, lsl #2]
 8007734:	4798      	blx	r3
 8007736:	3501      	adds	r5, #1
 8007738:	e7f8      	b.n	800772c <__libc_init_array+0x2c>
 800773a:	bd70      	pop	{r4, r5, r6, pc}
 800773c:	1ffe89b0 	.word	0x1ffe89b0
 8007740:	1ffe89b0 	.word	0x1ffe89b0
 8007744:	1ffe89b0 	.word	0x1ffe89b0
 8007748:	1ffe89b0 	.word	0x1ffe89b0

0800774c <memcpy>:
 800774c:	b510      	push	{r4, lr}
 800774e:	1e43      	subs	r3, r0, #1
 8007750:	440a      	add	r2, r1
 8007752:	4291      	cmp	r1, r2
 8007754:	d004      	beq.n	8007760 <memcpy+0x14>
 8007756:	f811 4b01 	ldrb.w	r4, [r1], #1
 800775a:	f803 4f01 	strb.w	r4, [r3, #1]!
 800775e:	e7f8      	b.n	8007752 <memcpy+0x6>
 8007760:	bd10      	pop	{r4, pc}

08007762 <memset>:
 8007762:	4402      	add	r2, r0
 8007764:	4603      	mov	r3, r0
 8007766:	4293      	cmp	r3, r2
 8007768:	d002      	beq.n	8007770 <memset+0xe>
 800776a:	f803 1b01 	strb.w	r1, [r3], #1
 800776e:	e7fa      	b.n	8007766 <memset+0x4>
 8007770:	4770      	bx	lr

08007772 <_puts_r>:
 8007772:	b570      	push	{r4, r5, r6, lr}
 8007774:	460e      	mov	r6, r1
 8007776:	4605      	mov	r5, r0
 8007778:	b118      	cbz	r0, 8007782 <_puts_r+0x10>
 800777a:	6983      	ldr	r3, [r0, #24]
 800777c:	b90b      	cbnz	r3, 8007782 <_puts_r+0x10>
 800777e:	f000 fa0d 	bl	8007b9c <__sinit>
 8007782:	68ac      	ldr	r4, [r5, #8]
 8007784:	89a3      	ldrh	r3, [r4, #12]
 8007786:	0719      	lsls	r1, r3, #28
 8007788:	d501      	bpl.n	800778e <_puts_r+0x1c>
 800778a:	6923      	ldr	r3, [r4, #16]
 800778c:	b983      	cbnz	r3, 80077b0 <_puts_r+0x3e>
 800778e:	4628      	mov	r0, r5
 8007790:	4621      	mov	r1, r4
 8007792:	f000 f8a9 	bl	80078e8 <__swsetup_r>
 8007796:	b158      	cbz	r0, 80077b0 <_puts_r+0x3e>
 8007798:	f04f 30ff 	mov.w	r0, #4294967295
 800779c:	bd70      	pop	{r4, r5, r6, pc}
 800779e:	2b00      	cmp	r3, #0
 80077a0:	db0e      	blt.n	80077c0 <_puts_r+0x4e>
 80077a2:	6823      	ldr	r3, [r4, #0]
 80077a4:	f816 2c01 	ldrb.w	r2, [r6, #-1]
 80077a8:	701a      	strb	r2, [r3, #0]
 80077aa:	6823      	ldr	r3, [r4, #0]
 80077ac:	3301      	adds	r3, #1
 80077ae:	6023      	str	r3, [r4, #0]
 80077b0:	68a3      	ldr	r3, [r4, #8]
 80077b2:	f816 2b01 	ldrb.w	r2, [r6], #1
 80077b6:	3b01      	subs	r3, #1
 80077b8:	60a3      	str	r3, [r4, #8]
 80077ba:	2a00      	cmp	r2, #0
 80077bc:	d1ef      	bne.n	800779e <_puts_r+0x2c>
 80077be:	e016      	b.n	80077ee <_puts_r+0x7c>
 80077c0:	69a2      	ldr	r2, [r4, #24]
 80077c2:	4293      	cmp	r3, r2
 80077c4:	db09      	blt.n	80077da <_puts_r+0x68>
 80077c6:	6823      	ldr	r3, [r4, #0]
 80077c8:	f816 2c01 	ldrb.w	r2, [r6, #-1]
 80077cc:	701a      	strb	r2, [r3, #0]
 80077ce:	6823      	ldr	r3, [r4, #0]
 80077d0:	7819      	ldrb	r1, [r3, #0]
 80077d2:	290a      	cmp	r1, #10
 80077d4:	d1ea      	bne.n	80077ac <_puts_r+0x3a>
 80077d6:	4628      	mov	r0, r5
 80077d8:	e002      	b.n	80077e0 <_puts_r+0x6e>
 80077da:	f816 1c01 	ldrb.w	r1, [r6, #-1]
 80077de:	4628      	mov	r0, r5
 80077e0:	4622      	mov	r2, r4
 80077e2:	f000 f82d 	bl	8007840 <__swbuf_r>
 80077e6:	1c42      	adds	r2, r0, #1
 80077e8:	4250      	negs	r0, r2
 80077ea:	4150      	adcs	r0, r2
 80077ec:	e7d3      	b.n	8007796 <_puts_r+0x24>
 80077ee:	2b00      	cmp	r3, #0
 80077f0:	da15      	bge.n	800781e <_puts_r+0xac>
 80077f2:	69a2      	ldr	r2, [r4, #24]
 80077f4:	4293      	cmp	r3, r2
 80077f6:	db08      	blt.n	800780a <_puts_r+0x98>
 80077f8:	6823      	ldr	r3, [r4, #0]
 80077fa:	220a      	movs	r2, #10
 80077fc:	701a      	strb	r2, [r3, #0]
 80077fe:	6823      	ldr	r3, [r4, #0]
 8007800:	7819      	ldrb	r1, [r3, #0]
 8007802:	4291      	cmp	r1, r2
 8007804:	d10f      	bne.n	8007826 <_puts_r+0xb4>
 8007806:	4628      	mov	r0, r5
 8007808:	e001      	b.n	800780e <_puts_r+0x9c>
 800780a:	4628      	mov	r0, r5
 800780c:	210a      	movs	r1, #10
 800780e:	4622      	mov	r2, r4
 8007810:	f000 f816 	bl	8007840 <__swbuf_r>
 8007814:	1c43      	adds	r3, r0, #1
 8007816:	4258      	negs	r0, r3
 8007818:	4158      	adcs	r0, r3
 800781a:	b130      	cbz	r0, 800782a <_puts_r+0xb8>
 800781c:	e7bc      	b.n	8007798 <_puts_r+0x26>
 800781e:	6823      	ldr	r3, [r4, #0]
 8007820:	220a      	movs	r2, #10
 8007822:	701a      	strb	r2, [r3, #0]
 8007824:	6823      	ldr	r3, [r4, #0]
 8007826:	3301      	adds	r3, #1
 8007828:	6023      	str	r3, [r4, #0]
 800782a:	200a      	movs	r0, #10
 800782c:	bd70      	pop	{r4, r5, r6, pc}
	...

08007830 <puts>:
 8007830:	4b02      	ldr	r3, [pc, #8]	; (800783c <puts+0xc>)
 8007832:	4601      	mov	r1, r0
 8007834:	6818      	ldr	r0, [r3, #0]
 8007836:	f7ff bf9c 	b.w	8007772 <_puts_r>
 800783a:	bf00      	nop
 800783c:	1ffe89ac 	.word	0x1ffe89ac

08007840 <__swbuf_r>:
 8007840:	b570      	push	{r4, r5, r6, lr}
 8007842:	460d      	mov	r5, r1
 8007844:	4614      	mov	r4, r2
 8007846:	4606      	mov	r6, r0
 8007848:	b118      	cbz	r0, 8007852 <__swbuf_r+0x12>
 800784a:	6983      	ldr	r3, [r0, #24]
 800784c:	b90b      	cbnz	r3, 8007852 <__swbuf_r+0x12>
 800784e:	f000 f9a5 	bl	8007b9c <__sinit>
 8007852:	4b22      	ldr	r3, [pc, #136]	; (80078dc <__swbuf_r+0x9c>)
 8007854:	429c      	cmp	r4, r3
 8007856:	d101      	bne.n	800785c <__swbuf_r+0x1c>
 8007858:	6874      	ldr	r4, [r6, #4]
 800785a:	e008      	b.n	800786e <__swbuf_r+0x2e>
 800785c:	4b20      	ldr	r3, [pc, #128]	; (80078e0 <__swbuf_r+0xa0>)
 800785e:	429c      	cmp	r4, r3
 8007860:	d101      	bne.n	8007866 <__swbuf_r+0x26>
 8007862:	68b4      	ldr	r4, [r6, #8]
 8007864:	e003      	b.n	800786e <__swbuf_r+0x2e>
 8007866:	4b1f      	ldr	r3, [pc, #124]	; (80078e4 <__swbuf_r+0xa4>)
 8007868:	429c      	cmp	r4, r3
 800786a:	bf08      	it	eq
 800786c:	68f4      	ldreq	r4, [r6, #12]
 800786e:	69a3      	ldr	r3, [r4, #24]
 8007870:	60a3      	str	r3, [r4, #8]
 8007872:	89a3      	ldrh	r3, [r4, #12]
 8007874:	071a      	lsls	r2, r3, #28
 8007876:	d509      	bpl.n	800788c <__swbuf_r+0x4c>
 8007878:	6923      	ldr	r3, [r4, #16]
 800787a:	b13b      	cbz	r3, 800788c <__swbuf_r+0x4c>
 800787c:	6823      	ldr	r3, [r4, #0]
 800787e:	6920      	ldr	r0, [r4, #16]
 8007880:	1a18      	subs	r0, r3, r0
 8007882:	6963      	ldr	r3, [r4, #20]
 8007884:	4298      	cmp	r0, r3
 8007886:	b2ed      	uxtb	r5, r5
 8007888:	db0f      	blt.n	80078aa <__swbuf_r+0x6a>
 800788a:	e008      	b.n	800789e <__swbuf_r+0x5e>
 800788c:	4630      	mov	r0, r6
 800788e:	4621      	mov	r1, r4
 8007890:	f000 f82a 	bl	80078e8 <__swsetup_r>
 8007894:	2800      	cmp	r0, #0
 8007896:	d0f1      	beq.n	800787c <__swbuf_r+0x3c>
 8007898:	f04f 30ff 	mov.w	r0, #4294967295
 800789c:	bd70      	pop	{r4, r5, r6, pc}
 800789e:	4630      	mov	r0, r6
 80078a0:	4621      	mov	r1, r4
 80078a2:	f000 f911 	bl	8007ac8 <_fflush_r>
 80078a6:	2800      	cmp	r0, #0
 80078a8:	d1f6      	bne.n	8007898 <__swbuf_r+0x58>
 80078aa:	68a3      	ldr	r3, [r4, #8]
 80078ac:	3b01      	subs	r3, #1
 80078ae:	60a3      	str	r3, [r4, #8]
 80078b0:	6823      	ldr	r3, [r4, #0]
 80078b2:	1c5a      	adds	r2, r3, #1
 80078b4:	6022      	str	r2, [r4, #0]
 80078b6:	701d      	strb	r5, [r3, #0]
 80078b8:	6963      	ldr	r3, [r4, #20]
 80078ba:	3001      	adds	r0, #1
 80078bc:	4298      	cmp	r0, r3
 80078be:	d004      	beq.n	80078ca <__swbuf_r+0x8a>
 80078c0:	89a3      	ldrh	r3, [r4, #12]
 80078c2:	07db      	lsls	r3, r3, #31
 80078c4:	d507      	bpl.n	80078d6 <__swbuf_r+0x96>
 80078c6:	2d0a      	cmp	r5, #10
 80078c8:	d105      	bne.n	80078d6 <__swbuf_r+0x96>
 80078ca:	4630      	mov	r0, r6
 80078cc:	4621      	mov	r1, r4
 80078ce:	f000 f8fb 	bl	8007ac8 <_fflush_r>
 80078d2:	2800      	cmp	r0, #0
 80078d4:	d1e0      	bne.n	8007898 <__swbuf_r+0x58>
 80078d6:	4628      	mov	r0, r5
 80078d8:	bd70      	pop	{r4, r5, r6, pc}
 80078da:	bf00      	nop
 80078dc:	080088a4 	.word	0x080088a4
 80078e0:	080088c4 	.word	0x080088c4
 80078e4:	080088e4 	.word	0x080088e4

080078e8 <__swsetup_r>:
 80078e8:	4b31      	ldr	r3, [pc, #196]	; (80079b0 <__swsetup_r+0xc8>)
 80078ea:	b570      	push	{r4, r5, r6, lr}
 80078ec:	681d      	ldr	r5, [r3, #0]
 80078ee:	4606      	mov	r6, r0
 80078f0:	460c      	mov	r4, r1
 80078f2:	b125      	cbz	r5, 80078fe <__swsetup_r+0x16>
 80078f4:	69ab      	ldr	r3, [r5, #24]
 80078f6:	b913      	cbnz	r3, 80078fe <__swsetup_r+0x16>
 80078f8:	4628      	mov	r0, r5
 80078fa:	f000 f94f 	bl	8007b9c <__sinit>
 80078fe:	4b2d      	ldr	r3, [pc, #180]	; (80079b4 <__swsetup_r+0xcc>)
 8007900:	429c      	cmp	r4, r3
 8007902:	d101      	bne.n	8007908 <__swsetup_r+0x20>
 8007904:	686c      	ldr	r4, [r5, #4]
 8007906:	e008      	b.n	800791a <__swsetup_r+0x32>
 8007908:	4b2b      	ldr	r3, [pc, #172]	; (80079b8 <__swsetup_r+0xd0>)
 800790a:	429c      	cmp	r4, r3
 800790c:	d101      	bne.n	8007912 <__swsetup_r+0x2a>
 800790e:	68ac      	ldr	r4, [r5, #8]
 8007910:	e003      	b.n	800791a <__swsetup_r+0x32>
 8007912:	4b2a      	ldr	r3, [pc, #168]	; (80079bc <__swsetup_r+0xd4>)
 8007914:	429c      	cmp	r4, r3
 8007916:	bf08      	it	eq
 8007918:	68ec      	ldreq	r4, [r5, #12]
 800791a:	89a3      	ldrh	r3, [r4, #12]
 800791c:	b29a      	uxth	r2, r3
 800791e:	0711      	lsls	r1, r2, #28
 8007920:	d41d      	bmi.n	800795e <__swsetup_r+0x76>
 8007922:	06d5      	lsls	r5, r2, #27
 8007924:	d402      	bmi.n	800792c <__swsetup_r+0x44>
 8007926:	2209      	movs	r2, #9
 8007928:	6032      	str	r2, [r6, #0]
 800792a:	e038      	b.n	800799e <__swsetup_r+0xb6>
 800792c:	0750      	lsls	r0, r2, #29
 800792e:	d512      	bpl.n	8007956 <__swsetup_r+0x6e>
 8007930:	6b61      	ldr	r1, [r4, #52]	; 0x34
 8007932:	b141      	cbz	r1, 8007946 <__swsetup_r+0x5e>
 8007934:	f104 0344 	add.w	r3, r4, #68	; 0x44
 8007938:	4299      	cmp	r1, r3
 800793a:	d002      	beq.n	8007942 <__swsetup_r+0x5a>
 800793c:	4630      	mov	r0, r6
 800793e:	f000 fa03 	bl	8007d48 <_free_r>
 8007942:	2300      	movs	r3, #0
 8007944:	6363      	str	r3, [r4, #52]	; 0x34
 8007946:	89a3      	ldrh	r3, [r4, #12]
 8007948:	f023 0324 	bic.w	r3, r3, #36	; 0x24
 800794c:	81a3      	strh	r3, [r4, #12]
 800794e:	2300      	movs	r3, #0
 8007950:	6063      	str	r3, [r4, #4]
 8007952:	6923      	ldr	r3, [r4, #16]
 8007954:	6023      	str	r3, [r4, #0]
 8007956:	89a3      	ldrh	r3, [r4, #12]
 8007958:	f043 0308 	orr.w	r3, r3, #8
 800795c:	81a3      	strh	r3, [r4, #12]
 800795e:	6923      	ldr	r3, [r4, #16]
 8007960:	b94b      	cbnz	r3, 8007976 <__swsetup_r+0x8e>
 8007962:	89a3      	ldrh	r3, [r4, #12]
 8007964:	f403 7320 	and.w	r3, r3, #640	; 0x280
 8007968:	f5b3 7f00 	cmp.w	r3, #512	; 0x200
 800796c:	d003      	beq.n	8007976 <__swsetup_r+0x8e>
 800796e:	4630      	mov	r0, r6
 8007970:	4621      	mov	r1, r4
 8007972:	f000 f99b 	bl	8007cac <__smakebuf_r>
 8007976:	89a3      	ldrh	r3, [r4, #12]
 8007978:	f013 0201 	ands.w	r2, r3, #1
 800797c:	d005      	beq.n	800798a <__swsetup_r+0xa2>
 800797e:	2200      	movs	r2, #0
 8007980:	60a2      	str	r2, [r4, #8]
 8007982:	6962      	ldr	r2, [r4, #20]
 8007984:	4252      	negs	r2, r2
 8007986:	61a2      	str	r2, [r4, #24]
 8007988:	e003      	b.n	8007992 <__swsetup_r+0xaa>
 800798a:	0799      	lsls	r1, r3, #30
 800798c:	bf58      	it	pl
 800798e:	6962      	ldrpl	r2, [r4, #20]
 8007990:	60a2      	str	r2, [r4, #8]
 8007992:	6922      	ldr	r2, [r4, #16]
 8007994:	b94a      	cbnz	r2, 80079aa <__swsetup_r+0xc2>
 8007996:	f003 0080 	and.w	r0, r3, #128	; 0x80
 800799a:	b280      	uxth	r0, r0
 800799c:	b130      	cbz	r0, 80079ac <__swsetup_r+0xc4>
 800799e:	f043 0340 	orr.w	r3, r3, #64	; 0x40
 80079a2:	81a3      	strh	r3, [r4, #12]
 80079a4:	f04f 30ff 	mov.w	r0, #4294967295
 80079a8:	bd70      	pop	{r4, r5, r6, pc}
 80079aa:	2000      	movs	r0, #0
 80079ac:	bd70      	pop	{r4, r5, r6, pc}
 80079ae:	bf00      	nop
 80079b0:	1ffe89ac 	.word	0x1ffe89ac
 80079b4:	080088a4 	.word	0x080088a4
 80079b8:	080088c4 	.word	0x080088c4
 80079bc:	080088e4 	.word	0x080088e4

080079c0 <__sflush_r>:
 80079c0:	898a      	ldrh	r2, [r1, #12]
 80079c2:	e92d 41f0 	stmdb	sp!, {r4, r5, r6, r7, r8, lr}
 80079c6:	4605      	mov	r5, r0
 80079c8:	0710      	lsls	r0, r2, #28
 80079ca:	460c      	mov	r4, r1
 80079cc:	d457      	bmi.n	8007a7e <__sflush_r+0xbe>
 80079ce:	684b      	ldr	r3, [r1, #4]
 80079d0:	2b00      	cmp	r3, #0
 80079d2:	dc02      	bgt.n	80079da <__sflush_r+0x1a>
 80079d4:	6c0b      	ldr	r3, [r1, #64]	; 0x40
 80079d6:	2b00      	cmp	r3, #0
 80079d8:	dd18      	ble.n	8007a0c <__sflush_r+0x4c>
 80079da:	6ae6      	ldr	r6, [r4, #44]	; 0x2c
 80079dc:	b1b6      	cbz	r6, 8007a0c <__sflush_r+0x4c>
 80079de:	f402 5280 	and.w	r2, r2, #4096	; 0x1000
 80079e2:	2300      	movs	r3, #0
 80079e4:	b292      	uxth	r2, r2
 80079e6:	682f      	ldr	r7, [r5, #0]
 80079e8:	602b      	str	r3, [r5, #0]
 80079ea:	b10a      	cbz	r2, 80079f0 <__sflush_r+0x30>
 80079ec:	6d62      	ldr	r2, [r4, #84]	; 0x54
 80079ee:	e010      	b.n	8007a12 <__sflush_r+0x52>
 80079f0:	6a21      	ldr	r1, [r4, #32]
 80079f2:	4628      	mov	r0, r5
 80079f4:	2301      	movs	r3, #1
 80079f6:	47b0      	blx	r6
 80079f8:	1c41      	adds	r1, r0, #1
 80079fa:	4602      	mov	r2, r0
 80079fc:	d109      	bne.n	8007a12 <__sflush_r+0x52>
 80079fe:	682b      	ldr	r3, [r5, #0]
 8007a00:	b13b      	cbz	r3, 8007a12 <__sflush_r+0x52>
 8007a02:	2b1d      	cmp	r3, #29
 8007a04:	d001      	beq.n	8007a0a <__sflush_r+0x4a>
 8007a06:	2b16      	cmp	r3, #22
 8007a08:	d147      	bne.n	8007a9a <__sflush_r+0xda>
 8007a0a:	602f      	str	r7, [r5, #0]
 8007a0c:	2000      	movs	r0, #0
 8007a0e:	e8bd 81f0 	ldmia.w	sp!, {r4, r5, r6, r7, r8, pc}
 8007a12:	89a3      	ldrh	r3, [r4, #12]
 8007a14:	075b      	lsls	r3, r3, #29
 8007a16:	d505      	bpl.n	8007a24 <__sflush_r+0x64>
 8007a18:	6863      	ldr	r3, [r4, #4]
 8007a1a:	1ad2      	subs	r2, r2, r3
 8007a1c:	6b63      	ldr	r3, [r4, #52]	; 0x34
 8007a1e:	b10b      	cbz	r3, 8007a24 <__sflush_r+0x64>
 8007a20:	6c23      	ldr	r3, [r4, #64]	; 0x40
 8007a22:	1ad2      	subs	r2, r2, r3
 8007a24:	6ae6      	ldr	r6, [r4, #44]	; 0x2c
 8007a26:	6a21      	ldr	r1, [r4, #32]
 8007a28:	2300      	movs	r3, #0
 8007a2a:	4628      	mov	r0, r5
 8007a2c:	47b0      	blx	r6
 8007a2e:	1c46      	adds	r6, r0, #1
 8007a30:	89a3      	ldrh	r3, [r4, #12]
 8007a32:	d105      	bne.n	8007a40 <__sflush_r+0x80>
 8007a34:	682a      	ldr	r2, [r5, #0]
 8007a36:	b11a      	cbz	r2, 8007a40 <__sflush_r+0x80>
 8007a38:	2a1d      	cmp	r2, #29
 8007a3a:	d001      	beq.n	8007a40 <__sflush_r+0x80>
 8007a3c:	2a16      	cmp	r2, #22
 8007a3e:	d119      	bne.n	8007a74 <__sflush_r+0xb4>
 8007a40:	2200      	movs	r2, #0
 8007a42:	6062      	str	r2, [r4, #4]
 8007a44:	04d9      	lsls	r1, r3, #19
 8007a46:	6922      	ldr	r2, [r4, #16]
 8007a48:	6022      	str	r2, [r4, #0]
 8007a4a:	d504      	bpl.n	8007a56 <__sflush_r+0x96>
 8007a4c:	1c42      	adds	r2, r0, #1
 8007a4e:	d101      	bne.n	8007a54 <__sflush_r+0x94>
 8007a50:	682b      	ldr	r3, [r5, #0]
 8007a52:	b903      	cbnz	r3, 8007a56 <__sflush_r+0x96>
 8007a54:	6560      	str	r0, [r4, #84]	; 0x54
 8007a56:	6b61      	ldr	r1, [r4, #52]	; 0x34
 8007a58:	602f      	str	r7, [r5, #0]
 8007a5a:	2900      	cmp	r1, #0
 8007a5c:	d0d6      	beq.n	8007a0c <__sflush_r+0x4c>
 8007a5e:	f104 0344 	add.w	r3, r4, #68	; 0x44
 8007a62:	4299      	cmp	r1, r3
 8007a64:	d002      	beq.n	8007a6c <__sflush_r+0xac>
 8007a66:	4628      	mov	r0, r5
 8007a68:	f000 f96e 	bl	8007d48 <_free_r>
 8007a6c:	2000      	movs	r0, #0
 8007a6e:	6360      	str	r0, [r4, #52]	; 0x34
 8007a70:	e8bd 81f0 	ldmia.w	sp!, {r4, r5, r6, r7, r8, pc}
 8007a74:	f043 0340 	orr.w	r3, r3, #64	; 0x40
 8007a78:	81a3      	strh	r3, [r4, #12]
 8007a7a:	e8bd 81f0 	ldmia.w	sp!, {r4, r5, r6, r7, r8, pc}
 8007a7e:	690f      	ldr	r7, [r1, #16]
 8007a80:	2f00      	cmp	r7, #0
 8007a82:	d0c3      	beq.n	8007a0c <__sflush_r+0x4c>
 8007a84:	0793      	lsls	r3, r2, #30
 8007a86:	680e      	ldr	r6, [r1, #0]
 8007a88:	bf08      	it	eq
 8007a8a:	694b      	ldreq	r3, [r1, #20]
 8007a8c:	600f      	str	r7, [r1, #0]
 8007a8e:	bf18      	it	ne
 8007a90:	2300      	movne	r3, #0
 8007a92:	ebc7 0806 	rsb	r8, r7, r6
 8007a96:	608b      	str	r3, [r1, #8]
 8007a98:	e012      	b.n	8007ac0 <__sflush_r+0x100>
 8007a9a:	89a3      	ldrh	r3, [r4, #12]
 8007a9c:	f043 0340 	orr.w	r3, r3, #64	; 0x40
 8007aa0:	81a3      	strh	r3, [r4, #12]
 8007aa2:	f04f 30ff 	mov.w	r0, #4294967295
 8007aa6:	e8bd 81f0 	ldmia.w	sp!, {r4, r5, r6, r7, r8, pc}
 8007aaa:	4628      	mov	r0, r5
 8007aac:	6a21      	ldr	r1, [r4, #32]
 8007aae:	6aa6      	ldr	r6, [r4, #40]	; 0x28
 8007ab0:	463a      	mov	r2, r7
 8007ab2:	4643      	mov	r3, r8
 8007ab4:	47b0      	blx	r6
 8007ab6:	2800      	cmp	r0, #0
 8007ab8:	ddef      	ble.n	8007a9a <__sflush_r+0xda>
 8007aba:	4407      	add	r7, r0
 8007abc:	ebc0 0808 	rsb	r8, r0, r8
 8007ac0:	f1b8 0f00 	cmp.w	r8, #0
 8007ac4:	dcf1      	bgt.n	8007aaa <__sflush_r+0xea>
 8007ac6:	e7a1      	b.n	8007a0c <__sflush_r+0x4c>

08007ac8 <_fflush_r>:
 8007ac8:	b538      	push	{r3, r4, r5, lr}
 8007aca:	690b      	ldr	r3, [r1, #16]
 8007acc:	4605      	mov	r5, r0
 8007ace:	460c      	mov	r4, r1
 8007ad0:	b1db      	cbz	r3, 8007b0a <_fflush_r+0x42>
 8007ad2:	b118      	cbz	r0, 8007adc <_fflush_r+0x14>
 8007ad4:	6983      	ldr	r3, [r0, #24]
 8007ad6:	b90b      	cbnz	r3, 8007adc <_fflush_r+0x14>
 8007ad8:	f000 f860 	bl	8007b9c <__sinit>
 8007adc:	4b0c      	ldr	r3, [pc, #48]	; (8007b10 <_fflush_r+0x48>)
 8007ade:	429c      	cmp	r4, r3
 8007ae0:	d101      	bne.n	8007ae6 <_fflush_r+0x1e>
 8007ae2:	686c      	ldr	r4, [r5, #4]
 8007ae4:	e008      	b.n	8007af8 <_fflush_r+0x30>
 8007ae6:	4b0b      	ldr	r3, [pc, #44]	; (8007b14 <_fflush_r+0x4c>)
 8007ae8:	429c      	cmp	r4, r3
 8007aea:	d101      	bne.n	8007af0 <_fflush_r+0x28>
 8007aec:	68ac      	ldr	r4, [r5, #8]
 8007aee:	e003      	b.n	8007af8 <_fflush_r+0x30>
 8007af0:	4b09      	ldr	r3, [pc, #36]	; (8007b18 <_fflush_r+0x50>)
 8007af2:	429c      	cmp	r4, r3
 8007af4:	bf08      	it	eq
 8007af6:	68ec      	ldreq	r4, [r5, #12]
 8007af8:	f9b4 300c 	ldrsh.w	r3, [r4, #12]
 8007afc:	b12b      	cbz	r3, 8007b0a <_fflush_r+0x42>
 8007afe:	4628      	mov	r0, r5
 8007b00:	4621      	mov	r1, r4
 8007b02:	e8bd 4038 	ldmia.w	sp!, {r3, r4, r5, lr}
 8007b06:	f7ff bf5b 	b.w	80079c0 <__sflush_r>
 8007b0a:	2000      	movs	r0, #0
 8007b0c:	bd38      	pop	{r3, r4, r5, pc}
 8007b0e:	bf00      	nop
 8007b10:	080088a4 	.word	0x080088a4
 8007b14:	080088c4 	.word	0x080088c4
 8007b18:	080088e4 	.word	0x080088e4

08007b1c <_cleanup_r>:
 8007b1c:	4901      	ldr	r1, [pc, #4]	; (8007b24 <_cleanup_r+0x8>)
 8007b1e:	f000 b8a7 	b.w	8007c70 <_fwalk_reent>
 8007b22:	bf00      	nop
 8007b24:	08007ac9 	.word	0x08007ac9

08007b28 <std.isra.0>:
 8007b28:	2300      	movs	r3, #0
 8007b2a:	b510      	push	{r4, lr}
 8007b2c:	4604      	mov	r4, r0
 8007b2e:	6003      	str	r3, [r0, #0]
 8007b30:	6043      	str	r3, [r0, #4]
 8007b32:	6083      	str	r3, [r0, #8]
 8007b34:	8181      	strh	r1, [r0, #12]
 8007b36:	6643      	str	r3, [r0, #100]	; 0x64
 8007b38:	81c2      	strh	r2, [r0, #14]
 8007b3a:	6103      	str	r3, [r0, #16]
 8007b3c:	6143      	str	r3, [r0, #20]
 8007b3e:	6183      	str	r3, [r0, #24]
 8007b40:	4619      	mov	r1, r3
 8007b42:	305c      	adds	r0, #92	; 0x5c
 8007b44:	2208      	movs	r2, #8
 8007b46:	f7ff fe0c 	bl	8007762 <memset>
 8007b4a:	4b05      	ldr	r3, [pc, #20]	; (8007b60 <std.isra.0+0x38>)
 8007b4c:	6263      	str	r3, [r4, #36]	; 0x24
 8007b4e:	4b05      	ldr	r3, [pc, #20]	; (8007b64 <std.isra.0+0x3c>)
 8007b50:	62a3      	str	r3, [r4, #40]	; 0x28
 8007b52:	4b05      	ldr	r3, [pc, #20]	; (8007b68 <std.isra.0+0x40>)
 8007b54:	62e3      	str	r3, [r4, #44]	; 0x2c
 8007b56:	4b05      	ldr	r3, [pc, #20]	; (8007b6c <std.isra.0+0x44>)
 8007b58:	6224      	str	r4, [r4, #32]
 8007b5a:	6323      	str	r3, [r4, #48]	; 0x30
 8007b5c:	bd10      	pop	{r4, pc}
 8007b5e:	bf00      	nop
 8007b60:	08007e9d 	.word	0x08007e9d
 8007b64:	08007ebf 	.word	0x08007ebf
 8007b68:	08007ef7 	.word	0x08007ef7
 8007b6c:	08007f1b 	.word	0x08007f1b

08007b70 <__sfmoreglue>:
 8007b70:	b570      	push	{r4, r5, r6, lr}
 8007b72:	2368      	movs	r3, #104	; 0x68
 8007b74:	1e4d      	subs	r5, r1, #1
 8007b76:	435d      	muls	r5, r3
 8007b78:	460e      	mov	r6, r1
 8007b7a:	f105 0174 	add.w	r1, r5, #116	; 0x74
 8007b7e:	f000 f927 	bl	8007dd0 <_malloc_r>
 8007b82:	4604      	mov	r4, r0
 8007b84:	b140      	cbz	r0, 8007b98 <__sfmoreglue+0x28>
 8007b86:	2100      	movs	r1, #0
 8007b88:	e880 0042 	stmia.w	r0, {r1, r6}
 8007b8c:	300c      	adds	r0, #12
 8007b8e:	60a0      	str	r0, [r4, #8]
 8007b90:	f105 0268 	add.w	r2, r5, #104	; 0x68
 8007b94:	f7ff fde5 	bl	8007762 <memset>
 8007b98:	4620      	mov	r0, r4
 8007b9a:	bd70      	pop	{r4, r5, r6, pc}

08007b9c <__sinit>:
 8007b9c:	6983      	ldr	r3, [r0, #24]
 8007b9e:	b510      	push	{r4, lr}
 8007ba0:	4604      	mov	r4, r0
 8007ba2:	bb33      	cbnz	r3, 8007bf2 <__sinit+0x56>
 8007ba4:	6483      	str	r3, [r0, #72]	; 0x48
 8007ba6:	64c3      	str	r3, [r0, #76]	; 0x4c
 8007ba8:	6503      	str	r3, [r0, #80]	; 0x50
 8007baa:	4b12      	ldr	r3, [pc, #72]	; (8007bf4 <__sinit+0x58>)
 8007bac:	4a12      	ldr	r2, [pc, #72]	; (8007bf8 <__sinit+0x5c>)
 8007bae:	681b      	ldr	r3, [r3, #0]
 8007bb0:	6282      	str	r2, [r0, #40]	; 0x28
 8007bb2:	4298      	cmp	r0, r3
 8007bb4:	bf04      	itt	eq
 8007bb6:	2301      	moveq	r3, #1
 8007bb8:	6183      	streq	r3, [r0, #24]
 8007bba:	f000 f81f 	bl	8007bfc <__sfp>
 8007bbe:	6060      	str	r0, [r4, #4]
 8007bc0:	4620      	mov	r0, r4
 8007bc2:	f000 f81b 	bl	8007bfc <__sfp>
 8007bc6:	60a0      	str	r0, [r4, #8]
 8007bc8:	4620      	mov	r0, r4
 8007bca:	f000 f817 	bl	8007bfc <__sfp>
 8007bce:	2104      	movs	r1, #4
 8007bd0:	60e0      	str	r0, [r4, #12]
 8007bd2:	2200      	movs	r2, #0
 8007bd4:	6860      	ldr	r0, [r4, #4]
 8007bd6:	f7ff ffa7 	bl	8007b28 <std.isra.0>
 8007bda:	68a0      	ldr	r0, [r4, #8]
 8007bdc:	2109      	movs	r1, #9
 8007bde:	2201      	movs	r2, #1
 8007be0:	f7ff ffa2 	bl	8007b28 <std.isra.0>
 8007be4:	68e0      	ldr	r0, [r4, #12]
 8007be6:	2112      	movs	r1, #18
 8007be8:	2202      	movs	r2, #2
 8007bea:	f7ff ff9d 	bl	8007b28 <std.isra.0>
 8007bee:	2301      	movs	r3, #1
 8007bf0:	61a3      	str	r3, [r4, #24]
 8007bf2:	bd10      	pop	{r4, pc}
 8007bf4:	080088a0 	.word	0x080088a0
 8007bf8:	08007b1d 	.word	0x08007b1d

08007bfc <__sfp>:
 8007bfc:	b5f8      	push	{r3, r4, r5, r6, r7, lr}
 8007bfe:	4b1b      	ldr	r3, [pc, #108]	; (8007c6c <__sfp+0x70>)
 8007c00:	681e      	ldr	r6, [r3, #0]
 8007c02:	69b3      	ldr	r3, [r6, #24]
 8007c04:	4607      	mov	r7, r0
 8007c06:	b913      	cbnz	r3, 8007c0e <__sfp+0x12>
 8007c08:	4630      	mov	r0, r6
 8007c0a:	f7ff ffc7 	bl	8007b9c <__sinit>
 8007c0e:	3648      	adds	r6, #72	; 0x48
 8007c10:	68b4      	ldr	r4, [r6, #8]
 8007c12:	6873      	ldr	r3, [r6, #4]
 8007c14:	3b01      	subs	r3, #1
 8007c16:	d404      	bmi.n	8007c22 <__sfp+0x26>
 8007c18:	f9b4 500c 	ldrsh.w	r5, [r4, #12]
 8007c1c:	b175      	cbz	r5, 8007c3c <__sfp+0x40>
 8007c1e:	3468      	adds	r4, #104	; 0x68
 8007c20:	e7f8      	b.n	8007c14 <__sfp+0x18>
 8007c22:	6833      	ldr	r3, [r6, #0]
 8007c24:	b92b      	cbnz	r3, 8007c32 <__sfp+0x36>
 8007c26:	4638      	mov	r0, r7
 8007c28:	2104      	movs	r1, #4
 8007c2a:	f7ff ffa1 	bl	8007b70 <__sfmoreglue>
 8007c2e:	6030      	str	r0, [r6, #0]
 8007c30:	b108      	cbz	r0, 8007c36 <__sfp+0x3a>
 8007c32:	6836      	ldr	r6, [r6, #0]
 8007c34:	e7ec      	b.n	8007c10 <__sfp+0x14>
 8007c36:	230c      	movs	r3, #12
 8007c38:	603b      	str	r3, [r7, #0]
 8007c3a:	bdf8      	pop	{r3, r4, r5, r6, r7, pc}
 8007c3c:	f64f 73ff 	movw	r3, #65535	; 0xffff
 8007c40:	81e3      	strh	r3, [r4, #14]
 8007c42:	2301      	movs	r3, #1
 8007c44:	81a3      	strh	r3, [r4, #12]
 8007c46:	6665      	str	r5, [r4, #100]	; 0x64
 8007c48:	6025      	str	r5, [r4, #0]
 8007c4a:	60a5      	str	r5, [r4, #8]
 8007c4c:	6065      	str	r5, [r4, #4]
 8007c4e:	6125      	str	r5, [r4, #16]
 8007c50:	6165      	str	r5, [r4, #20]
 8007c52:	61a5      	str	r5, [r4, #24]
 8007c54:	f104 005c 	add.w	r0, r4, #92	; 0x5c
 8007c58:	4629      	mov	r1, r5
 8007c5a:	2208      	movs	r2, #8
 8007c5c:	f7ff fd81 	bl	8007762 <memset>
 8007c60:	6365      	str	r5, [r4, #52]	; 0x34
 8007c62:	63a5      	str	r5, [r4, #56]	; 0x38
 8007c64:	64a5      	str	r5, [r4, #72]	; 0x48
 8007c66:	64e5      	str	r5, [r4, #76]	; 0x4c
 8007c68:	4620      	mov	r0, r4
 8007c6a:	bdf8      	pop	{r3, r4, r5, r6, r7, pc}
 8007c6c:	080088a0 	.word	0x080088a0

08007c70 <_fwalk_reent>:
 8007c70:	e92d 43f8 	stmdb	sp!, {r3, r4, r5, r6, r7, r8, r9, lr}
 8007c74:	4680      	mov	r8, r0
 8007c76:	4689      	mov	r9, r1
 8007c78:	f100 0448 	add.w	r4, r0, #72	; 0x48
 8007c7c:	2600      	movs	r6, #0
 8007c7e:	b194      	cbz	r4, 8007ca6 <_fwalk_reent+0x36>
 8007c80:	68a5      	ldr	r5, [r4, #8]
 8007c82:	6867      	ldr	r7, [r4, #4]
 8007c84:	3f01      	subs	r7, #1
 8007c86:	d40c      	bmi.n	8007ca2 <_fwalk_reent+0x32>
 8007c88:	89ab      	ldrh	r3, [r5, #12]
 8007c8a:	2b01      	cmp	r3, #1
 8007c8c:	d907      	bls.n	8007c9e <_fwalk_reent+0x2e>
 8007c8e:	f9b5 300e 	ldrsh.w	r3, [r5, #14]
 8007c92:	3301      	adds	r3, #1
 8007c94:	d003      	beq.n	8007c9e <_fwalk_reent+0x2e>
 8007c96:	4640      	mov	r0, r8
 8007c98:	4629      	mov	r1, r5
 8007c9a:	47c8      	blx	r9
 8007c9c:	4306      	orrs	r6, r0
 8007c9e:	3568      	adds	r5, #104	; 0x68
 8007ca0:	e7f0      	b.n	8007c84 <_fwalk_reent+0x14>
 8007ca2:	6824      	ldr	r4, [r4, #0]
 8007ca4:	e7eb      	b.n	8007c7e <_fwalk_reent+0xe>
 8007ca6:	4630      	mov	r0, r6
 8007ca8:	e8bd 83f8 	ldmia.w	sp!, {r3, r4, r5, r6, r7, r8, r9, pc}

08007cac <__smakebuf_r>:
 8007cac:	b5f0      	push	{r4, r5, r6, r7, lr}
 8007cae:	898b      	ldrh	r3, [r1, #12]
 8007cb0:	079d      	lsls	r5, r3, #30
 8007cb2:	b091      	sub	sp, #68	; 0x44
 8007cb4:	4606      	mov	r6, r0
 8007cb6:	460c      	mov	r4, r1
 8007cb8:	d426      	bmi.n	8007d08 <__smakebuf_r+0x5c>
 8007cba:	f9b1 100e 	ldrsh.w	r1, [r1, #14]
 8007cbe:	2900      	cmp	r1, #0
 8007cc0:	da09      	bge.n	8007cd6 <__smakebuf_r+0x2a>
 8007cc2:	89a3      	ldrh	r3, [r4, #12]
 8007cc4:	f013 0f80 	tst.w	r3, #128	; 0x80
 8007cc8:	f04f 0500 	mov.w	r5, #0
 8007ccc:	bf14      	ite	ne
 8007cce:	2740      	movne	r7, #64	; 0x40
 8007cd0:	f44f 6780 	moveq.w	r7, #1024	; 0x400
 8007cd4:	e00d      	b.n	8007cf2 <__smakebuf_r+0x46>
 8007cd6:	aa01      	add	r2, sp, #4
 8007cd8:	f000 f946 	bl	8007f68 <_fstat_r>
 8007cdc:	2800      	cmp	r0, #0
 8007cde:	dbf0      	blt.n	8007cc2 <__smakebuf_r+0x16>
 8007ce0:	9d02      	ldr	r5, [sp, #8]
 8007ce2:	f405 4570 	and.w	r5, r5, #61440	; 0xf000
 8007ce6:	f5a5 5100 	sub.w	r1, r5, #8192	; 0x2000
 8007cea:	424d      	negs	r5, r1
 8007cec:	414d      	adcs	r5, r1
 8007cee:	f44f 6780 	mov.w	r7, #1024	; 0x400
 8007cf2:	4630      	mov	r0, r6
 8007cf4:	4639      	mov	r1, r7
 8007cf6:	f000 f86b 	bl	8007dd0 <_malloc_r>
 8007cfa:	b960      	cbnz	r0, 8007d16 <__smakebuf_r+0x6a>
 8007cfc:	89a3      	ldrh	r3, [r4, #12]
 8007cfe:	059a      	lsls	r2, r3, #22
 8007d00:	d41d      	bmi.n	8007d3e <__smakebuf_r+0x92>
 8007d02:	f043 0302 	orr.w	r3, r3, #2
 8007d06:	81a3      	strh	r3, [r4, #12]
 8007d08:	f104 0347 	add.w	r3, r4, #71	; 0x47
 8007d0c:	6023      	str	r3, [r4, #0]
 8007d0e:	6123      	str	r3, [r4, #16]
 8007d10:	2301      	movs	r3, #1
 8007d12:	6163      	str	r3, [r4, #20]
 8007d14:	e013      	b.n	8007d3e <__smakebuf_r+0x92>
 8007d16:	4b0b      	ldr	r3, [pc, #44]	; (8007d44 <__smakebuf_r+0x98>)
 8007d18:	62b3      	str	r3, [r6, #40]	; 0x28
 8007d1a:	89a3      	ldrh	r3, [r4, #12]
 8007d1c:	6020      	str	r0, [r4, #0]
 8007d1e:	f043 0380 	orr.w	r3, r3, #128	; 0x80
 8007d22:	81a3      	strh	r3, [r4, #12]
 8007d24:	6120      	str	r0, [r4, #16]
 8007d26:	6167      	str	r7, [r4, #20]
 8007d28:	b14d      	cbz	r5, 8007d3e <__smakebuf_r+0x92>
 8007d2a:	4630      	mov	r0, r6
 8007d2c:	f9b4 100e 	ldrsh.w	r1, [r4, #14]
 8007d30:	f000 f92c 	bl	8007f8c <_isatty_r>
 8007d34:	b118      	cbz	r0, 8007d3e <__smakebuf_r+0x92>
 8007d36:	89a3      	ldrh	r3, [r4, #12]
 8007d38:	f043 0301 	orr.w	r3, r3, #1
 8007d3c:	81a3      	strh	r3, [r4, #12]
 8007d3e:	b011      	add	sp, #68	; 0x44
 8007d40:	bdf0      	pop	{r4, r5, r6, r7, pc}
 8007d42:	bf00      	nop
 8007d44:	08007b1d 	.word	0x08007b1d

08007d48 <_free_r>:
 8007d48:	b530      	push	{r4, r5, lr}
 8007d4a:	2900      	cmp	r1, #0
 8007d4c:	d03d      	beq.n	8007dca <_free_r+0x82>
 8007d4e:	f851 2c04 	ldr.w	r2, [r1, #-4]
 8007d52:	1f0b      	subs	r3, r1, #4
 8007d54:	491d      	ldr	r1, [pc, #116]	; (8007dcc <_free_r+0x84>)
 8007d56:	2a00      	cmp	r2, #0
 8007d58:	bfb8      	it	lt
 8007d5a:	189b      	addlt	r3, r3, r2
 8007d5c:	680a      	ldr	r2, [r1, #0]
 8007d5e:	460c      	mov	r4, r1
 8007d60:	b912      	cbnz	r2, 8007d68 <_free_r+0x20>
 8007d62:	605a      	str	r2, [r3, #4]
 8007d64:	600b      	str	r3, [r1, #0]
 8007d66:	bd30      	pop	{r4, r5, pc}
 8007d68:	4293      	cmp	r3, r2
 8007d6a:	d20d      	bcs.n	8007d88 <_free_r+0x40>
 8007d6c:	6819      	ldr	r1, [r3, #0]
 8007d6e:	1858      	adds	r0, r3, r1
 8007d70:	4290      	cmp	r0, r2
 8007d72:	bf01      	itttt	eq
 8007d74:	585a      	ldreq	r2, [r3, r1]
 8007d76:	1852      	addeq	r2, r2, r1
 8007d78:	601a      	streq	r2, [r3, #0]
 8007d7a:	6842      	ldreq	r2, [r0, #4]
 8007d7c:	605a      	str	r2, [r3, #4]
 8007d7e:	6023      	str	r3, [r4, #0]
 8007d80:	bd30      	pop	{r4, r5, pc}
 8007d82:	4299      	cmp	r1, r3
 8007d84:	d803      	bhi.n	8007d8e <_free_r+0x46>
 8007d86:	460a      	mov	r2, r1
 8007d88:	6851      	ldr	r1, [r2, #4]
 8007d8a:	2900      	cmp	r1, #0
 8007d8c:	d1f9      	bne.n	8007d82 <_free_r+0x3a>
 8007d8e:	6814      	ldr	r4, [r2, #0]
 8007d90:	1915      	adds	r5, r2, r4
 8007d92:	429d      	cmp	r5, r3
 8007d94:	d10a      	bne.n	8007dac <_free_r+0x64>
 8007d96:	681b      	ldr	r3, [r3, #0]
 8007d98:	4423      	add	r3, r4
 8007d9a:	18d0      	adds	r0, r2, r3
 8007d9c:	4288      	cmp	r0, r1
 8007d9e:	6013      	str	r3, [r2, #0]
 8007da0:	d113      	bne.n	8007dca <_free_r+0x82>
 8007da2:	6808      	ldr	r0, [r1, #0]
 8007da4:	4403      	add	r3, r0
 8007da6:	6013      	str	r3, [r2, #0]
 8007da8:	684b      	ldr	r3, [r1, #4]
 8007daa:	e00d      	b.n	8007dc8 <_free_r+0x80>
 8007dac:	d902      	bls.n	8007db4 <_free_r+0x6c>
 8007dae:	230c      	movs	r3, #12
 8007db0:	6003      	str	r3, [r0, #0]
 8007db2:	bd30      	pop	{r4, r5, pc}
 8007db4:	681c      	ldr	r4, [r3, #0]
 8007db6:	1918      	adds	r0, r3, r4
 8007db8:	4288      	cmp	r0, r1
 8007dba:	bf04      	itt	eq
 8007dbc:	6808      	ldreq	r0, [r1, #0]
 8007dbe:	6849      	ldreq	r1, [r1, #4]
 8007dc0:	6059      	str	r1, [r3, #4]
 8007dc2:	bf04      	itt	eq
 8007dc4:	1900      	addeq	r0, r0, r4
 8007dc6:	6018      	streq	r0, [r3, #0]
 8007dc8:	6053      	str	r3, [r2, #4]
 8007dca:	bd30      	pop	{r4, r5, pc}
 8007dcc:	1ffe8cac 	.word	0x1ffe8cac

08007dd0 <_malloc_r>:
 8007dd0:	b570      	push	{r4, r5, r6, lr}
 8007dd2:	1ccc      	adds	r4, r1, #3
 8007dd4:	f024 0403 	bic.w	r4, r4, #3
 8007dd8:	3408      	adds	r4, #8
 8007dda:	2c0c      	cmp	r4, #12
 8007ddc:	bf38      	it	cc
 8007dde:	240c      	movcc	r4, #12
 8007de0:	2c00      	cmp	r4, #0
 8007de2:	4606      	mov	r6, r0
 8007de4:	da03      	bge.n	8007dee <_malloc_r+0x1e>
 8007de6:	230c      	movs	r3, #12
 8007de8:	6033      	str	r3, [r6, #0]
 8007dea:	2000      	movs	r0, #0
 8007dec:	bd70      	pop	{r4, r5, r6, pc}
 8007dee:	428c      	cmp	r4, r1
 8007df0:	d3f9      	bcc.n	8007de6 <_malloc_r+0x16>
 8007df2:	4a20      	ldr	r2, [pc, #128]	; (8007e74 <_malloc_r+0xa4>)
 8007df4:	6813      	ldr	r3, [r2, #0]
 8007df6:	4610      	mov	r0, r2
 8007df8:	4619      	mov	r1, r3
 8007dfa:	b1a1      	cbz	r1, 8007e26 <_malloc_r+0x56>
 8007dfc:	680a      	ldr	r2, [r1, #0]
 8007dfe:	1b12      	subs	r2, r2, r4
 8007e00:	d40e      	bmi.n	8007e20 <_malloc_r+0x50>
 8007e02:	2a0b      	cmp	r2, #11
 8007e04:	d903      	bls.n	8007e0e <_malloc_r+0x3e>
 8007e06:	600a      	str	r2, [r1, #0]
 8007e08:	188b      	adds	r3, r1, r2
 8007e0a:	508c      	str	r4, [r1, r2]
 8007e0c:	e01f      	b.n	8007e4e <_malloc_r+0x7e>
 8007e0e:	428b      	cmp	r3, r1
 8007e10:	bf0d      	iteet	eq
 8007e12:	685a      	ldreq	r2, [r3, #4]
 8007e14:	684a      	ldrne	r2, [r1, #4]
 8007e16:	605a      	strne	r2, [r3, #4]
 8007e18:	6002      	streq	r2, [r0, #0]
 8007e1a:	bf18      	it	ne
 8007e1c:	460b      	movne	r3, r1
 8007e1e:	e016      	b.n	8007e4e <_malloc_r+0x7e>
 8007e20:	460b      	mov	r3, r1
 8007e22:	6849      	ldr	r1, [r1, #4]
 8007e24:	e7e9      	b.n	8007dfa <_malloc_r+0x2a>
 8007e26:	4d14      	ldr	r5, [pc, #80]	; (8007e78 <_malloc_r+0xa8>)
 8007e28:	682b      	ldr	r3, [r5, #0]
 8007e2a:	b91b      	cbnz	r3, 8007e34 <_malloc_r+0x64>
 8007e2c:	4630      	mov	r0, r6
 8007e2e:	f000 f825 	bl	8007e7c <_sbrk_r>
 8007e32:	6028      	str	r0, [r5, #0]
 8007e34:	4630      	mov	r0, r6
 8007e36:	4621      	mov	r1, r4
 8007e38:	f000 f820 	bl	8007e7c <_sbrk_r>
 8007e3c:	1c42      	adds	r2, r0, #1
 8007e3e:	4603      	mov	r3, r0
 8007e40:	d0d1      	beq.n	8007de6 <_malloc_r+0x16>
 8007e42:	1cc5      	adds	r5, r0, #3
 8007e44:	f025 0503 	bic.w	r5, r5, #3
 8007e48:	4285      	cmp	r5, r0
 8007e4a:	d10a      	bne.n	8007e62 <_malloc_r+0x92>
 8007e4c:	601c      	str	r4, [r3, #0]
 8007e4e:	f103 000b 	add.w	r0, r3, #11
 8007e52:	1d1a      	adds	r2, r3, #4
 8007e54:	f020 0007 	bic.w	r0, r0, #7
 8007e58:	1a82      	subs	r2, r0, r2
 8007e5a:	d00a      	beq.n	8007e72 <_malloc_r+0xa2>
 8007e5c:	4251      	negs	r1, r2
 8007e5e:	5099      	str	r1, [r3, r2]
 8007e60:	bd70      	pop	{r4, r5, r6, pc}
 8007e62:	4630      	mov	r0, r6
 8007e64:	1ae9      	subs	r1, r5, r3
 8007e66:	f000 f809 	bl	8007e7c <_sbrk_r>
 8007e6a:	3001      	adds	r0, #1
 8007e6c:	d0bb      	beq.n	8007de6 <_malloc_r+0x16>
 8007e6e:	462b      	mov	r3, r5
 8007e70:	e7ec      	b.n	8007e4c <_malloc_r+0x7c>
 8007e72:	bd70      	pop	{r4, r5, r6, pc}
 8007e74:	1ffe8cac 	.word	0x1ffe8cac
 8007e78:	1ffe8ca8 	.word	0x1ffe8ca8

08007e7c <_sbrk_r>:
 8007e7c:	b538      	push	{r3, r4, r5, lr}
 8007e7e:	4c06      	ldr	r4, [pc, #24]	; (8007e98 <_sbrk_r+0x1c>)
 8007e80:	2300      	movs	r3, #0
 8007e82:	4605      	mov	r5, r0
 8007e84:	4608      	mov	r0, r1
 8007e86:	6023      	str	r3, [r4, #0]
 8007e88:	f7fe fd26 	bl	80068d8 <_sbrk>
 8007e8c:	1c43      	adds	r3, r0, #1
 8007e8e:	d102      	bne.n	8007e96 <_sbrk_r+0x1a>
 8007e90:	6823      	ldr	r3, [r4, #0]
 8007e92:	b103      	cbz	r3, 8007e96 <_sbrk_r+0x1a>
 8007e94:	602b      	str	r3, [r5, #0]
 8007e96:	bd38      	pop	{r3, r4, r5, pc}
 8007e98:	1ffe8d5c 	.word	0x1ffe8d5c

08007e9c <__sread>:
 8007e9c:	b510      	push	{r4, lr}
 8007e9e:	460c      	mov	r4, r1
 8007ea0:	f9b1 100e 	ldrsh.w	r1, [r1, #14]
 8007ea4:	f000 f894 	bl	8007fd0 <_read_r>
 8007ea8:	2800      	cmp	r0, #0
 8007eaa:	bfab      	itete	ge
 8007eac:	6d63      	ldrge	r3, [r4, #84]	; 0x54
 8007eae:	89a3      	ldrhlt	r3, [r4, #12]
 8007eb0:	181b      	addge	r3, r3, r0
 8007eb2:	f423 5380 	biclt.w	r3, r3, #4096	; 0x1000
 8007eb6:	bfac      	ite	ge
 8007eb8:	6563      	strge	r3, [r4, #84]	; 0x54
 8007eba:	81a3      	strhlt	r3, [r4, #12]
 8007ebc:	bd10      	pop	{r4, pc}

08007ebe <__swrite>:
 8007ebe:	e92d 41f0 	stmdb	sp!, {r4, r5, r6, r7, r8, lr}
 8007ec2:	461d      	mov	r5, r3
 8007ec4:	898b      	ldrh	r3, [r1, #12]
 8007ec6:	05db      	lsls	r3, r3, #23
 8007ec8:	4607      	mov	r7, r0
 8007eca:	460c      	mov	r4, r1
 8007ecc:	4616      	mov	r6, r2
 8007ece:	d505      	bpl.n	8007edc <__swrite+0x1e>
 8007ed0:	f9b1 100e 	ldrsh.w	r1, [r1, #14]
 8007ed4:	2200      	movs	r2, #0
 8007ed6:	2302      	movs	r3, #2
 8007ed8:	f000 f868 	bl	8007fac <_lseek_r>
 8007edc:	89a3      	ldrh	r3, [r4, #12]
 8007ede:	f9b4 100e 	ldrsh.w	r1, [r4, #14]
 8007ee2:	f423 5380 	bic.w	r3, r3, #4096	; 0x1000
 8007ee6:	81a3      	strh	r3, [r4, #12]
 8007ee8:	4638      	mov	r0, r7
 8007eea:	4632      	mov	r2, r6
 8007eec:	462b      	mov	r3, r5
 8007eee:	e8bd 41f0 	ldmia.w	sp!, {r4, r5, r6, r7, r8, lr}
 8007ef2:	f000 b817 	b.w	8007f24 <_write_r>

08007ef6 <__sseek>:
 8007ef6:	b510      	push	{r4, lr}
 8007ef8:	460c      	mov	r4, r1
 8007efa:	f9b1 100e 	ldrsh.w	r1, [r1, #14]
 8007efe:	f000 f855 	bl	8007fac <_lseek_r>
 8007f02:	1c43      	adds	r3, r0, #1
 8007f04:	89a3      	ldrh	r3, [r4, #12]
 8007f06:	bf15      	itete	ne
 8007f08:	6560      	strne	r0, [r4, #84]	; 0x54
 8007f0a:	f423 5380 	biceq.w	r3, r3, #4096	; 0x1000
 8007f0e:	f443 5380 	orrne.w	r3, r3, #4096	; 0x1000
 8007f12:	81a3      	strheq	r3, [r4, #12]
 8007f14:	bf18      	it	ne
 8007f16:	81a3      	strhne	r3, [r4, #12]
 8007f18:	bd10      	pop	{r4, pc}

08007f1a <__sclose>:
 8007f1a:	f9b1 100e 	ldrsh.w	r1, [r1, #14]
 8007f1e:	f000 b813 	b.w	8007f48 <_close_r>
	...

08007f24 <_write_r>:
 8007f24:	b538      	push	{r3, r4, r5, lr}
 8007f26:	4c07      	ldr	r4, [pc, #28]	; (8007f44 <_write_r+0x20>)
 8007f28:	4605      	mov	r5, r0
 8007f2a:	2000      	movs	r0, #0
 8007f2c:	6020      	str	r0, [r4, #0]
 8007f2e:	4608      	mov	r0, r1
 8007f30:	4611      	mov	r1, r2
 8007f32:	461a      	mov	r2, r3
 8007f34:	f000 f957 	bl	80081e6 <_write>
 8007f38:	1c43      	adds	r3, r0, #1
 8007f3a:	d102      	bne.n	8007f42 <_write_r+0x1e>
 8007f3c:	6823      	ldr	r3, [r4, #0]
 8007f3e:	b103      	cbz	r3, 8007f42 <_write_r+0x1e>
 8007f40:	602b      	str	r3, [r5, #0]
 8007f42:	bd38      	pop	{r3, r4, r5, pc}
 8007f44:	1ffe8d5c 	.word	0x1ffe8d5c

08007f48 <_close_r>:
 8007f48:	b538      	push	{r3, r4, r5, lr}
 8007f4a:	4c06      	ldr	r4, [pc, #24]	; (8007f64 <_close_r+0x1c>)
 8007f4c:	2300      	movs	r3, #0
 8007f4e:	4605      	mov	r5, r0
 8007f50:	4608      	mov	r0, r1
 8007f52:	6023      	str	r3, [r4, #0]
 8007f54:	f000 f976 	bl	8008244 <_close>
 8007f58:	1c43      	adds	r3, r0, #1
 8007f5a:	d102      	bne.n	8007f62 <_close_r+0x1a>
 8007f5c:	6823      	ldr	r3, [r4, #0]
 8007f5e:	b103      	cbz	r3, 8007f62 <_close_r+0x1a>
 8007f60:	602b      	str	r3, [r5, #0]
 8007f62:	bd38      	pop	{r3, r4, r5, pc}
 8007f64:	1ffe8d5c 	.word	0x1ffe8d5c

08007f68 <_fstat_r>:
 8007f68:	b538      	push	{r3, r4, r5, lr}
 8007f6a:	4c07      	ldr	r4, [pc, #28]	; (8007f88 <_fstat_r+0x20>)
 8007f6c:	2300      	movs	r3, #0
 8007f6e:	4605      	mov	r5, r0
 8007f70:	4608      	mov	r0, r1
 8007f72:	4611      	mov	r1, r2
 8007f74:	6023      	str	r3, [r4, #0]
 8007f76:	f000 f9aa 	bl	80082ce <_fstat>
 8007f7a:	1c43      	adds	r3, r0, #1
 8007f7c:	d102      	bne.n	8007f84 <_fstat_r+0x1c>
 8007f7e:	6823      	ldr	r3, [r4, #0]
 8007f80:	b103      	cbz	r3, 8007f84 <_fstat_r+0x1c>
 8007f82:	602b      	str	r3, [r5, #0]
 8007f84:	bd38      	pop	{r3, r4, r5, pc}
 8007f86:	bf00      	nop
 8007f88:	1ffe8d5c 	.word	0x1ffe8d5c

08007f8c <_isatty_r>:
 8007f8c:	b538      	push	{r3, r4, r5, lr}
 8007f8e:	4c06      	ldr	r4, [pc, #24]	; (8007fa8 <_isatty_r+0x1c>)
 8007f90:	2300      	movs	r3, #0
 8007f92:	4605      	mov	r5, r0
 8007f94:	4608      	mov	r0, r1
 8007f96:	6023      	str	r3, [r4, #0]
 8007f98:	f000 f9a7 	bl	80082ea <_isatty>
 8007f9c:	1c43      	adds	r3, r0, #1
 8007f9e:	d102      	bne.n	8007fa6 <_isatty_r+0x1a>
 8007fa0:	6823      	ldr	r3, [r4, #0]
 8007fa2:	b103      	cbz	r3, 8007fa6 <_isatty_r+0x1a>
 8007fa4:	602b      	str	r3, [r5, #0]
 8007fa6:	bd38      	pop	{r3, r4, r5, pc}
 8007fa8:	1ffe8d5c 	.word	0x1ffe8d5c

08007fac <_lseek_r>:
 8007fac:	b538      	push	{r3, r4, r5, lr}
 8007fae:	4c07      	ldr	r4, [pc, #28]	; (8007fcc <_lseek_r+0x20>)
 8007fb0:	4605      	mov	r5, r0
 8007fb2:	2000      	movs	r0, #0
 8007fb4:	6020      	str	r0, [r4, #0]
 8007fb6:	4608      	mov	r0, r1
 8007fb8:	4611      	mov	r1, r2
 8007fba:	461a      	mov	r2, r3
 8007fbc:	f000 f901 	bl	80081c2 <_lseek>
 8007fc0:	1c43      	adds	r3, r0, #1
 8007fc2:	d102      	bne.n	8007fca <_lseek_r+0x1e>
 8007fc4:	6823      	ldr	r3, [r4, #0]
 8007fc6:	b103      	cbz	r3, 8007fca <_lseek_r+0x1e>
 8007fc8:	602b      	str	r3, [r5, #0]
 8007fca:	bd38      	pop	{r3, r4, r5, pc}
 8007fcc:	1ffe8d5c 	.word	0x1ffe8d5c

08007fd0 <_read_r>:
 8007fd0:	b538      	push	{r3, r4, r5, lr}
 8007fd2:	4c07      	ldr	r4, [pc, #28]	; (8007ff0 <_read_r+0x20>)
 8007fd4:	4605      	mov	r5, r0
 8007fd6:	2000      	movs	r0, #0
 8007fd8:	6020      	str	r0, [r4, #0]
 8007fda:	4608      	mov	r0, r1
 8007fdc:	4611      	mov	r1, r2
 8007fde:	461a      	mov	r2, r3
 8007fe0:	f000 f898 	bl	8008114 <_read>
 8007fe4:	1c43      	adds	r3, r0, #1
 8007fe6:	d102      	bne.n	8007fee <_read_r+0x1e>
 8007fe8:	6823      	ldr	r3, [r4, #0]
 8007fea:	b103      	cbz	r3, 8007fee <_read_r+0x1e>
 8007fec:	602b      	str	r3, [r5, #0]
 8007fee:	bd38      	pop	{r3, r4, r5, pc}
 8007ff0:	1ffe8d5c 	.word	0x1ffe8d5c

08007ff4 <findslot>:
 8007ff4:	4b0a      	ldr	r3, [pc, #40]	; (8008020 <findslot+0x2c>)
 8007ff6:	b510      	push	{r4, lr}
 8007ff8:	4604      	mov	r4, r0
 8007ffa:	6818      	ldr	r0, [r3, #0]
 8007ffc:	b118      	cbz	r0, 8008006 <findslot+0x12>
 8007ffe:	6983      	ldr	r3, [r0, #24]
 8008000:	b90b      	cbnz	r3, 8008006 <findslot+0x12>
 8008002:	f7ff fdcb 	bl	8007b9c <__sinit>
 8008006:	2c13      	cmp	r4, #19
 8008008:	d807      	bhi.n	800801a <findslot+0x26>
 800800a:	4806      	ldr	r0, [pc, #24]	; (8008024 <findslot+0x30>)
 800800c:	f850 3034 	ldr.w	r3, [r0, r4, lsl #3]
 8008010:	3301      	adds	r3, #1
 8008012:	d002      	beq.n	800801a <findslot+0x26>
 8008014:	eb00 00c4 	add.w	r0, r0, r4, lsl #3
 8008018:	bd10      	pop	{r4, pc}
 800801a:	2000      	movs	r0, #0
 800801c:	bd10      	pop	{r4, pc}
 800801e:	bf00      	nop
 8008020:	1ffe89ac 	.word	0x1ffe89ac
 8008024:	1ffe8cbc 	.word	0x1ffe8cbc

08008028 <error>:
 8008028:	b5f8      	push	{r3, r4, r5, r6, r7, lr}
 800802a:	4605      	mov	r5, r0
 800802c:	f7ff fb62 	bl	80076f4 <__errno>
 8008030:	2700      	movs	r7, #0
 8008032:	4606      	mov	r6, r0
 8008034:	2413      	movs	r4, #19
 8008036:	4620      	mov	r0, r4
 8008038:	4639      	mov	r1, r7
 800803a:	beab      	bkpt	0x00ab
 800803c:	4604      	mov	r4, r0
 800803e:	6034      	str	r4, [r6, #0]
 8008040:	4628      	mov	r0, r5
 8008042:	bdf8      	pop	{r3, r4, r5, r6, r7, pc}

08008044 <checkerror>:
 8008044:	1c43      	adds	r3, r0, #1
 8008046:	d101      	bne.n	800804c <checkerror+0x8>
 8008048:	f7ff bfee 	b.w	8008028 <error>
 800804c:	4770      	bx	lr
	...

08008050 <initialise_monitor_handles>:
 8008050:	e92d 47ff 	stmdb	sp!, {r0, r1, r2, r3, r4, r5, r6, r7, r8, r9, sl, lr}
 8008054:	f8df 9098 	ldr.w	r9, [pc, #152]	; 80080f0 <initialise_monitor_handles+0xa0>
 8008058:	f8cd 9004 	str.w	r9, [sp, #4]
 800805c:	f04f 0803 	mov.w	r8, #3
 8008060:	2300      	movs	r3, #0
 8008062:	f8cd 800c 	str.w	r8, [sp, #12]
 8008066:	2401      	movs	r4, #1
 8008068:	9302      	str	r3, [sp, #8]
 800806a:	af01      	add	r7, sp, #4
 800806c:	4620      	mov	r0, r4
 800806e:	4639      	mov	r1, r7
 8008070:	beab      	bkpt	0x00ab
 8008072:	4605      	mov	r5, r0
 8008074:	4e1a      	ldr	r6, [pc, #104]	; (80080e0 <initialise_monitor_handles+0x90>)
 8008076:	f8cd 9004 	str.w	r9, [sp, #4]
 800807a:	2304      	movs	r3, #4
 800807c:	f8cd 800c 	str.w	r8, [sp, #12]
 8008080:	6035      	str	r5, [r6, #0]
 8008082:	9302      	str	r3, [sp, #8]
 8008084:	4620      	mov	r0, r4
 8008086:	4639      	mov	r1, r7
 8008088:	beab      	bkpt	0x00ab
 800808a:	4682      	mov	sl, r0
 800808c:	4d15      	ldr	r5, [pc, #84]	; (80080e4 <initialise_monitor_handles+0x94>)
 800808e:	f8cd 9004 	str.w	r9, [sp, #4]
 8008092:	2308      	movs	r3, #8
 8008094:	f8cd 800c 	str.w	r8, [sp, #12]
 8008098:	f8c5 a000 	str.w	sl, [r5]
 800809c:	9302      	str	r3, [sp, #8]
 800809e:	4620      	mov	r0, r4
 80080a0:	4639      	mov	r1, r7
 80080a2:	beab      	bkpt	0x00ab
 80080a4:	4604      	mov	r4, r0
 80080a6:	4a10      	ldr	r2, [pc, #64]	; (80080e8 <initialise_monitor_handles+0x98>)
 80080a8:	6014      	str	r4, [r2, #0]
 80080aa:	3401      	adds	r4, #1
 80080ac:	bf04      	itt	eq
 80080ae:	682b      	ldreq	r3, [r5, #0]
 80080b0:	6013      	streq	r3, [r2, #0]
 80080b2:	2100      	movs	r1, #0
 80080b4:	4b0d      	ldr	r3, [pc, #52]	; (80080ec <initialise_monitor_handles+0x9c>)
 80080b6:	f04f 30ff 	mov.w	r0, #4294967295
 80080ba:	f843 0031 	str.w	r0, [r3, r1, lsl #3]
 80080be:	3101      	adds	r1, #1
 80080c0:	2914      	cmp	r1, #20
 80080c2:	d1f7      	bne.n	80080b4 <initialise_monitor_handles+0x64>
 80080c4:	6831      	ldr	r1, [r6, #0]
 80080c6:	6828      	ldr	r0, [r5, #0]
 80080c8:	6812      	ldr	r2, [r2, #0]
 80080ca:	6019      	str	r1, [r3, #0]
 80080cc:	2100      	movs	r1, #0
 80080ce:	6059      	str	r1, [r3, #4]
 80080d0:	6098      	str	r0, [r3, #8]
 80080d2:	60d9      	str	r1, [r3, #12]
 80080d4:	611a      	str	r2, [r3, #16]
 80080d6:	6159      	str	r1, [r3, #20]
 80080d8:	b004      	add	sp, #16
 80080da:	e8bd 87f0 	ldmia.w	sp!, {r4, r5, r6, r7, r8, r9, sl, pc}
 80080de:	bf00      	nop
 80080e0:	1ffe8cb4 	.word	0x1ffe8cb4
 80080e4:	1ffe8cb0 	.word	0x1ffe8cb0
 80080e8:	1ffe8cb8 	.word	0x1ffe8cb8
 80080ec:	1ffe8cbc 	.word	0x1ffe8cbc
 80080f0:	08008904 	.word	0x08008904

080080f4 <_swiread>:
 80080f4:	b530      	push	{r4, r5, lr}
 80080f6:	b085      	sub	sp, #20
 80080f8:	ad01      	add	r5, sp, #4
 80080fa:	9001      	str	r0, [sp, #4]
 80080fc:	9102      	str	r1, [sp, #8]
 80080fe:	9203      	str	r2, [sp, #12]
 8008100:	2406      	movs	r4, #6
 8008102:	4620      	mov	r0, r4
 8008104:	4629      	mov	r1, r5
 8008106:	beab      	bkpt	0x00ab
 8008108:	4604      	mov	r4, r0
 800810a:	4620      	mov	r0, r4
 800810c:	f7ff ff9a 	bl	8008044 <checkerror>
 8008110:	b005      	add	sp, #20
 8008112:	bd30      	pop	{r4, r5, pc}

08008114 <_read>:
 8008114:	b570      	push	{r4, r5, r6, lr}
 8008116:	460e      	mov	r6, r1
 8008118:	4615      	mov	r5, r2
 800811a:	f7ff ff6b 	bl	8007ff4 <findslot>
 800811e:	4604      	mov	r4, r0
 8008120:	b930      	cbnz	r0, 8008130 <_read+0x1c>
 8008122:	f7ff fae7 	bl	80076f4 <__errno>
 8008126:	2309      	movs	r3, #9
 8008128:	6003      	str	r3, [r0, #0]
 800812a:	f04f 30ff 	mov.w	r0, #4294967295
 800812e:	bd70      	pop	{r4, r5, r6, pc}
 8008130:	4631      	mov	r1, r6
 8008132:	462a      	mov	r2, r5
 8008134:	6800      	ldr	r0, [r0, #0]
 8008136:	f7ff ffdd 	bl	80080f4 <_swiread>
 800813a:	1c43      	adds	r3, r0, #1
 800813c:	bf1f      	itttt	ne
 800813e:	6863      	ldrne	r3, [r4, #4]
 8008140:	1a28      	subne	r0, r5, r0
 8008142:	181b      	addne	r3, r3, r0
 8008144:	6063      	strne	r3, [r4, #4]
 8008146:	bd70      	pop	{r4, r5, r6, pc}

08008148 <_swilseek>:
 8008148:	b5f7      	push	{r0, r1, r2, r4, r5, r6, r7, lr}
 800814a:	460c      	mov	r4, r1
 800814c:	4616      	mov	r6, r2
 800814e:	f7ff ff51 	bl	8007ff4 <findslot>
 8008152:	4605      	mov	r5, r0
 8008154:	b918      	cbnz	r0, 800815e <_swilseek+0x16>
 8008156:	f7ff facd 	bl	80076f4 <__errno>
 800815a:	2309      	movs	r3, #9
 800815c:	e004      	b.n	8008168 <_swilseek+0x20>
 800815e:	2e02      	cmp	r6, #2
 8008160:	d906      	bls.n	8008170 <_swilseek+0x28>
 8008162:	f7ff fac7 	bl	80076f4 <__errno>
 8008166:	2316      	movs	r3, #22
 8008168:	6003      	str	r3, [r0, #0]
 800816a:	f04f 30ff 	mov.w	r0, #4294967295
 800816e:	e026      	b.n	80081be <_swilseek+0x76>
 8008170:	2e01      	cmp	r6, #1
 8008172:	d103      	bne.n	800817c <_swilseek+0x34>
 8008174:	6843      	ldr	r3, [r0, #4]
 8008176:	18e4      	adds	r4, r4, r3
 8008178:	d511      	bpl.n	800819e <_swilseek+0x56>
 800817a:	e7f2      	b.n	8008162 <_swilseek+0x1a>
 800817c:	2e02      	cmp	r6, #2
 800817e:	d10e      	bne.n	800819e <_swilseek+0x56>
 8008180:	af02      	add	r7, sp, #8
 8008182:	6803      	ldr	r3, [r0, #0]
 8008184:	f847 3d08 	str.w	r3, [r7, #-8]!
 8008188:	260c      	movs	r6, #12
 800818a:	4630      	mov	r0, r6
 800818c:	4639      	mov	r1, r7
 800818e:	beab      	bkpt	0x00ab
 8008190:	4606      	mov	r6, r0
 8008192:	4630      	mov	r0, r6
 8008194:	f7ff ff56 	bl	8008044 <checkerror>
 8008198:	1c43      	adds	r3, r0, #1
 800819a:	d0e6      	beq.n	800816a <_swilseek+0x22>
 800819c:	4404      	add	r4, r0
 800819e:	682b      	ldr	r3, [r5, #0]
 80081a0:	466f      	mov	r7, sp
 80081a2:	e88d 0018 	stmia.w	sp, {r3, r4}
 80081a6:	260a      	movs	r6, #10
 80081a8:	4630      	mov	r0, r6
 80081aa:	4639      	mov	r1, r7
 80081ac:	beab      	bkpt	0x00ab
 80081ae:	4606      	mov	r6, r0
 80081b0:	4630      	mov	r0, r6
 80081b2:	f7ff ff47 	bl	8008044 <checkerror>
 80081b6:	2800      	cmp	r0, #0
 80081b8:	dbd7      	blt.n	800816a <_swilseek+0x22>
 80081ba:	606c      	str	r4, [r5, #4]
 80081bc:	4620      	mov	r0, r4
 80081be:	b003      	add	sp, #12
 80081c0:	bdf0      	pop	{r4, r5, r6, r7, pc}

080081c2 <_lseek>:
 80081c2:	f7ff bfc1 	b.w	8008148 <_swilseek>

080081c6 <_swiwrite>:
 80081c6:	b530      	push	{r4, r5, lr}
 80081c8:	b085      	sub	sp, #20
 80081ca:	ad01      	add	r5, sp, #4
 80081cc:	9001      	str	r0, [sp, #4]
 80081ce:	9102      	str	r1, [sp, #8]
 80081d0:	9203      	str	r2, [sp, #12]
 80081d2:	2405      	movs	r4, #5
 80081d4:	4620      	mov	r0, r4
 80081d6:	4629      	mov	r1, r5
 80081d8:	beab      	bkpt	0x00ab
 80081da:	4604      	mov	r4, r0
 80081dc:	4620      	mov	r0, r4
 80081de:	f7ff ff31 	bl	8008044 <checkerror>
 80081e2:	b005      	add	sp, #20
 80081e4:	bd30      	pop	{r4, r5, pc}

080081e6 <_write>:
 80081e6:	b570      	push	{r4, r5, r6, lr}
 80081e8:	460e      	mov	r6, r1
 80081ea:	4615      	mov	r5, r2
 80081ec:	f7ff ff02 	bl	8007ff4 <findslot>
 80081f0:	4604      	mov	r4, r0
 80081f2:	b920      	cbnz	r0, 80081fe <_write+0x18>
 80081f4:	f7ff fa7e 	bl	80076f4 <__errno>
 80081f8:	2309      	movs	r3, #9
 80081fa:	6003      	str	r3, [r0, #0]
 80081fc:	e011      	b.n	8008222 <_write+0x3c>
 80081fe:	462a      	mov	r2, r5
 8008200:	6800      	ldr	r0, [r0, #0]
 8008202:	4631      	mov	r1, r6
 8008204:	f7ff ffdf 	bl	80081c6 <_swiwrite>
 8008208:	1e02      	subs	r2, r0, #0
 800820a:	db0a      	blt.n	8008222 <_write+0x3c>
 800820c:	6863      	ldr	r3, [r4, #4]
 800820e:	1aa8      	subs	r0, r5, r2
 8008210:	4403      	add	r3, r0
 8008212:	4295      	cmp	r5, r2
 8008214:	6063      	str	r3, [r4, #4]
 8008216:	d106      	bne.n	8008226 <_write+0x40>
 8008218:	2000      	movs	r0, #0
 800821a:	e8bd 4070 	ldmia.w	sp!, {r4, r5, r6, lr}
 800821e:	f7ff bf03 	b.w	8008028 <error>
 8008222:	f04f 30ff 	mov.w	r0, #4294967295
 8008226:	bd70      	pop	{r4, r5, r6, pc}

08008228 <_swiclose>:
 8008228:	b537      	push	{r0, r1, r2, r4, r5, lr}
 800822a:	ad02      	add	r5, sp, #8
 800822c:	2402      	movs	r4, #2
 800822e:	f845 0d04 	str.w	r0, [r5, #-4]!
 8008232:	4620      	mov	r0, r4
 8008234:	4629      	mov	r1, r5
 8008236:	beab      	bkpt	0x00ab
 8008238:	4604      	mov	r4, r0
 800823a:	4620      	mov	r0, r4
 800823c:	f7ff ff02 	bl	8008044 <checkerror>
 8008240:	b003      	add	sp, #12
 8008242:	bd30      	pop	{r4, r5, pc}

08008244 <_close>:
 8008244:	b538      	push	{r3, r4, r5, lr}
 8008246:	4605      	mov	r5, r0
 8008248:	f7ff fed4 	bl	8007ff4 <findslot>
 800824c:	4604      	mov	r4, r0
 800824e:	b930      	cbnz	r0, 800825e <_close+0x1a>
 8008250:	f7ff fa50 	bl	80076f4 <__errno>
 8008254:	2309      	movs	r3, #9
 8008256:	6003      	str	r3, [r0, #0]
 8008258:	f04f 30ff 	mov.w	r0, #4294967295
 800825c:	bd38      	pop	{r3, r4, r5, pc}
 800825e:	3d01      	subs	r5, #1
 8008260:	2d01      	cmp	r5, #1
 8008262:	d809      	bhi.n	8008278 <_close+0x34>
 8008264:	4b08      	ldr	r3, [pc, #32]	; (8008288 <_close+0x44>)
 8008266:	689a      	ldr	r2, [r3, #8]
 8008268:	691b      	ldr	r3, [r3, #16]
 800826a:	429a      	cmp	r2, r3
 800826c:	d104      	bne.n	8008278 <_close+0x34>
 800826e:	f04f 33ff 	mov.w	r3, #4294967295
 8008272:	6003      	str	r3, [r0, #0]
 8008274:	2000      	movs	r0, #0
 8008276:	bd38      	pop	{r3, r4, r5, pc}
 8008278:	6820      	ldr	r0, [r4, #0]
 800827a:	f7ff ffd5 	bl	8008228 <_swiclose>
 800827e:	b910      	cbnz	r0, 8008286 <_close+0x42>
 8008280:	f04f 33ff 	mov.w	r3, #4294967295
 8008284:	6023      	str	r3, [r4, #0]
 8008286:	bd38      	pop	{r3, r4, r5, pc}
 8008288:	1ffe8cbc 	.word	0x1ffe8cbc

0800828c <_swistat>:
 800828c:	b570      	push	{r4, r5, r6, lr}
 800828e:	460c      	mov	r4, r1
 8008290:	f7ff feb0 	bl	8007ff4 <findslot>
 8008294:	4606      	mov	r6, r0
 8008296:	b930      	cbnz	r0, 80082a6 <_swistat+0x1a>
 8008298:	f7ff fa2c 	bl	80076f4 <__errno>
 800829c:	2309      	movs	r3, #9
 800829e:	6003      	str	r3, [r0, #0]
 80082a0:	f04f 30ff 	mov.w	r0, #4294967295
 80082a4:	bd70      	pop	{r4, r5, r6, pc}
 80082a6:	6863      	ldr	r3, [r4, #4]
 80082a8:	f443 5300 	orr.w	r3, r3, #8192	; 0x2000
 80082ac:	6063      	str	r3, [r4, #4]
 80082ae:	f44f 6380 	mov.w	r3, #1024	; 0x400
 80082b2:	62e3      	str	r3, [r4, #44]	; 0x2c
 80082b4:	250c      	movs	r5, #12
 80082b6:	4628      	mov	r0, r5
 80082b8:	4631      	mov	r1, r6
 80082ba:	beab      	bkpt	0x00ab
 80082bc:	4605      	mov	r5, r0
 80082be:	4628      	mov	r0, r5
 80082c0:	f7ff fec0 	bl	8008044 <checkerror>
 80082c4:	1c43      	adds	r3, r0, #1
 80082c6:	bf1c      	itt	ne
 80082c8:	6120      	strne	r0, [r4, #16]
 80082ca:	2000      	movne	r0, #0
 80082cc:	bd70      	pop	{r4, r5, r6, pc}

080082ce <_fstat>:
 80082ce:	b538      	push	{r3, r4, r5, lr}
 80082d0:	223c      	movs	r2, #60	; 0x3c
 80082d2:	4605      	mov	r5, r0
 80082d4:	460c      	mov	r4, r1
 80082d6:	4608      	mov	r0, r1
 80082d8:	2100      	movs	r1, #0
 80082da:	f7ff fa42 	bl	8007762 <memset>
 80082de:	4628      	mov	r0, r5
 80082e0:	4621      	mov	r1, r4
 80082e2:	e8bd 4038 	ldmia.w	sp!, {r3, r4, r5, lr}
 80082e6:	f7ff bfd1 	b.w	800828c <_swistat>

080082ea <_isatty>:
 80082ea:	b570      	push	{r4, r5, r6, lr}
 80082ec:	f7ff fe82 	bl	8007ff4 <findslot>
 80082f0:	2509      	movs	r5, #9
 80082f2:	4604      	mov	r4, r0
 80082f4:	b918      	cbnz	r0, 80082fe <_isatty+0x14>
 80082f6:	f7ff f9fd 	bl	80076f4 <__errno>
 80082fa:	6005      	str	r5, [r0, #0]
 80082fc:	e00f      	b.n	800831e <_isatty+0x34>
 80082fe:	4628      	mov	r0, r5
 8008300:	4621      	mov	r1, r4
 8008302:	beab      	bkpt	0x00ab
 8008304:	4604      	mov	r4, r0
 8008306:	2c01      	cmp	r4, #1
 8008308:	d009      	beq.n	800831e <_isatty+0x34>
 800830a:	f7ff f9f3 	bl	80076f4 <__errno>
 800830e:	2400      	movs	r4, #0
 8008310:	4606      	mov	r6, r0
 8008312:	2513      	movs	r5, #19
 8008314:	4628      	mov	r0, r5
 8008316:	4621      	mov	r1, r4
 8008318:	beab      	bkpt	0x00ab
 800831a:	4605      	mov	r5, r0
 800831c:	6035      	str	r5, [r6, #0]
 800831e:	4620      	mov	r0, r4
 8008320:	bd70      	pop	{r4, r5, r6, pc}
	...

08008324 <MULTICAN_CONFIG_0_BitTimeConfig_node0>:
 8008324:	4400 0895 a120 0007 1f40 0001               .D.. ...@...

08008330 <MULTICAN_CONFIG_0_fc_node0>:
 8008330:	0000 0000                                   ....

08008334 <MULTICAN_CONFIG_0_Node0>:
 8008334:	8940 1ffe 4200 4801 8324 0800 8330 0800     @....B.H$...0...
	...
 800834c:	0000 0001                                   ....

08008350 <MULTICAN_CONFIG_0_BitTimeConfig_node1>:
 8008350:	4400 0895 a120 0007 1f40 0001               .D.. ...@...

0800835c <MULTICAN_CONFIG_0_fc_node1>:
 800835c:	0000 0000                                   ....

08008360 <MULTICAN_CONFIG_0_Node1>:
 8008360:	8940 1ffe 4300 4801 8350 0800 835c 0800     @....C.HP...\...
 8008370:	0100 0000 0000 0000 0000 0001               ............

0800837c <MULTICAN_CONFIG_0_BitTimeConfig_node2>:
 800837c:	4400 0895 a120 0007 1f40 0001               .D.. ...@...

08008388 <MULTICAN_CONFIG_0_fc_node2>:
 8008388:	0000 0000                                   ....

0800838c <MULTICAN_CONFIG_0_Node2>:
 800838c:	8940 1ffe 4400 4801 837c 0800 8388 0800     @....D.H|.......
 800839c:	0200 0000 0000 0000 0000 0001               ............

080083a8 <INTERRUPT_0>:
 80083a8:	3f4c 0100                                   L?..

080083ac <DIGITAL_IO_0>:
 80083ac:	8400 4802 0080 0000 0000 0001 0000 0000     ...H............
 80083bc:	0000 0000 0230 0101 0000 0001 0000 0000     ....0...........
 80083cc:	0000 0001 0102 0101 6966 7478 7275 3a65     ........fixture:
 80083dc:	5520 6470 7461 4465 7461 2061 6166 6c69      UpdateData fail
 80083ec:	6465 0000 6966 7478 7275 3a65 5420 6172     ed..fixture: Tra
 80083fc:	736e 696d 2074 6166 6c69 6465 0000 0000     nsmit failed....
 800840c:	6f6c 706f 6162 6b63 203a 4c44 2043 696d     loopback: DLC mi
 800841c:	6d73 7461 6863 0000 6f6c 706f 6162 6b63     smatch..loopback
 800842c:	203a 6170 6b63 7465 6320 756f 746e 7265     : packet counter
 800843c:	6e20 746f 6520 6863 656f 0064 6f6c 706f      not echoed.loop
 800844c:	6162 6b63 203a 6572 7073 6e6f 6573 6420     back: response d
 800845c:	7473 7720 6f72 676e 0000 0000 6f6c 706f     st wrong....loop
 800846c:	6162 6b63 203a 6572 7073 6e6f 6573 7320     back: response s
 800847c:	6372 7720 6f72 676e 0000 0000 6f6c 706f     rc wrong....loop
 800848c:	6162 6b63 203a 6164 6174 6d20 7369 616d     back: data misma
 800849c:	6374 0068 4144 4556 4120 5050 2073 6e69     tch.DAVE APPs in
 80084ac:	7469 6169 696c 617a 6974 6e6f 6620 6961     itialization fai
 80084bc:	656c 0064 6568 6c6c 206f 6f77 6c72 0064     led.hello world.

080084cc <s_seed6>:
 80084cc:	0123 0456 0789 0000                         #.V.....

080084d4 <s_test_table>:
 80084d4:	0000 0000 0006 0001 0006 0006 0002 000c     ................
 80084e4:	0006 0003 0012 0006 0004 0018 0006 0005     ................
 80084f4:	001e 0004 0006 0022 0004 0007 0026 0004     ......".....&...
 8008504:	0008 002a 0004 0009 002e 0004 000a 0032     ..*...........2.
 8008514:	0006 000b 0038 0006 000c 003e 0004 000d     ....8.....>.....
 8008524:	0042 0004 000e 0046 0004 000f 004a 0004     B.....F.....J...
 8008534:	0010 004e 0004 0011 0052 0004 0012 0056     ..N.....R.....V.
 8008544:	0004 0013 005a 0004 0014 005e 0006 0015     ....Z.....^.....
 8008554:	0064 0006 0016 006a 0004 0017 006e 0004     d.....j.....n...
 8008564:	0018 0072 0004 0019 0076 0004 001a 007a     ..r.....v.....z.
 8008574:	0004 001b 007e 0003 001c 0081 0003 001d     ....~...........
 8008584:	0084 0002 001e 0086 0002 001f 0088 0001     ................
 8008594:	0020 0089 0003 0021 008c 0004 0022 0090      .....!....."...
 80085a4:	0001 0023 0091 0003 0030 0094 0006 0031     ..#.....0.....1.
 80085b4:	009a 0006 0032 00a0 0006 0033 00a6 0006     ....2.....3.....
 80085c4:	0034 00ac 0006 0035 00b2 0004 0036 00b6     4.....5.....6...
 80085d4:	0004 0037 00ba 0004 0038 00be 0004 0039     ..7.....8.....9.
 80085e4:	00c2 0004 003a 00c6 0006 003b 00cc 0006     ....:.....;.....
 80085f4:	003c 00d2 0004 003d 00d6 0004 003e 00da     <.....=.....>...
 8008604:	0004 003f 00de 0004 0040 00e2 0004 0041     ..?.....@.....A.
 8008614:	00e6 0004 0042 00ea 0004 0043 00ee 0004     ....B.....C.....
 8008624:	0044 00f2 0006 0045 00f8 0006 0046 00fe     D.....E.....F...
 8008634:	0004 0047 0102 0004 0048 0106 0004 0049     ..G.....H.....I.
 8008644:	010a 0004 004a 010e 0004 0050 0112 0006     ....J.....P.....
 8008654:	0051 0118 0006 0052 011e 0006 0053 0124     Q.....R.....S.$.
 8008664:	0006 0054 012a 0006 0055 0130 0004 0056     ..T.*...U.0...V.
 8008674:	0134 0004 0057 0138 0004 0058 013c 0004     4...W.8...X.<...
 8008684:	0059 0140 0004 005a 0144 0006 005b 014a     Y.@...Z.D...[.J.
 8008694:	0006 005c 0150 0004 005d 0154 0004 005e     ..\.P...].T...^.
 80086a4:	0158 0004 005f 015c 0004 0060 0160 0004     X..._.\...`.`...
 80086b4:	0061 0164 0004 0062 0168 0004 0063 016c     a.d...b.h...c.l.
 80086c4:	0004 0064 0170 0006 0065 0176 0006 0066     ..d.p...e.v...f.
 80086d4:	017c 0004 0067 0180 0004 0068 0184 0004     |...g.....h.....
 80086e4:	0069 0188 0004 006a 018c 0004 0070 0190     i.....j.....p...
 80086f4:	0006 0071 0196 0006 0072 019c 0006 0073     ..q.....r.....s.
 8008704:	01a2 0006 0074 01a8 0006 0075 01ae 0004     ....t.....u.....
 8008714:	0076 01b2 0004 0077 01b6 0004 0078 01ba     v.....w.....x...
 8008724:	0004 0079 01be 0004 007a 01c2 0006 007b     ..y.....z.....{.
 8008734:	01c8 0006 007c 01ce 0004 007d 01d2 0004     ....|.....}.....
 8008744:	007e 01d6 0004 007f 01da 0004 0080 01de     ~...............
 8008754:	0004 0081 01e2 0004 0082 01e6 0004 0083     ................
 8008764:	01ea 0004 0084 01ee 0006 0085 01f4 0006     ................
 8008774:	0086 01fa 0004 0087 01fe 0004 0088 0202     ................
 8008784:	0004 0089 0206 0004 008a 020a 0004 0090     ................
 8008794:	020e 0006 0091 0214 0002 00a0 0218 0004     ................
 80087a4:	00a8 021c 0001 00a9 021d 0003 00aa 0220     .............. .
 80087b4:	0004 00b0 0224 0006 00b1 022a 0006 00b2     ....$.....*.....
 80087c4:	0230 0006 00b3 0236 0006 00b4 023c 0006     0.....6.....<...
 80087d4:	00b5 0242 0004 00b6 0246 0004 00b7 024a     ..B.....F.....J.
 80087e4:	0004 00b8 024e 0004 00b9 0252 0004 00ba     ....N.....R.....
 80087f4:	0256 0006 00bb 025c 0006 00bc 0262 0004     V.....\.....b...
 8008804:	00bd 0266 0004 00be 026a 0004 00bf 026e     ..f.....j.....n.
 8008814:	0004 00c0 0272 0004 00c1 0276 0004 00c2     ....r.....v.....
 8008824:	027a 0004 00c3 027e 0004 00c4 0282 0006     z.....~.........
 8008834:	00c5 0288 0006 00c6 028e 0004 00c7 0292     ................
 8008844:	0004 00c8 0296 0004 00c9 029a 0004 00ca     ................
 8008854:	029e 0004 00cb 02a2 0006 00cc 02a8 0204     ................
 8008864:	00cd 02ac 0006 00ce 02b2 0006 00cf 02b8     ................
 8008874:	0004 00d0 02bc 0006 00d1 02c2 0003 00d8     ................
 8008884:	02c5 0006 00d9 02cb 0003 01f8 02ce 0004     ................
 8008894:	01fa 02d2 0005 0000 0043 0000               ........C...

080088a0 <_global_impure_ptr>:
 80088a0:	894c 1ffe                                   L...

080088a4 <__sf_fake_stdin>:
	...

080088c4 <__sf_fake_stdout>:
	...

080088e4 <__sf_fake_stderr>:
	...
 8008904:	743a 0074                                   :tt.
