   1              	 .syntax unified
   2              	 .cpu cortex-m4
   3              	 .eabi_attribute 27,3
   4              	 .fpu fpv4-sp-d16
   5              	 .eabi_attribute 20,1
   6              	 .eabi_attribute 21,1
   7              	 .eabi_attribute 23,3
   8              	 .eabi_attribute 24,1
   9              	 .eabi_attribute 25,1
  10              	 .eabi_attribute 26,1
  11              	 .eabi_attribute 30,6
  12              	 .eabi_attribute 34,1
  13              	 .eabi_attribute 18,4
  14              	 .thumb
  15              	 .file "main.c"
  16              	 .text
  17              	.Ltext0:
  18              	 .cfi_sections .debug_frame
  19              	 .section .text.delay_ms,"ax",%progbits
  20              	 .align 2
  21              	 .thumb
  22              	 .thumb_func
  24              	delay_ms:
  25              	.LFB246:
  26              	 .file 1 "../main.c"
   1:../main.c     **** /*
   2:../main.c     ****  * main.c - Morelle Falcon 15 EB BMS diagnostic over CAN
   3:../main.c     ****  *
   4:../main.c     ****  * Polls all BMS data IDs every 2 seconds and prints raw CAN bytes plus
   5:../main.c     ****  * decoded values via XMC_DEBUG (SWO / J-Link trace, view in DAVE Debug console).
   6:../main.c     ****  *
   7:../main.c     ****  * CAN: 250 kbps, extended 29-bit IDs, Node 0, P2.0 TX / P14.3 RX (RXDCB)
   8:../main.c     ****  */
   9:../main.c     **** 
  10:../main.c     **** #include "DAVE.h"
  11:../main.c     **** #include "morelle_bms.h"
  12:../main.c     **** #include <stdint.h>
  13:../main.c     **** 
  14:../main.c     **** extern void initialise_monitor_handles(void);
  15:../main.c     **** 
  16:../main.c     **** /* ~1 ms delay at 144 MHz: 28800 iterations ≈ 1 ms (calibrated same as RS485 project) */
  17:../main.c     **** static void delay_ms(uint32_t ms)
  18:../main.c     **** {
  27              	 .loc 1 18 0
  28              	 .cfi_startproc
  29              	 
  30              	 
  31              	 
  32 0000 80B4     	 push {r7}
  33              	.LCFI0:
  34              	 .cfi_def_cfa_offset 4
  35              	 .cfi_offset 7,-4
  36 0002 85B0     	 sub sp,sp,#20
  37              	.LCFI1:
  38              	 .cfi_def_cfa_offset 24
  39 0004 00AF     	 add r7,sp,#0
  40              	.LCFI2:
  41              	 .cfi_def_cfa_register 7
  42 0006 7860     	 str r0,[r7,#4]
  19:../main.c     ****     volatile uint32_t i;
  20:../main.c     ****     for (i = 0U; i < ms * 28800U; i++) {}
  43              	 .loc 1 20 0
  44 0008 0023     	 movs r3,#0
  45 000a FB60     	 str r3,[r7,#12]
  46 000c 02E0     	 b .L2
  47              	.L3:
  48              	 .loc 1 20 0 is_stmt 0 discriminator 3
  49 000e FB68     	 ldr r3,[r7,#12]
  50 0010 0133     	 adds r3,r3,#1
  51 0012 FB60     	 str r3,[r7,#12]
  52              	.L2:
  53              	 .loc 1 20 0 discriminator 1
  54 0014 7B68     	 ldr r3,[r7,#4]
  55 0016 4FF4E142 	 mov r2,#28800
  56 001a 02FB03F2 	 mul r2,r2,r3
  57 001e FB68     	 ldr r3,[r7,#12]
  58 0020 9A42     	 cmp r2,r3
  59 0022 F4D8     	 bhi .L3
  21:../main.c     **** }
  60              	 .loc 1 21 0 is_stmt 1
  61 0024 1437     	 adds r7,r7,#20
  62              	.LCFI3:
  63              	 .cfi_def_cfa_offset 4
  64 0026 BD46     	 mov sp,r7
  65              	.LCFI4:
  66              	 .cfi_def_cfa_register 13
  67              	 
  68 0028 5DF8047B 	 ldr r7,[sp],#4
  69              	.LCFI5:
  70              	 .cfi_restore 7
  71              	 .cfi_def_cfa_offset 0
  72 002c 7047     	 bx lr
  73              	 .cfi_endproc
  74              	.LFE246:
  76 002e 00BF     	 .section .rodata
  77              	 .align 2
  78              	.LC1:
  79 0000 44415645 	 .ascii "DAVE APPs initialization failed\000"
  79      20415050 
  79      7320696E 
  79      69746961 
  79      6C697A61 
  80              	 .align 2
  81              	.LC2:
  82 0020 4E6F6465 	 .ascii "Node0 NCR=0x%08lX  NBTR=0x%08lX  NSR=0x%08lX\012\000"
  82      30204E43 
  82      523D3078 
  82      2530386C 
  82      5820204E 
  83 004e 0000     	 .align 2
  84              	.LC3:
  85 0050 4D4F3028 	 .ascii "MO0(TX) MOSTAT=0x%08lX  LIST=%lu\012\000"
  85      54582920 
  85      4D4F5354 
  85      41543D30 
  85      78253038 
  86 0072 0000     	 .align 2
  87              	.LC4:
  88 0074 4D4F3128 	 .ascii "MO1(RX) MOSTAT=0x%08lX  LIST=%lu\012\000"
  88      52582920 
  88      4D4F5354 
  88      41543D30 
  88      78253038 
  89 0096 0000     	 .align 2
  90              	.LC5:
  91 0098 4D6F7265 	 .ascii "Morelle BMS monitor started (250 kbps CAN, battery "
  91      6C6C6520 
  91      424D5320 
  91      6D6F6E69 
  91      746F7220 
  92 00cb 61646472 	 .ascii "addr 0x%02X)\012\000"
  92      20307825 
  92      30325829 
  92      0A00
  93 00d9 000000   	 .align 2
  94              	.LC6:
  95 00dc 0A3D3D3D 	 .ascii "\012========== BMS Poll ==========\000"
  95      3D3D3D3D 
  95      3D3D3D20 
  95      424D5320 
  95      506F6C6C 
  96              	 .align 2
  97              	.LC7:
  98 00fc 2D00     	 .ascii "-\000"
  99 00fe 0000     	 .align 2
 100              	.LC8:
 101 0100 00       	 .ascii "\000"
 102 0101 000000   	 .align 2
 103              	.LC9:
 104 0104 5B307839 	 .ascii "[0x90] Pack Totals: Pack=%lu.%luV  I=%s%lu.%luA  So"
 104      305D2050 
 104      61636B20 
 104      546F7461 
 104      6C733A20 
 105 0137 433D256C 	 .ascii "C=%lu.%lu%%\012\000"
 105      752E256C 
 105      7525250A 
 105      00
 106              	 .align 2
 107              	.LC10:
 108 0144 5B307839 	 .ascii "[0x91] Max: %u mV (cell %u)  Min: %u mV (cell %u)\012"
 108      315D204D 
 108      61783A20 
 108      2575206D 
 108      56202863 
 109 0176 00       	 .ascii "\000"
 110 0177 00       	 .align 2
 111              	.LC11:
 112 0178 5B307839 	 .ascii "[0x92] Max: %d C (sensor %u)  Min: %d C (sensor %u)"
 112      325D204D 
 112      61783A20 
 112      25642043 
 112      20287365 
 113 01ab 0A00     	 .ascii "\012\000"
 114 01ad 000000   	 .align 2
 115              	.LC12:
 116 01b0 44534700 	 .ascii "DSG\000"
 117              	 .align 2
 118              	.LC13:
 119 01b4 49444C45 	 .ascii "IDLE\000"
 119      00
 120 01b9 000000   	 .align 2
 121              	.LC14:
 122 01bc 43484700 	 .ascii "CHG\000"
 123              	 .align 2
 124              	.LC15:
 125 01c0 5B307839 	 .ascii "[0x93] State: %s  ChgMOS: %u  DsgMOS: %u  Rem: %lu "
 125      335D2053 
 125      74617465 
 125      3A202573 
 125      20204368 
 126 01f3 6D41680A 	 .ascii "mAh\012\000"
 126      00
 127              	 .align 2
 128              	.LC16:
 129 01f8 5B307839 	 .ascii "[0x94] Status Info: Cells=%u  Temp sensors=%u\012\000"
 129      345D2053 
 129      74617475 
 129      7320496E 
 129      666F3A20 
 130 0227 00       	 .align 2
 131              	.LC17:
 132 0228 5B307839 	 .ascii "[0x95] Cell mV:\000"
 132      355D2043 
 132      656C6C20 
 132      6D563A00 
 133              	 .align 2
 134              	.LC18:
 135 0238 20257500 	 .ascii " %u\000"
 136              	 .align 2
 137              	.LC19:
 138 023c 5B307839 	 .ascii "[0x96] Temps C:\000"
 138      365D2054 
 138      656D7073 
 138      20433A00 
 139              	 .align 2
 140              	.LC20:
 141 024c 20256400 	 .ascii " %d\000"
 142              	 .align 2
 143              	.LC21:
 144 0250 5B307839 	 .ascii "[0x97] Balance mask: %02X %02X %02X\012\000"
 144      375D2042 
 144      616C616E 
 144      6365206D 
 144      61736B3A 
 145 0275 000000   	 .align 2
 146              	.LC22:
 147 0278 3C464155 	 .ascii "<FAULT>\000"
 147      4C543E00 
 148              	 .align 2
 149              	.LC23:
 150 0280 4F4B00   	 .ascii "OK\000"
 151 0283 00       	 .align 2
 152              	.LC24:
 153 0284 5B307839 	 .ascii "[0x98] %02X %02X %02X %02X %02X %02X %02X %02X  %s\012"
 153      385D2025 
 153      30325820 
 153      25303258 
 153      20253032 
 154 02b7 00       	 .ascii "\000"
 155              	 .align 2
 156              	.LC0:
 157 02b8 0D       	 .byte 13
 158 02b9 04       	 .byte 4
 159 02ba 0000     	 .section .text.main,"ax",%progbits
 160              	 .align 2
 161              	 .global main
 162              	 .thumb
 163              	 .thumb_func
 165              	main:
 166              	.LFB247:
  22:../main.c     **** 
  23:../main.c     **** 
  24:../main.c     **** int main(void)
  25:../main.c     **** {
 167              	 .loc 1 25 0
 168              	 .cfi_startproc
 169              	 
 170              	 
 171 0000 F0B5     	 push {r4,r5,r6,r7,lr}
 172              	.LCFI6:
 173              	 .cfi_def_cfa_offset 20
 174              	 .cfi_offset 4,-20
 175              	 .cfi_offset 5,-16
 176              	 .cfi_offset 6,-12
 177              	 .cfi_offset 7,-8
 178              	 .cfi_offset 14,-4
 179 0002 A5B0     	 sub sp,sp,#148
 180              	.LCFI7:
 181              	 .cfi_def_cfa_offset 168
 182 0004 06AF     	 add r7,sp,#24
 183              	.LCFI8:
 184              	 .cfi_def_cfa 7,144
  26:../main.c     ****     DAVE_STATUS_t status;
  27:../main.c     **** 
  28:../main.c     ****     status = DAVE_Init();
 185              	 .loc 1 28 0
 186 0006 FFF7FEFF 	 bl DAVE_Init
 187 000a 0346     	 mov r3,r0
 188 000c 87F87530 	 strb r3,[r7,#117]
  29:../main.c     ****     initialise_monitor_handles();
 189              	 .loc 1 29 0
 190 0010 FFF7FEFF 	 bl initialise_monitor_handles
  30:../main.c     **** 
  31:../main.c     ****     if (status != DAVE_STATUS_SUCCESS)
 191              	 .loc 1 31 0
 192 0014 97F87530 	 ldrb r3,[r7,#117]
 193 0018 002B     	 cmp r3,#0
 194 001a 03D0     	 beq .L5
  32:../main.c     ****     {
  33:../main.c     ****         XMC_DEBUG("DAVE APPs initialization failed\n");
 195              	 .loc 1 33 0
 196 001c B348     	 ldr r0,.L31
 197 001e FFF7FEFF 	 bl puts
 198              	.L6:
  34:../main.c     ****         while (1U) {}
 199              	 .loc 1 34 0 discriminator 1
 200 0022 FEE7     	 b .L6
 201              	.L5:
  35:../main.c     ****     }
  36:../main.c     **** 
  37:../main.c     ****     /* Configure CAN Node 0 for 250 kbps on-board transceiver (P2.0/P14.3) */
  38:../main.c     ****     Morelle_NodeInit();
 202              	 .loc 1 38 0
 203 0024 FFF7FEFF 	 bl Morelle_NodeInit
  39:../main.c     **** 
  40:../main.c     ****     /* Verify Node 0 is running + MOs are in list 1 (= CAN_NODE0). LIST is
  41:../main.c     ****      * MOSTAT[3:0]; a value of 1 means the MO is allocated to Node 0. */
  42:../main.c     ****     XMC_DEBUG("Node0 NCR=0x%08lX  NBTR=0x%08lX  NSR=0x%08lX\n",
 204              	 .loc 1 42 0
 205 0028 B14B     	 ldr r3,.L31+4
 206 002a 1968     	 ldr r1,[r3]
 207 002c B04B     	 ldr r3,.L31+4
 208 002e 1A69     	 ldr r2,[r3,#16]
 209 0030 AF4B     	 ldr r3,.L31+4
 210 0032 5B68     	 ldr r3,[r3,#4]
 211 0034 AF48     	 ldr r0,.L31+8
 212 0036 FFF7FEFF 	 bl printf
  43:../main.c     ****               (unsigned long)CAN_NODE0->NCR,
  44:../main.c     ****               (unsigned long)CAN_NODE0->NBTR,
  45:../main.c     ****               (unsigned long)CAN_NODE0->NSR);
  46:../main.c     ****     XMC_DEBUG("MO0(TX) MOSTAT=0x%08lX  LIST=%lu\n",
 213              	 .loc 1 46 0
 214 003a AF4B     	 ldr r3,.L31+12
 215 003c DA69     	 ldr r2,[r3,#28]
 216 003e AE4B     	 ldr r3,.L31+12
 217 0040 DB69     	 ldr r3,[r3,#28]
 218 0042 03F47043 	 and r3,r3,#61440
 219 0046 1B0B     	 lsrs r3,r3,#12
 220 0048 AC48     	 ldr r0,.L31+16
 221 004a 1146     	 mov r1,r2
 222 004c 1A46     	 mov r2,r3
 223 004e FFF7FEFF 	 bl printf
  47:../main.c     ****               (unsigned long)CAN_MO0->MOSTAT,
  48:../main.c     ****               (unsigned long)((CAN_MO0->MOSTAT & CAN_MO_MOSTAT_LIST_Msk) >> CAN_MO_MOSTAT_LIST_Pos)
  49:../main.c     ****     XMC_DEBUG("MO1(RX) MOSTAT=0x%08lX  LIST=%lu\n",
 224              	 .loc 1 49 0
 225 0052 AB4B     	 ldr r3,.L31+20
 226 0054 DA69     	 ldr r2,[r3,#28]
 227 0056 AA4B     	 ldr r3,.L31+20
 228 0058 DB69     	 ldr r3,[r3,#28]
 229 005a 03F47043 	 and r3,r3,#61440
 230 005e 1B0B     	 lsrs r3,r3,#12
 231 0060 A848     	 ldr r0,.L31+24
 232 0062 1146     	 mov r1,r2
 233 0064 1A46     	 mov r2,r3
 234 0066 FFF7FEFF 	 bl printf
  50:../main.c     ****               (unsigned long)CAN_MO1->MOSTAT,
  51:../main.c     ****               (unsigned long)((CAN_MO1->MOSTAT & CAN_MO_MOSTAT_LIST_Msk) >> CAN_MO_MOSTAT_LIST_Pos)
  52:../main.c     **** 
  53:../main.c     ****     XMC_DEBUG("Morelle BMS monitor started (250 kbps CAN, battery addr 0x%02X)\n",
 235              	 .loc 1 53 0
 236 006a A748     	 ldr r0,.L31+28
 237 006c 0221     	 movs r1,#2
 238 006e FFF7FEFF 	 bl printf
 239              	.L30:
 240              	.LBB2:
  54:../main.c     ****               (unsigned)MORELLE_BATT_ADDR);
  55:../main.c     **** 
  56:../main.c     ****     for (;;)
  57:../main.c     ****     {
  58:../main.c     ****         /* All locals at top of block — required for GCC 4.9 / arm-none-eabi-gcc -std=gnu99 */
  59:../main.c     ****         Morelle_StatusInfo_t   info   = {13U, 4U};  /* 13-cell default; overridden by 0x94 */
 241              	 .loc 1 59 0
 242 0072 A64A     	 ldr r2,.L31+32
 243 0074 07F15C03 	 add r3,r7,#92
 244 0078 1288     	 ldrh r2,[r2]
 245 007a 1A80     	 strh r2,[r3]
  60:../main.c     ****         Morelle_PackTotals_t   pack;
  61:../main.c     ****         Morelle_CellExtremes_t cext;
  62:../main.c     ****         Morelle_TempExtremes_t text;
  63:../main.c     ****         Morelle_MosState_t     mos;
  64:../main.c     ****         Morelle_CellVoltages_t vcells;
  65:../main.c     ****         Morelle_Temperatures_t vtemps;
  66:../main.c     ****         Morelle_CellBalance_t  bal;
  67:../main.c     ****         Morelle_FaultStatus_t  fault;
  68:../main.c     ****         Morelle_Status_t       st;
  69:../main.c     ****         const char            *mos_str;
  70:../main.c     ****         uint8_t                any;
  71:../main.c     ****         uint8_t                i;
  72:../main.c     **** 
  73:../main.c     ****         XMC_DEBUG("\n========== BMS Poll ==========\n");
 246              	 .loc 1 73 0
 247 007c A448     	 ldr r0,.L31+36
 248 007e FFF7FEFF 	 bl puts
  74:../main.c     **** 
  75:../main.c     ****         /* 0x90 Pack Totals — scale floats to tenths; -specs=nano.specs strips %f. */
  76:../main.c     ****         st = Morelle_GetPackTotals(&pack);
 249              	 .loc 1 76 0
 250 0082 07F15003 	 add r3,r7,#80
 251 0086 1846     	 mov r0,r3
 252 0088 FFF7FEFF 	 bl Morelle_GetPackTotals
 253 008c 0346     	 mov r3,r0
 254 008e 87F87430 	 strb r3,[r7,#116]
  77:../main.c     ****         if (st == MORELLE_OK) {
 255              	 .loc 1 77 0
 256 0092 97F87430 	 ldrb r3,[r7,#116]
 257 0096 002B     	 cmp r3,#0
 258 0098 6DD1     	 bne .L7
 259              	.LBB3:
  78:../main.c     ****             uint32_t pv_dv = (uint32_t)(pack.pack_v * 10.0f + 0.5f);
 260              	 .loc 1 78 0
 261 009a D7ED147A 	 flds s15,[r7,#80]
 262 009e B2EE047A 	 fconsts s14,#36
 263 00a2 67EE877A 	 fmuls s15,s15,s14
 264 00a6 B6EE007A 	 fconsts s14,#96
 265 00aa 77EE877A 	 fadds s15,s15,s14
 266 00ae FCEEE77A 	 ftouizs s15,s15
 267 00b2 17EE903A 	 fmrs r3,s15
 268 00b6 3B67     	 str r3,[r7,#112]
  79:../main.c     ****             int32_t  cu_da = (int32_t)(pack.current_a * 10.0f);
 269              	 .loc 1 79 0
 270 00b8 D7ED157A 	 flds s15,[r7,#84]
 271 00bc B2EE047A 	 fconsts s14,#36
 272 00c0 67EE877A 	 fmuls s15,s15,s14
 273 00c4 FDEEE77A 	 ftosizs s15,s15
 274 00c8 17EE903A 	 fmrs r3,s15
 275 00cc FB66     	 str r3,[r7,#108]
  80:../main.c     ****             uint32_t so_dp = (uint32_t)(pack.soc_pct * 10.0f + 0.5f);
 276              	 .loc 1 80 0
 277 00ce D7ED167A 	 flds s15,[r7,#88]
 278 00d2 B2EE047A 	 fconsts s14,#36
 279 00d6 67EE877A 	 fmuls s15,s15,s14
 280 00da B6EE007A 	 fconsts s14,#96
 281 00de 77EE877A 	 fadds s15,s15,s14
 282 00e2 FCEEE77A 	 ftouizs s15,s15
 283 00e6 17EE903A 	 fmrs r3,s15
 284 00ea BB66     	 str r3,[r7,#104]
  81:../main.c     ****             uint32_t cu_abs = (uint32_t)((cu_da < 0) ? -cu_da : cu_da);
 285              	 .loc 1 81 0
 286 00ec FB6E     	 ldr r3,[r7,#108]
 287 00ee 002B     	 cmp r3,#0
 288 00f0 B8BF     	 it lt
 289 00f2 5B42     	 rsblt r3,r3,#0
 290 00f4 7B66     	 str r3,[r7,#100]
  82:../main.c     ****             XMC_DEBUG("[0x90] Pack Totals: Pack=%lu.%luV  I=%s%lu.%luA  SoC=%lu.%lu%%\n",
 291              	 .loc 1 82 0
 292 00f6 3B6F     	 ldr r3,[r7,#112]
 293 00f8 864A     	 ldr r2,.L31+40
 294 00fa A2FB0323 	 umull r2,r3,r2,r3
 295 00fe 4FEAD30C 	 lsr ip,r3,#3
 296 0102 3A6F     	 ldr r2,[r7,#112]
 297 0104 834B     	 ldr r3,.L31+40
 298 0106 A3FB0213 	 umull r1,r3,r3,r2
 299 010a DC08     	 lsrs r4,r3,#3
 300 010c 2346     	 mov r3,r4
 301 010e 9B00     	 lsls r3,r3,#2
 302 0110 2344     	 add r3,r3,r4
 303 0112 5B00     	 lsls r3,r3,#1
 304 0114 D41A     	 subs r4,r2,r3
 305 0116 FB6E     	 ldr r3,[r7,#108]
 306 0118 002B     	 cmp r3,#0
 307 011a 02DA     	 bge .L8
 308              	 .loc 1 82 0 is_stmt 0 discriminator 1
 309 011c DFF824E2 	 ldr lr,.L31+88
 310 0120 01E0     	 b .L9
 311              	.L8:
 312              	 .loc 1 82 0 discriminator 2
 313 0122 DFF824E2 	 ldr lr,.L31+92
 314              	.L9:
 315              	 .loc 1 82 0 discriminator 4
 316 0126 7B6E     	 ldr r3,[r7,#100]
 317 0128 7A4A     	 ldr r2,.L31+40
 318 012a A2FB0323 	 umull r2,r3,r2,r3
 319 012e DE08     	 lsrs r6,r3,#3
 320 0130 7A6E     	 ldr r2,[r7,#100]
 321 0132 784B     	 ldr r3,.L31+40
 322 0134 A3FB0213 	 umull r1,r3,r3,r2
 323 0138 D908     	 lsrs r1,r3,#3
 324 013a 0B46     	 mov r3,r1
 325 013c 9B00     	 lsls r3,r3,#2
 326 013e 0B44     	 add r3,r3,r1
 327 0140 5B00     	 lsls r3,r3,#1
 328 0142 D11A     	 subs r1,r2,r3
 329 0144 BB6E     	 ldr r3,[r7,#104]
 330 0146 734A     	 ldr r2,.L31+40
 331 0148 A2FB0323 	 umull r2,r3,r2,r3
 332 014c DD08     	 lsrs r5,r3,#3
 333 014e B86E     	 ldr r0,[r7,#104]
 334 0150 704B     	 ldr r3,.L31+40
 335 0152 A3FB0023 	 umull r2,r3,r3,r0
 336 0156 DA08     	 lsrs r2,r3,#3
 337 0158 1346     	 mov r3,r2
 338 015a 9B00     	 lsls r3,r3,#2
 339 015c 1344     	 add r3,r3,r2
 340 015e 5B00     	 lsls r3,r3,#1
 341 0160 C21A     	 subs r2,r0,r3
 342 0162 0096     	 str r6,[sp]
 343 0164 0191     	 str r1,[sp,#4]
 344 0166 0295     	 str r5,[sp,#8]
 345 0168 0392     	 str r2,[sp,#12]
 346 016a 6B48     	 ldr r0,.L31+44
 347 016c 6146     	 mov r1,ip
 348 016e 2246     	 mov r2,r4
 349 0170 7346     	 mov r3,lr
 350 0172 FFF7FEFF 	 bl printf
 351              	.L7:
 352              	.LBE3:
  83:../main.c     ****                       (unsigned long)(pv_dv / 10U), (unsigned long)(pv_dv % 10U),
  84:../main.c     ****                       (cu_da < 0) ? "-" : "",
  85:../main.c     ****                       (unsigned long)(cu_abs / 10U), (unsigned long)(cu_abs % 10U),
  86:../main.c     ****                       (unsigned long)(so_dp / 10U), (unsigned long)(so_dp % 10U));
  87:../main.c     ****         }
  88:../main.c     **** 
  89:../main.c     ****         /* 0x91 Cell Voltage Extremes */
  90:../main.c     ****         st = Morelle_GetCellExtremes(&cext);
 353              	 .loc 1 90 0 is_stmt 1
 354 0176 07F14803 	 add r3,r7,#72
 355 017a 1846     	 mov r0,r3
 356 017c FFF7FEFF 	 bl Morelle_GetCellExtremes
 357 0180 0346     	 mov r3,r0
 358 0182 87F87430 	 strb r3,[r7,#116]
  91:../main.c     ****         if (st == MORELLE_OK) {
 359              	 .loc 1 91 0
 360 0186 97F87430 	 ldrb r3,[r7,#116]
 361 018a 002B     	 cmp r3,#0
 362 018c 0FD1     	 bne .L10
  92:../main.c     ****             XMC_DEBUG("[0x91] Max: %u mV (cell %u)  Min: %u mV (cell %u)\n",
 363              	 .loc 1 92 0
 364 018e B7F84830 	 ldrh r3,[r7,#72]
 365 0192 1946     	 mov r1,r3
 366 0194 97F84A30 	 ldrb r3,[r7,#74]
 367 0198 1A46     	 mov r2,r3
 368 019a B7F84C30 	 ldrh r3,[r7,#76]
 369 019e 1C46     	 mov r4,r3
 370 01a0 97F84E30 	 ldrb r3,[r7,#78]
 371 01a4 0093     	 str r3,[sp]
 372 01a6 5D48     	 ldr r0,.L31+48
 373 01a8 2346     	 mov r3,r4
 374 01aa FFF7FEFF 	 bl printf
 375              	.L10:
  93:../main.c     ****                       (unsigned)cext.max_mv, (unsigned)cext.max_cell,
  94:../main.c     ****                       (unsigned)cext.min_mv, (unsigned)cext.min_cell);
  95:../main.c     ****         }
  96:../main.c     **** 
  97:../main.c     ****         /* 0x92 Temperature Extremes */
  98:../main.c     ****         st = Morelle_GetTempExtremes(&text);
 376              	 .loc 1 98 0
 377 01ae 07F14403 	 add r3,r7,#68
 378 01b2 1846     	 mov r0,r3
 379 01b4 FFF7FEFF 	 bl Morelle_GetTempExtremes
 380 01b8 0346     	 mov r3,r0
 381 01ba 87F87430 	 strb r3,[r7,#116]
  99:../main.c     ****         if (st == MORELLE_OK) {
 382              	 .loc 1 99 0
 383 01be 97F87430 	 ldrb r3,[r7,#116]
 384 01c2 002B     	 cmp r3,#0
 385 01c4 10D1     	 bne .L11
 100:../main.c     ****             XMC_DEBUG("[0x92] Max: %d C (sensor %u)  Min: %d C (sensor %u)\n",
 386              	 .loc 1 100 0
 387 01c6 97F84430 	 ldrb r3,[r7,#68]
 388 01ca 5AB2     	 sxtb r2,r3
 389 01cc 97F84530 	 ldrb r3,[r7,#69]
 390 01d0 1C46     	 mov r4,r3
 391 01d2 97F84630 	 ldrb r3,[r7,#70]
 392 01d6 5BB2     	 sxtb r3,r3
 393 01d8 97F84710 	 ldrb r1,[r7,#71]
 394 01dc 0091     	 str r1,[sp]
 395 01de 5048     	 ldr r0,.L31+52
 396 01e0 1146     	 mov r1,r2
 397 01e2 2246     	 mov r2,r4
 398 01e4 FFF7FEFF 	 bl printf
 399              	.L11:
 101:../main.c     ****                       (int)text.max_c, (unsigned)text.max_sensor,
 102:../main.c     ****                       (int)text.min_c, (unsigned)text.min_sensor);
 103:../main.c     ****         }
 104:../main.c     **** 
 105:../main.c     ****         /* 0x93 MOS State */
 106:../main.c     ****         st = Morelle_GetMosState(&mos);
 400              	 .loc 1 106 0
 401 01e8 07F13C03 	 add r3,r7,#60
 402 01ec 1846     	 mov r0,r3
 403 01ee FFF7FEFF 	 bl Morelle_GetMosState
 404 01f2 0346     	 mov r3,r0
 405 01f4 87F87430 	 strb r3,[r7,#116]
 107:../main.c     ****         if (st == MORELLE_OK) {
 406              	 .loc 1 107 0
 407 01f8 97F87430 	 ldrb r3,[r7,#116]
 408 01fc 002B     	 cmp r3,#0
 409 01fe 1AD1     	 bne .L12
 108:../main.c     ****             mos_str = (mos.state == 1U) ? "CHG" :
 410              	 .loc 1 108 0
 411 0200 97F83C30 	 ldrb r3,[r7,#60]
 412 0204 012B     	 cmp r3,#1
 413 0206 07D0     	 beq .L13
 109:../main.c     ****                       (mos.state == 2U) ? "DSG" : "IDLE";
 414              	 .loc 1 109 0 discriminator 1
 415 0208 97F83C30 	 ldrb r3,[r7,#60]
 108:../main.c     ****             mos_str = (mos.state == 1U) ? "CHG" :
 416              	 .loc 1 108 0 discriminator 1
 417 020c 022B     	 cmp r3,#2
 418 020e 01D1     	 bne .L14
 108:../main.c     ****             mos_str = (mos.state == 1U) ? "CHG" :
 419              	 .loc 1 108 0 is_stmt 0 discriminator 3
 420 0210 444B     	 ldr r3,.L31+56
 421 0212 02E0     	 b .L16
 422              	.L14:
 108:../main.c     ****             mos_str = (mos.state == 1U) ? "CHG" :
 423              	 .loc 1 108 0 discriminator 4
 424 0214 444B     	 ldr r3,.L31+60
 425 0216 00E0     	 b .L16
 426              	.L13:
 108:../main.c     ****             mos_str = (mos.state == 1U) ? "CHG" :
 427              	 .loc 1 108 0 discriminator 2
 428 0218 444B     	 ldr r3,.L31+64
 429              	.L16:
 108:../main.c     ****             mos_str = (mos.state == 1U) ? "CHG" :
 430              	 .loc 1 108 0 discriminator 8
 431 021a 3B66     	 str r3,[r7,#96]
 110:../main.c     ****             XMC_DEBUG("[0x93] State: %s  ChgMOS: %u  DsgMOS: %u  Rem: %lu mAh\n",
 432              	 .loc 1 110 0 is_stmt 1 discriminator 8
 433 021c 97F83D30 	 ldrb r3,[r7,#61]
 434 0220 1A46     	 mov r2,r3
 435 0222 97F83E30 	 ldrb r3,[r7,#62]
 436 0226 1C46     	 mov r4,r3
 437 0228 3B6C     	 ldr r3,[r7,#64]
 438 022a 0093     	 str r3,[sp]
 439 022c 4048     	 ldr r0,.L31+68
 440 022e 396E     	 ldr r1,[r7,#96]
 441 0230 2346     	 mov r3,r4
 442 0232 FFF7FEFF 	 bl printf
 443              	.L12:
 111:../main.c     ****                       mos_str, (unsigned)mos.chg_mos, (unsigned)mos.dsg_mos,
 112:../main.c     ****                       (unsigned long)mos.remaining_mah);
 113:../main.c     ****         }
 114:../main.c     **** 
 115:../main.c     ****         /* 0x94 Status Info — must precede 0x95/0x96 (feeds their count). */
 116:../main.c     ****         st = Morelle_GetStatusInfo(&info);
 444              	 .loc 1 116 0
 445 0236 07F15C03 	 add r3,r7,#92
 446 023a 1846     	 mov r0,r3
 447 023c FFF7FEFF 	 bl Morelle_GetStatusInfo
 448 0240 0346     	 mov r3,r0
 449 0242 87F87430 	 strb r3,[r7,#116]
 117:../main.c     ****         if (st == MORELLE_OK) {
 450              	 .loc 1 117 0
 451 0246 97F87430 	 ldrb r3,[r7,#116]
 452 024a 002B     	 cmp r3,#0
 453 024c 09D1     	 bne .L17
 118:../main.c     ****             XMC_DEBUG("[0x94] Status Info: Cells=%u  Temp sensors=%u\n",
 454              	 .loc 1 118 0
 455 024e 97F85C30 	 ldrb r3,[r7,#92]
 456 0252 1A46     	 mov r2,r3
 457 0254 97F85D30 	 ldrb r3,[r7,#93]
 458 0258 3648     	 ldr r0,.L31+72
 459 025a 1146     	 mov r1,r2
 460 025c 1A46     	 mov r2,r3
 461 025e FFF7FEFF 	 bl printf
 462              	.L17:
 119:../main.c     ****                       (unsigned)info.num_cells, (unsigned)info.num_temps);
 120:../main.c     ****         }
 121:../main.c     **** 
 122:../main.c     ****         /* 0x95 Cell Voltages (multi-frame) */
 123:../main.c     ****         st = Morelle_GetCellVoltages(&vcells, info.num_cells);
 463              	 .loc 1 123 0
 464 0262 97F85C30 	 ldrb r3,[r7,#92]
 465 0266 3A46     	 mov r2,r7
 466 0268 1046     	 mov r0,r2
 467 026a 1946     	 mov r1,r3
 468 026c FFF7FEFF 	 bl Morelle_GetCellVoltages
 469 0270 0346     	 mov r3,r0
 470 0272 87F87430 	 strb r3,[r7,#116]
 124:../main.c     ****         if (st == MORELLE_OK) {
 471              	 .loc 1 124 0
 472 0276 97F87430 	 ldrb r3,[r7,#116]
 473 027a 002B     	 cmp r3,#0
 474 027c 20D1     	 bne .L18
 125:../main.c     ****             XMC_DEBUG("[0x95] Cell mV:");
 475              	 .loc 1 125 0
 476 027e 2E48     	 ldr r0,.L31+76
 477 0280 FFF7FEFF 	 bl printf
 126:../main.c     ****             for (i = 0U; i < vcells.count; i++) {
 478              	 .loc 1 126 0
 479 0284 0023     	 movs r3,#0
 480 0286 87F87630 	 strb r3,[r7,#118]
 481 028a 10E0     	 b .L19
 482              	.L20:
 127:../main.c     ****                 XMC_DEBUG(" %u", (unsigned)vcells.mv[i]);
 483              	 .loc 1 127 0 discriminator 3
 484 028c 97F87630 	 ldrb r3,[r7,#118]
 485 0290 5B00     	 lsls r3,r3,#1
 486 0292 07F17802 	 add r2,r7,#120
 487 0296 1344     	 add r3,r3,r2
 488 0298 33F8783C 	 ldrh r3,[r3,#-120]
 489 029c 2748     	 ldr r0,.L31+80
 490 029e 1946     	 mov r1,r3
 491 02a0 FFF7FEFF 	 bl printf
 126:../main.c     ****             for (i = 0U; i < vcells.count; i++) {
 492              	 .loc 1 126 0 discriminator 3
 493 02a4 97F87630 	 ldrb r3,[r7,#118]
 494 02a8 0133     	 adds r3,r3,#1
 495 02aa 87F87630 	 strb r3,[r7,#118]
 496              	.L19:
 126:../main.c     ****             for (i = 0U; i < vcells.count; i++) {
 497              	 .loc 1 126 0 is_stmt 0 discriminator 1
 498 02ae 97F82030 	 ldrb r3,[r7,#32]
 499 02b2 97F87620 	 ldrb r2,[r7,#118]
 500 02b6 9A42     	 cmp r2,r3
 501 02b8 E8D3     	 bcc .L20
 128:../main.c     ****             }
 129:../main.c     ****             XMC_DEBUG("\n");
 502              	 .loc 1 129 0 is_stmt 1
 503 02ba 0A20     	 movs r0,#10
 504 02bc FFF7FEFF 	 bl putchar
 505              	.L18:
 130:../main.c     ****         }
 131:../main.c     **** 
 132:../main.c     ****         /* 0x96 Temperatures */
 133:../main.c     ****         st = Morelle_GetTemperatures(&vtemps, info.num_temps);
 506              	 .loc 1 133 0
 507 02c0 97F85D30 	 ldrb r3,[r7,#93]
 508 02c4 07F13002 	 add r2,r7,#48
 509 02c8 1046     	 mov r0,r2
 510 02ca 1946     	 mov r1,r3
 511 02cc FFF7FEFF 	 bl Morelle_GetTemperatures
 512 02d0 0346     	 mov r3,r0
 513 02d2 87F87430 	 strb r3,[r7,#116]
 134:../main.c     ****         if (st == MORELLE_OK) {
 514              	 .loc 1 134 0
 515 02d6 97F87430 	 ldrb r3,[r7,#116]
 516 02da 002B     	 cmp r3,#0
 517 02dc 50D1     	 bne .L21
 135:../main.c     ****             XMC_DEBUG("[0x96] Temps C:");
 518              	 .loc 1 135 0
 519 02de 1848     	 ldr r0,.L31+84
 520 02e0 FFF7FEFF 	 bl printf
 136:../main.c     ****             for (i = 0U; i < vtemps.count; i++) {
 521              	 .loc 1 136 0
 522 02e4 0023     	 movs r3,#0
 523 02e6 87F87630 	 strb r3,[r7,#118]
 524 02ea 40E0     	 b .L22
 525              	.L32:
 526              	 .align 2
 527              	.L31:
 528 02ec 00000000 	 .word .LC1
 529 02f0 00420148 	 .word 1208041984
 530 02f4 20000000 	 .word .LC2
 531 02f8 00500148 	 .word 1208045568
 532 02fc 50000000 	 .word .LC3
 533 0300 20500148 	 .word 1208045600
 534 0304 74000000 	 .word .LC4
 535 0308 98000000 	 .word .LC5
 536 030c B8020000 	 .word .LC0
 537 0310 DC000000 	 .word .LC6
 538 0314 CDCCCCCC 	 .word -858993459
 539 0318 04010000 	 .word .LC9
 540 031c 44010000 	 .word .LC10
 541 0320 78010000 	 .word .LC11
 542 0324 B0010000 	 .word .LC12
 543 0328 B4010000 	 .word .LC13
 544 032c BC010000 	 .word .LC14
 545 0330 C0010000 	 .word .LC15
 546 0334 F8010000 	 .word .LC16
 547 0338 28020000 	 .word .LC17
 548 033c 38020000 	 .word .LC18
 549 0340 3C020000 	 .word .LC19
 550 0344 FC000000 	 .word .LC7
 551 0348 00010000 	 .word .LC8
 552              	.L23:
 137:../main.c     ****                 XMC_DEBUG(" %d", (int)vtemps.c[i]);
 553              	 .loc 1 137 0 discriminator 3
 554 034c 97F87630 	 ldrb r3,[r7,#118]
 555 0350 07F17802 	 add r2,r7,#120
 556 0354 1344     	 add r3,r3,r2
 557 0356 13F8483C 	 ldrb r3,[r3,#-72]
 558 035a 5BB2     	 sxtb r3,r3
 559 035c 4048     	 ldr r0,.L33
 560 035e 1946     	 mov r1,r3
 561 0360 FFF7FEFF 	 bl printf
 136:../main.c     ****             for (i = 0U; i < vtemps.count; i++) {
 562              	 .loc 1 136 0 discriminator 3
 563 0364 97F87630 	 ldrb r3,[r7,#118]
 564 0368 0133     	 adds r3,r3,#1
 565 036a 87F87630 	 strb r3,[r7,#118]
 566              	.L22:
 136:../main.c     ****             for (i = 0U; i < vtemps.count; i++) {
 567              	 .loc 1 136 0 is_stmt 0 discriminator 1
 568 036e 97F83830 	 ldrb r3,[r7,#56]
 569 0372 97F87620 	 ldrb r2,[r7,#118]
 570 0376 9A42     	 cmp r2,r3
 571 0378 E8D3     	 bcc .L23
 138:../main.c     ****             }
 139:../main.c     ****             XMC_DEBUG("\n");
 572              	 .loc 1 139 0 is_stmt 1
 573 037a 0A20     	 movs r0,#10
 574 037c FFF7FEFF 	 bl putchar
 575              	.L21:
 140:../main.c     ****         }
 141:../main.c     **** 
 142:../main.c     ****         /* 0x97 Cell Balance */
 143:../main.c     ****         st = Morelle_GetCellBalance(&bal);
 576              	 .loc 1 143 0
 577 0380 07F12C03 	 add r3,r7,#44
 578 0384 1846     	 mov r0,r3
 579 0386 FFF7FEFF 	 bl Morelle_GetCellBalance
 580 038a 0346     	 mov r3,r0
 581 038c 87F87430 	 strb r3,[r7,#116]
 144:../main.c     ****         if (st == MORELLE_OK) {
 582              	 .loc 1 144 0
 583 0390 97F87430 	 ldrb r3,[r7,#116]
 584 0394 002B     	 cmp r3,#0
 585 0396 0AD1     	 bne .L24
 145:../main.c     ****             XMC_DEBUG("[0x97] Balance mask: %02X %02X %02X\n",
 586              	 .loc 1 145 0
 587 0398 97F82C30 	 ldrb r3,[r7,#44]
 588 039c 1946     	 mov r1,r3
 589 039e 97F82D30 	 ldrb r3,[r7,#45]
 590 03a2 1A46     	 mov r2,r3
 591 03a4 97F82E30 	 ldrb r3,[r7,#46]
 592 03a8 2E48     	 ldr r0,.L33+4
 593 03aa FFF7FEFF 	 bl printf
 594              	.L24:
 146:../main.c     ****                       (unsigned)bal.mask[0], (unsigned)bal.mask[1], (unsigned)bal.mask[2]);
 147:../main.c     ****         }
 148:../main.c     **** 
 149:../main.c     ****         /* 0x98 Fault Status */
 150:../main.c     ****         st = Morelle_GetFaultStatus(&fault);
 595              	 .loc 1 150 0
 596 03ae 07F12403 	 add r3,r7,#36
 597 03b2 1846     	 mov r0,r3
 598 03b4 FFF7FEFF 	 bl Morelle_GetFaultStatus
 599 03b8 0346     	 mov r3,r0
 600 03ba 87F87430 	 strb r3,[r7,#116]
 151:../main.c     ****         if (st == MORELLE_OK) {
 601              	 .loc 1 151 0
 602 03be 97F87430 	 ldrb r3,[r7,#116]
 603 03c2 002B     	 cmp r3,#0
 604 03c4 46D1     	 bne .L25
 152:../main.c     ****             any = 0U;
 605              	 .loc 1 152 0
 606 03c6 0023     	 movs r3,#0
 607 03c8 87F87730 	 strb r3,[r7,#119]
 153:../main.c     ****             for (i = 0U; i < 8U; i++) { any |= fault.b[i]; }
 608              	 .loc 1 153 0
 609 03cc 0023     	 movs r3,#0
 610 03ce 87F87630 	 strb r3,[r7,#118]
 611 03d2 10E0     	 b .L26
 612              	.L27:
 613              	 .loc 1 153 0 is_stmt 0 discriminator 3
 614 03d4 97F87630 	 ldrb r3,[r7,#118]
 615 03d8 07F17802 	 add r2,r7,#120
 616 03dc 1344     	 add r3,r3,r2
 617 03de 13F8542C 	 ldrb r2,[r3,#-84]
 618 03e2 97F87730 	 ldrb r3,[r7,#119]
 619 03e6 1343     	 orrs r3,r3,r2
 620 03e8 87F87730 	 strb r3,[r7,#119]
 621 03ec 97F87630 	 ldrb r3,[r7,#118]
 622 03f0 0133     	 adds r3,r3,#1
 623 03f2 87F87630 	 strb r3,[r7,#118]
 624              	.L26:
 625              	 .loc 1 153 0 discriminator 1
 626 03f6 97F87630 	 ldrb r3,[r7,#118]
 627 03fa 072B     	 cmp r3,#7
 628 03fc EAD9     	 bls .L27
 154:../main.c     ****             XMC_DEBUG("[0x98] %02X %02X %02X %02X %02X %02X %02X %02X  %s\n",
 629              	 .loc 1 154 0 is_stmt 1
 630 03fe 97F82430 	 ldrb r3,[r7,#36]
 631 0402 9C46     	 mov ip,r3
 632 0404 97F82530 	 ldrb r3,[r7,#37]
 633 0408 9E46     	 mov lr,r3
 634 040a 97F82630 	 ldrb r3,[r7,#38]
 635 040e 1E46     	 mov r6,r3
 636 0410 97F82730 	 ldrb r3,[r7,#39]
 637 0414 1D46     	 mov r5,r3
 638 0416 97F82830 	 ldrb r3,[r7,#40]
 639 041a 1C46     	 mov r4,r3
 640 041c 97F82930 	 ldrb r3,[r7,#41]
 641 0420 1846     	 mov r0,r3
 642 0422 97F82A30 	 ldrb r3,[r7,#42]
 643 0426 1946     	 mov r1,r3
 644 0428 97F82B30 	 ldrb r3,[r7,#43]
 645 042c 1A46     	 mov r2,r3
 646 042e 97F87730 	 ldrb r3,[r7,#119]
 647 0432 002B     	 cmp r3,#0
 648 0434 01D0     	 beq .L28
 649              	 .loc 1 154 0 is_stmt 0 discriminator 1
 650 0436 0C4B     	 ldr r3,.L33+8
 651 0438 00E0     	 b .L29
 652              	.L28:
 653              	 .loc 1 154 0 discriminator 2
 654 043a 0C4B     	 ldr r3,.L33+12
 655              	.L29:
 656              	 .loc 1 154 0 discriminator 4
 657 043c 0095     	 str r5,[sp]
 658 043e 0194     	 str r4,[sp,#4]
 659 0440 0290     	 str r0,[sp,#8]
 660 0442 0391     	 str r1,[sp,#12]
 661 0444 0492     	 str r2,[sp,#16]
 662 0446 0593     	 str r3,[sp,#20]
 663 0448 0948     	 ldr r0,.L33+16
 664 044a 6146     	 mov r1,ip
 665 044c 7246     	 mov r2,lr
 666 044e 3346     	 mov r3,r6
 667 0450 FFF7FEFF 	 bl printf
 668              	.L25:
 155:../main.c     ****                       (unsigned)fault.b[0], (unsigned)fault.b[1],
 156:../main.c     ****                       (unsigned)fault.b[2], (unsigned)fault.b[3],
 157:../main.c     ****                       (unsigned)fault.b[4], (unsigned)fault.b[5],
 158:../main.c     ****                       (unsigned)fault.b[6], (unsigned)fault.b[7],
 159:../main.c     ****                       any ? "<FAULT>" : "OK");
 160:../main.c     ****         }
 161:../main.c     **** 
 162:../main.c     ****         delay_ms(2000U);
 669              	 .loc 1 162 0 is_stmt 1
 670 0454 4FF4FA60 	 mov r0,#2000
 671 0458 FFF7FEFF 	 bl delay_ms
 672              	.LBE2:
 163:../main.c     ****     }
 673              	 .loc 1 163 0
 674 045c 09E6     	 b .L30
 675              	.L34:
 676 045e 00BF     	 .align 2
 677              	.L33:
 678 0460 4C020000 	 .word .LC20
 679 0464 50020000 	 .word .LC21
 680 0468 78020000 	 .word .LC22
 681 046c 80020000 	 .word .LC23
 682 0470 84020000 	 .word .LC24
 683              	 .cfi_endproc
 684              	.LFE247:
 686              	 .text
 687              	.Letext0:
 688              	 .file 2 "c:\\infineon\\tools\\dave ide\\4.5.0.202105191637\\eclipse\\arm-gcc-49\\arm-none-eabi\\include\\machine\\_default_types.h"
 689              	 .file 3 "c:\\infineon\\tools\\dave ide\\4.5.0.202105191637\\eclipse\\arm-gcc-49\\arm-none-eabi\\include\\stdint.h"
 690              	 .file 4 "C:/Infineon/Tools/DAVE IDE/4.5.0.202105191637/eclipse/workspace/Morelle_BMS/Libraries/CMSIS/Infineon/XMC4800_series/Include/XMC4800.h"
 691              	 .file 5 "C:/Infineon/Tools/DAVE IDE/4.5.0.202105191637/eclipse/workspace/Morelle_BMS/Dave/Generated/DAVE.h"
 692              	 .file 6 "../morelle_bms.h"
 693              	 .file 7 "C:/Infineon/Tools/DAVE IDE/4.5.0.202105191637/eclipse/workspace/Morelle_BMS/Libraries/CMSIS/Include/cmsis_gcc.h"
 694              	 .file 8 "C:/Infineon/Tools/DAVE IDE/4.5.0.202105191637/eclipse/workspace/Morelle_BMS/Libraries/CMSIS/Include/core_cm4.h"
 695              	 .file 9 "C:/Infineon/Tools/DAVE IDE/4.5.0.202105191637/eclipse/workspace/Morelle_BMS/Libraries/CMSIS/Infineon/XMC4800_series/Include/system_XMC4800.h"