   1              	 .syntax unified
   2              	 .cpu cortex-m4
   3              	 .eabi_attribute 27,3
   4              	 .fpu fpv4-sp-d16
   5              	 .eabi_attribute 20,1
   6              	 .eabi_attribute 21,1
   7              	 .eabi_attribute 23,3
   8              	 .eabi_attribute 24,1
   9              	 .eabi_attribute 25,1
  10              	 .eabi_attribute 26,1
  11              	 .eabi_attribute 30,6
  12              	 .eabi_attribute 34,1
  13              	 .eabi_attribute 18,4
  14              	 .thumb
  15              	 .file "multican_config.c"
  16              	 .text
  17              	.Ltext0:
  18              	 .cfi_sections .debug_frame
  19              	 .section .text.MULTICAN_CONFIG_GetAppVersion,"ax",%progbits
  20              	 .align 2
  21              	 .global MULTICAN_CONFIG_GetAppVersion
  22              	 .thumb
  23              	 .thumb_func
  25              	MULTICAN_CONFIG_GetAppVersion:
  26              	.LFB232:
  27              	 .file 1 "../Dave/Generated/MULTICAN_CONFIG/multican_config.c"
   1:../Dave/Generated/MULTICAN_CONFIG/multican_config.c **** /**
   2:../Dave/Generated/MULTICAN_CONFIG/multican_config.c ****  * @file multican_config.c
   3:../Dave/Generated/MULTICAN_CONFIG/multican_config.c ****  * @date 2016-03-31
   4:../Dave/Generated/MULTICAN_CONFIG/multican_config.c ****  *
   5:../Dave/Generated/MULTICAN_CONFIG/multican_config.c ****  * NOTE:
   6:../Dave/Generated/MULTICAN_CONFIG/multican_config.c ****  * This file is generated by DAVE-4. Any manual modification done to this file will be lost when th
   7:../Dave/Generated/MULTICAN_CONFIG/multican_config.c ****  *
   8:../Dave/Generated/MULTICAN_CONFIG/multican_config.c ****  * @cond
   9:../Dave/Generated/MULTICAN_CONFIG/multican_config.c ****  **************************************************************************************************
  10:../Dave/Generated/MULTICAN_CONFIG/multican_config.c ****  * MULTICAN_CONFIG v4.0.14 - Configures MultiCAN peripheral
  11:../Dave/Generated/MULTICAN_CONFIG/multican_config.c ****  *
  12:../Dave/Generated/MULTICAN_CONFIG/multican_config.c ****  * Copyright (c) 2015-2020, Infineon Technologies AG
  13:../Dave/Generated/MULTICAN_CONFIG/multican_config.c ****  * All rights reserved.
  14:../Dave/Generated/MULTICAN_CONFIG/multican_config.c ****  *
  15:../Dave/Generated/MULTICAN_CONFIG/multican_config.c ****  * Redistribution and use in source and binary forms, with or without modification,are permitted pr
  16:../Dave/Generated/MULTICAN_CONFIG/multican_config.c ****  * following conditions are met:
  17:../Dave/Generated/MULTICAN_CONFIG/multican_config.c ****  *
  18:../Dave/Generated/MULTICAN_CONFIG/multican_config.c ****  *   Redistributions of source code must retain the above copyright notice, this list of conditions
  19:../Dave/Generated/MULTICAN_CONFIG/multican_config.c ****  *   disclaimer.
  20:../Dave/Generated/MULTICAN_CONFIG/multican_config.c ****  *
  21:../Dave/Generated/MULTICAN_CONFIG/multican_config.c ****  *   Redistributions in binary form must reproduce the above copyright notice, this list of conditi
  22:../Dave/Generated/MULTICAN_CONFIG/multican_config.c ****  *   following disclaimer in the documentation and/or other materials provided with the distributio
  23:../Dave/Generated/MULTICAN_CONFIG/multican_config.c ****  *
  24:../Dave/Generated/MULTICAN_CONFIG/multican_config.c ****  *   Neither the name of the copyright holders nor the names of its contributors may be used to end
  25:../Dave/Generated/MULTICAN_CONFIG/multican_config.c ****  *   products derived from this software without specific prior written permission.
  26:../Dave/Generated/MULTICAN_CONFIG/multican_config.c ****  *
  27:../Dave/Generated/MULTICAN_CONFIG/multican_config.c ****  * THIS SOFTWARE IS PROVIDED BY THE COPYRIGHT HOLDERS AND CONTRIBUTORS "AS IS" AND ANY EXPRESS OR I
  28:../Dave/Generated/MULTICAN_CONFIG/multican_config.c ****  * INCLUDING, BUT NOT LIMITED TO, THE IMPLIED WARRANTIES OF MERCHANTABILITY AND FITNESS FOR A PARTI
  29:../Dave/Generated/MULTICAN_CONFIG/multican_config.c ****  * DISCLAIMED. IN NO EVENT SHALL THE COPYRIGHT HOLDER OR CONTRIBUTORS BE LIABLE  FOR ANY DIRECT, IN
  30:../Dave/Generated/MULTICAN_CONFIG/multican_config.c ****  * SPECIAL, EXEMPLARY, OR CONSEQUENTIAL DAMAGES (INCLUDING, BUT NOT LIMITED TO, PROCUREMENT OF SUBS
  31:../Dave/Generated/MULTICAN_CONFIG/multican_config.c ****  * SERVICES; LOSS OF USE, DATA, OR PROFITS; OR BUSINESS INTERRUPTION) HOWEVER CAUSED AND ON ANY THE
  32:../Dave/Generated/MULTICAN_CONFIG/multican_config.c ****  * WHETHER IN CONTRACT, STRICT LIABILITY,OR TORT (INCLUDING NEGLIGENCE OR OTHERWISE) ARISING IN ANY
  33:../Dave/Generated/MULTICAN_CONFIG/multican_config.c ****  * USE OF THIS SOFTWARE, EVEN IF ADVISED OF THE POSSIBILITY OF SUCH DAMAGE.
  34:../Dave/Generated/MULTICAN_CONFIG/multican_config.c ****  *
  35:../Dave/Generated/MULTICAN_CONFIG/multican_config.c ****  * To improve the quality of the software, users are encouraged to share modifications, enhancement
  36:../Dave/Generated/MULTICAN_CONFIG/multican_config.c ****  * with Infineon Technologies AG (dave@infineon.com).
  37:../Dave/Generated/MULTICAN_CONFIG/multican_config.c ****  **************************************************************************************************
  38:../Dave/Generated/MULTICAN_CONFIG/multican_config.c ****  *
  39:../Dave/Generated/MULTICAN_CONFIG/multican_config.c ****  * Change History
  40:../Dave/Generated/MULTICAN_CONFIG/multican_config.c ****  * --------------
  41:../Dave/Generated/MULTICAN_CONFIG/multican_config.c ****  *
  42:../Dave/Generated/MULTICAN_CONFIG/multican_config.c ****  * 2015-10-26:
  43:../Dave/Generated/MULTICAN_CONFIG/multican_config.c ****  *     - Initial version<br>
  44:../Dave/Generated/MULTICAN_CONFIG/multican_config.c ****  *
  45:../Dave/Generated/MULTICAN_CONFIG/multican_config.c ****  * 2016-03-31:
  46:../Dave/Generated/MULTICAN_CONFIG/multican_config.c ****  *     - Updated coding guidelines
  47:../Dave/Generated/MULTICAN_CONFIG/multican_config.c ****  */
  48:../Dave/Generated/MULTICAN_CONFIG/multican_config.c **** 
  49:../Dave/Generated/MULTICAN_CONFIG/multican_config.c **** /**************************************************************************************************
  50:../Dave/Generated/MULTICAN_CONFIG/multican_config.c ****  * HEADER FILES
  51:../Dave/Generated/MULTICAN_CONFIG/multican_config.c ****  **************************************************************************************************
  52:../Dave/Generated/MULTICAN_CONFIG/multican_config.c **** #include "multican_config.h"
  53:../Dave/Generated/MULTICAN_CONFIG/multican_config.c **** 
  54:../Dave/Generated/MULTICAN_CONFIG/multican_config.c **** /**************************************************************************************************
  55:../Dave/Generated/MULTICAN_CONFIG/multican_config.c ****  * MACROS
  56:../Dave/Generated/MULTICAN_CONFIG/multican_config.c ****  **************************************************************************************************
  57:../Dave/Generated/MULTICAN_CONFIG/multican_config.c **** 
  58:../Dave/Generated/MULTICAN_CONFIG/multican_config.c **** /**************************************************************************************************
  59:../Dave/Generated/MULTICAN_CONFIG/multican_config.c ****  * LOCAL DATA
  60:../Dave/Generated/MULTICAN_CONFIG/multican_config.c ****  **************************************************************************************************
  61:../Dave/Generated/MULTICAN_CONFIG/multican_config.c **** 
  62:../Dave/Generated/MULTICAN_CONFIG/multican_config.c **** /**************************************************************************************************
  63:../Dave/Generated/MULTICAN_CONFIG/multican_config.c ****  * LOCAL ROUTINES
  64:../Dave/Generated/MULTICAN_CONFIG/multican_config.c ****  **************************************************************************************************
  65:../Dave/Generated/MULTICAN_CONFIG/multican_config.c **** 
  66:../Dave/Generated/MULTICAN_CONFIG/multican_config.c **** /**************************************************************************************************
  67:../Dave/Generated/MULTICAN_CONFIG/multican_config.c ****  * API IMPLEMENTATION
  68:../Dave/Generated/MULTICAN_CONFIG/multican_config.c ****  **************************************************************************************************
  69:../Dave/Generated/MULTICAN_CONFIG/multican_config.c **** /* API to retrieve the version of the MULTICAN_CONFIG APP */
  70:../Dave/Generated/MULTICAN_CONFIG/multican_config.c **** DAVE_APP_VERSION_t MULTICAN_CONFIG_GetAppVersion()
  71:../Dave/Generated/MULTICAN_CONFIG/multican_config.c **** {
  28              	 .loc 1 71 0
  29              	 .cfi_startproc
  30              	 
  31              	 
  32              	 
  33 0000 80B4     	 push {r7}
  34              	.LCFI0:
  35              	 .cfi_def_cfa_offset 4
  36              	 .cfi_offset 7,-4
  37 0002 83B0     	 sub sp,sp,#12
  38              	.LCFI1:
  39              	 .cfi_def_cfa_offset 16
  40 0004 00AF     	 add r7,sp,#0
  41              	.LCFI2:
  42              	 .cfi_def_cfa_register 7
  72:../Dave/Generated/MULTICAN_CONFIG/multican_config.c ****   DAVE_APP_VERSION_t version;
  73:../Dave/Generated/MULTICAN_CONFIG/multican_config.c **** 
  74:../Dave/Generated/MULTICAN_CONFIG/multican_config.c ****   version.major = (uint8_t)MULTICAN_CONFIG_MAJOR_VERSION;
  43              	 .loc 1 74 0
  44 0006 0423     	 movs r3,#4
  45 0008 3B70     	 strb r3,[r7]
  75:../Dave/Generated/MULTICAN_CONFIG/multican_config.c ****   version.minor = (uint8_t)MULTICAN_CONFIG_MINOR_VERSION;
  46              	 .loc 1 75 0
  47 000a 0023     	 movs r3,#0
  48 000c 7B70     	 strb r3,[r7,#1]
  76:../Dave/Generated/MULTICAN_CONFIG/multican_config.c ****   version.patch = (uint8_t)MULTICAN_CONFIG_PATCH_VERSION;
  49              	 .loc 1 76 0
  50 000e 0E23     	 movs r3,#14
  51 0010 BB70     	 strb r3,[r7,#2]
  77:../Dave/Generated/MULTICAN_CONFIG/multican_config.c **** 
  78:../Dave/Generated/MULTICAN_CONFIG/multican_config.c ****   return (version);
  52              	 .loc 1 78 0
  53 0012 3B1D     	 adds r3,r7,#4
  54 0014 3A46     	 mov r2,r7
  55 0016 1268     	 ldr r2,[r2]
  56 0018 1146     	 mov r1,r2
  57 001a 1980     	 strh r1,[r3]
  58 001c 0233     	 adds r3,r3,#2
  59 001e 120C     	 lsrs r2,r2,#16
  60 0020 1A70     	 strb r2,[r3]
  61 0022 0023     	 movs r3,#0
  62 0024 3A79     	 ldrb r2,[r7,#4]
  63 0026 62F30703 	 bfi r3,r2,#0,#8
  64 002a 7A79     	 ldrb r2,[r7,#5]
  65 002c 62F30F23 	 bfi r3,r2,#8,#8
  66 0030 BA79     	 ldrb r2,[r7,#6]
  67 0032 62F31743 	 bfi r3,r2,#16,#8
  79:../Dave/Generated/MULTICAN_CONFIG/multican_config.c **** }
  68              	 .loc 1 79 0
  69 0036 1846     	 mov r0,r3
  70 0038 0C37     	 adds r7,r7,#12
  71              	.LCFI3:
  72              	 .cfi_def_cfa_offset 4
  73 003a BD46     	 mov sp,r7
  74              	.LCFI4:
  75              	 .cfi_def_cfa_register 13
  76              	 
  77 003c 5DF8047B 	 ldr r7,[sp],#4
  78              	.LCFI5:
  79              	 .cfi_restore 7
  80              	 .cfi_def_cfa_offset 0
  81 0040 7047     	 bx lr
  82              	 .cfi_endproc
  83              	.LFE232:
  85 0042 00BF     	 .section .text.MULTICAN_CONFIG_Init,"ax",%progbits
  86              	 .align 2
  87              	 .global MULTICAN_CONFIG_Init
  88              	 .thumb
  89              	 .thumb_func
  91              	MULTICAN_CONFIG_Init:
  92              	.LFB233:
  80:../Dave/Generated/MULTICAN_CONFIG/multican_config.c **** 
  81:../Dave/Generated/MULTICAN_CONFIG/multican_config.c **** /*Function to initialize MULTICAN_CONFIG APP */
  82:../Dave/Generated/MULTICAN_CONFIG/multican_config.c **** MULTICAN_CONFIG_STATUS_t MULTICAN_CONFIG_Init(MULTICAN_CONFIG_t *handle)
  83:../Dave/Generated/MULTICAN_CONFIG/multican_config.c **** {
  93              	 .loc 1 83 0
  94              	 .cfi_startproc
  95              	 
  96              	 
  97 0000 80B5     	 push {r7,lr}
  98              	.LCFI6:
  99              	 .cfi_def_cfa_offset 8
 100              	 .cfi_offset 7,-8
 101              	 .cfi_offset 14,-4
 102 0002 84B0     	 sub sp,sp,#16
 103              	.LCFI7:
 104              	 .cfi_def_cfa_offset 24
 105 0004 00AF     	 add r7,sp,#0
 106              	.LCFI8:
 107              	 .cfi_def_cfa_register 7
 108 0006 7860     	 str r0,[r7,#4]
  84:../Dave/Generated/MULTICAN_CONFIG/multican_config.c ****   MULTICAN_CONFIG_STATUS_t status = MULTICAN_CONFIG_STATUS_SUCCESS;
 109              	 .loc 1 84 0
 110 0008 0023     	 movs r3,#0
 111 000a FB73     	 strb r3,[r7,#15]
  85:../Dave/Generated/MULTICAN_CONFIG/multican_config.c **** 
  86:../Dave/Generated/MULTICAN_CONFIG/multican_config.c ****   status = handle->multican_config_init_func();
 112              	 .loc 1 86 0
 113 000c 7B68     	 ldr r3,[r7,#4]
 114 000e DB68     	 ldr r3,[r3,#12]
 115 0010 9847     	 blx r3
 116 0012 0346     	 mov r3,r0
 117 0014 FB73     	 strb r3,[r7,#15]
  87:../Dave/Generated/MULTICAN_CONFIG/multican_config.c **** 
  88:../Dave/Generated/MULTICAN_CONFIG/multican_config.c ****   return (status);
 118              	 .loc 1 88 0
 119 0016 FB7B     	 ldrb r3,[r7,#15]
  89:../Dave/Generated/MULTICAN_CONFIG/multican_config.c **** }
 120              	 .loc 1 89 0
 121 0018 1846     	 mov r0,r3
 122 001a 1037     	 adds r7,r7,#16
 123              	.LCFI9:
 124              	 .cfi_def_cfa_offset 8
 125 001c BD46     	 mov sp,r7
 126              	.LCFI10:
 127              	 .cfi_def_cfa_register 13
 128              	 
 129 001e 80BD     	 pop {r7,pc}
 130              	 .cfi_endproc
 131              	.LFE233:
 133              	 .text
 134              	.Letext0:
 135              	 .file 2 "c:\\infineon\\tools\\dave ide\\4.5.0.202105191637\\eclipse\\arm-gcc-49\\arm-none-eabi\\include\\machine\\_default_types.h"
 136              	 .file 3 "c:\\infineon\\tools\\dave ide\\4.5.0.202105191637\\eclipse\\arm-gcc-49\\arm-none-eabi\\include\\stdint.h"
 137              	 .file 4 "C:/Infineon/Tools/DAVE IDE/4.5.0.202105191637/eclipse/workspace/Morelle_BMS/Libraries/CMSIS/Infineon/XMC4800_series/Include/XMC4800.h"
 138              	 .file 5 "C:/Infineon/Tools/DAVE IDE/4.5.0.202105191637/eclipse/workspace/Morelle_BMS/Libraries/XMCLib/inc/xmc_can.h"
 139              	 .file 6 "C:/Infineon/Tools/DAVE IDE/4.5.0.202105191637/eclipse/workspace/Morelle_BMS/Dave/Generated/DAVE_Common.h"
 140              	 .file 7 "C:/Infineon/Tools/DAVE IDE/4.5.0.202105191637/eclipse/workspace/Morelle_BMS/Dave/Generated/GLOBAL_CAN/global_can.h"
 141              	 .file 8 "../Dave/Generated/MULTICAN_CONFIG/multican_config.h"
 142              	 .file 9 "C:/Infineon/Tools/DAVE IDE/4.5.0.202105191637/eclipse/workspace/Morelle_BMS/Libraries/CMSIS/Include/cmsis_gcc.h"
 143              	 .file 10 "C:/Infineon/Tools/DAVE IDE/4.5.0.202105191637/eclipse/workspace/Morelle_BMS/Libraries/CMSIS/Include/core_cm4.h"
 144              	 .file 11 "C:/Infineon/Tools/DAVE IDE/4.5.0.202105191637/eclipse/workspace/Morelle_BMS/Libraries/CMSIS/Infineon/XMC4800_series/Include/system_XMC4800.h"