
Blinking_led.elf:     file format elf32-littlearm

Sections:
Idx Name          Size      VMA       LMA       File off  Algn
  0 .text         00000820  08000000  0c000000  00008000  2**2
                  CONTENTS, ALLOC, LOAD, READONLY, CODE
  1 Stack         00000800  1ffe8000  1ffe8000  00010000  2**0
                  ALLOC
  2 .no_init      00000014  2003ffc0  2003ffc0  0000ffc0  2**2
                  ALLOC
  3 .debug_frame  0000002c  00000000  00000000  00008820  2**2
                  CONTENTS, READONLY, DEBUGGING
  4 .build_attributes 0000020f  00000000  00000000  0000884c  2**0
                  CONTENTS, READONLY

Disassembly of section .text:

08000000 <__Vectors>:
 8000000:	00 88 fe 1f 01 02 00 08 99 02 00 08 99 02 00 08     ................
 8000010:	99 02 00 08 99 02 00 08 99 02 00 08 00 00 00 00     ................
	...
 800002c:	99 02 00 08 99 02 00 08 00 00 00 00 99 02 00 08     ................
 800003c:	99 02 00 08 99 02 00 08 99 02 00 08 99 02 00 08     ................
 800004c:	99 02 00 08 99 02 00 08 99 02 00 08 99 02 00 08     ................
 800005c:	99 02 00 08 99 02 00 08 00 00 00 00 00 00 00 00     ................
 800006c:	00 00 00 00 99 02 00 08 00 00 00 00 99 02 00 08     ................
 800007c:	99 02 00 08 99 02 00 08 99 02 00 08 99 02 00 08     ................
 800008c:	99 02 00 08 99 02 00 08 99 02 00 08 99 02 00 08     ................
 800009c:	99 02 00 08 99 02 00 08 99 02 00 08 99 02 00 08     ................
 80000ac:	99 02 00 08 99 02 00 08 99 02 00 08 99 02 00 08     ................
 80000bc:	99 02 00 08 99 02 00 08 99 02 00 08 99 02 00 08     ................
 80000cc:	99 02 00 08 99 02 00 08 99 02 00 08 99 02 00 08     ................
 80000dc:	99 02 00 08 99 02 00 08 99 02 00 08 99 02 00 08     ................
 80000ec:	99 02 00 08 99 02 00 08 99 02 00 08 99 02 00 08     ................
 80000fc:	99 02 00 08 99 02 00 08 99 02 00 08 99 02 00 08     ................
 800010c:	99 02 00 08 99 02 00 08 99 02 00 08 99 02 00 08     ................
 800011c:	99 02 00 08 99 02 00 08 99 02 00 08 99 02 00 08     ................
 800012c:	99 02 00 08 99 02 00 08 99 02 00 08 99 02 00 08     ................
 800013c:	99 02 00 08 99 02 00 08 99 02 00 08 99 02 00 08     ................
 800014c:	99 02 00 08 99 02 00 08 99 02 00 08 99 02 00 08     ................
 800015c:	99 02 00 08 00 00 00 00 00 00 00 00 00 00 00 00     ................
 800016c:	00 00 00 00 99 02 00 08 99 02 00 08 99 02 00 08     ................
 800017c:	99 02 00 08 99 02 00 08 99 02 00 08 99 02 00 08     ................
 800018c:	99 02 00 08 99 02 00 08 99 02 00 08 99 02 00 08     ................
 800019c:	99 02 00 08 99 02 00 08 99 02 00 08 99 02 00 08     ................
 80001ac:	99 02 00 08 99 02 00 08 99 02 00 08 99 02 00 08     ................
 80001bc:	99 02 00 08 99 02 00 08 99 02 00 08 99 02 00 08     ................
 80001cc:	99 02 00 08 99 02 00 08 99 02 00 08 99 02 00 08     ................
 80001dc:	00 00 00 00 99 02 00 08 99 02 00 08 99 02 00 08     ................
 80001ec:	99 02 00 08 99 02 00 08 99 02 00 08 99 02 00 08     ................
 80001fc:	00 00 00 00                                         ....

08000200 <Reset_Handler>:
 8000200:	f8df d074 	ldr.w	sp, [pc, #116]	; 8000278 <__zero_table_end__>
 8000204:	481d      	ldr	r0, [pc, #116]	; (800027c <__zero_table_end__+0x4>)
 8000206:	4780      	blx	r0
 8000208:	4c1d      	ldr	r4, [pc, #116]	; (8000280 <__zero_table_end__+0x8>)
 800020a:	4d1e      	ldr	r5, [pc, #120]	; (8000284 <__zero_table_end__+0xc>)
 800020c:	42ac      	cmp	r4, r5
 800020e:	da09      	bge.n	8000224 <Reset_Handler+0x24>
 8000210:	6821      	ldr	r1, [r4, #0]
 8000212:	6862      	ldr	r2, [r4, #4]
 8000214:	68a3      	ldr	r3, [r4, #8]
 8000216:	3b04      	subs	r3, #4
 8000218:	bfa2      	ittt	ge
 800021a:	58c8      	ldrge	r0, [r1, r3]
 800021c:	50d0      	strge	r0, [r2, r3]
 800021e:	e7fa      	bge.n	8000216 <Reset_Handler+0x16>
 8000220:	340c      	adds	r4, #12
 8000222:	e7f3      	b.n	800020c <Reset_Handler+0xc>
 8000224:	4b18      	ldr	r3, [pc, #96]	; (8000288 <__zero_table_end__+0x10>)
 8000226:	4c19      	ldr	r4, [pc, #100]	; (800028c <__zero_table_end__+0x14>)
 8000228:	42a3      	cmp	r3, r4
 800022a:	da08      	bge.n	800023e <Reset_Handler+0x3e>
 800022c:	6819      	ldr	r1, [r3, #0]
 800022e:	685a      	ldr	r2, [r3, #4]
 8000230:	2000      	movs	r0, #0
 8000232:	3a04      	subs	r2, #4
 8000234:	bfa4      	itt	ge
 8000236:	5088      	strge	r0, [r1, r2]
 8000238:	e7fb      	bge.n	8000232 <Reset_Handler+0x32>
 800023a:	3308      	adds	r3, #8
 800023c:	e7f4      	b.n	8000228 <Reset_Handler+0x28>
 800023e:	4814      	ldr	r0, [pc, #80]	; (8000290 <__zero_table_end__+0x18>)
 8000240:	4780      	blx	r0
 8000242:	4814      	ldr	r0, [pc, #80]	; (8000294 <__zero_table_end__+0x1c>)
 8000244:	4780      	blx	r0
	...

08000248 <__copy_table_start__>:
 8000248:	0c000820 	.word	0x0c000820
 800024c:	1ffe8800 	.word	0x1ffe8800
 8000250:	00000000 	.word	0x00000000
 8000254:	0c000820 	.word	0x0c000820
 8000258:	1ffe8800 	.word	0x1ffe8800
 800025c:	00000000 	.word	0x00000000

08000260 <__copy_table_end__>:
 8000260:	1ffe8800 	.word	0x1ffe8800
 8000264:	00000000 	.word	0x00000000
 8000268:	20000000 	.word	0x20000000
 800026c:	00000000 	.word	0x00000000
 8000270:	20000000 	.word	0x20000000
 8000274:	00000000 	.word	0x00000000

08000278 <__zero_table_end__>:
 8000278:	1ffe8800 	.word	0x1ffe8800
 800027c:	0800060d 	.word	0x0800060d
 8000280:	08000248 	.word	0x08000248
 8000284:	08000260 	.word	0x08000260
 8000288:	08000260 	.word	0x08000260
 800028c:	08000278 	.word	0x08000278
 8000290:	080007ad 	.word	0x080007ad
 8000294:	0800071d 	.word	0x0800071d

08000298 <BusFault_Handler>:
 8000298:	e7fe      	b.n	8000298 <BusFault_Handler>
	...

0800029c <delay>:
 800029c:	b082      	sub	sp, #8
 800029e:	2300      	movs	r3, #0
 80002a0:	9301      	str	r3, [sp, #4]
 80002a2:	9b01      	ldr	r3, [sp, #4]
 80002a4:	4283      	cmp	r3, r0
 80002a6:	d203      	bcs.n	80002b0 <delay+0x14>
 80002a8:	bf00      	nop
 80002aa:	9b01      	ldr	r3, [sp, #4]
 80002ac:	3301      	adds	r3, #1
 80002ae:	e7f7      	b.n	80002a0 <delay+0x4>
 80002b0:	b002      	add	sp, #8
 80002b2:	4770      	bx	lr

080002b4 <SystemCoreSetup>:
 80002b4:	b672      	cpsid	i
 80002b6:	4b0d      	ldr	r3, [pc, #52]	; (80002ec <SystemCoreSetup+0x38>)
 80002b8:	4a0d      	ldr	r2, [pc, #52]	; (80002f0 <SystemCoreSetup+0x3c>)
 80002ba:	609a      	str	r2, [r3, #8]
 80002bc:	f3bf 8f4f 	dsb	sy
 80002c0:	b662      	cpsie	i
 80002c2:	f8d3 2088 	ldr.w	r2, [r3, #136]	; 0x88
 80002c6:	490b      	ldr	r1, [pc, #44]	; (80002f4 <SystemCoreSetup+0x40>)
 80002c8:	f442 0270 	orr.w	r2, r2, #15728640	; 0xf00000
 80002cc:	f8c3 2088 	str.w	r2, [r3, #136]	; 0x88
 80002d0:	695a      	ldr	r2, [r3, #20]
 80002d2:	f022 0208 	bic.w	r2, r2, #8
 80002d6:	615a      	str	r2, [r3, #20]
 80002d8:	f241 0214 	movw	r2, #4116	; 0x1014
 80002dc:	588b      	ldr	r3, [r1, r2]
 80002de:	f023 030f 	bic.w	r3, r3, #15
 80002e2:	f043 0304 	orr.w	r3, r3, #4
 80002e6:	508b      	str	r3, [r1, r2]
 80002e8:	4770      	bx	lr
 80002ea:	bf00      	nop
 80002ec:	e000ed00 	.word	0xe000ed00
 80002f0:	08000000 	.word	0x08000000
 80002f4:	58001000 	.word	0x58001000

080002f8 <OSCHP_GetFrequency>:
 80002f8:	4800      	ldr	r0, [pc, #0]	; (80002fc <OSCHP_GetFrequency+0x4>)
 80002fa:	4770      	bx	lr
 80002fc:	00b71b00 	.word	0x00b71b00

08000300 <SystemCoreClockUpdate>:
 8000300:	4b1d      	ldr	r3, [pc, #116]	; (8000378 <SystemCoreClockUpdate+0x78>)
 8000302:	68db      	ldr	r3, [r3, #12]
 8000304:	03d9      	lsls	r1, r3, #15
 8000306:	b510      	push	{r4, lr}
 8000308:	d525      	bpl.n	8000356 <SystemCoreClockUpdate+0x56>
 800030a:	4b1c      	ldr	r3, [pc, #112]	; (800037c <SystemCoreClockUpdate+0x7c>)
 800030c:	68da      	ldr	r2, [r3, #12]
 800030e:	f012 0f01 	tst.w	r2, #1
 8000312:	461c      	mov	r4, r3
 8000314:	d102      	bne.n	800031c <SystemCoreClockUpdate+0x1c>
 8000316:	f7ff ffef 	bl	80002f8 <OSCHP_GetFrequency>
 800031a:	e000      	b.n	800031e <SystemCoreClockUpdate+0x1e>
 800031c:	4818      	ldr	r0, [pc, #96]	; (8000380 <SystemCoreClockUpdate+0x80>)
 800031e:	6822      	ldr	r2, [r4, #0]
 8000320:	4b16      	ldr	r3, [pc, #88]	; (800037c <SystemCoreClockUpdate+0x7c>)
 8000322:	0752      	lsls	r2, r2, #29
 8000324:	d510      	bpl.n	8000348 <SystemCoreClockUpdate+0x48>
 8000326:	689a      	ldr	r2, [r3, #8]
 8000328:	6899      	ldr	r1, [r3, #8]
 800032a:	689b      	ldr	r3, [r3, #8]
 800032c:	f3c2 6203 	ubfx	r2, r2, #24, #4
 8000330:	f3c3 4406 	ubfx	r4, r3, #16, #7
 8000334:	1c53      	adds	r3, r2, #1
 8000336:	fb04 3303 	mla	r3, r4, r3, r3
 800033a:	fbb0 f0f3 	udiv	r0, r0, r3
 800033e:	f3c1 2306 	ubfx	r3, r1, #8, #7
 8000342:	fb03 0000 	mla	r0, r3, r0, r0
 8000346:	e007      	b.n	8000358 <SystemCoreClockUpdate+0x58>
 8000348:	689b      	ldr	r3, [r3, #8]
 800034a:	f003 037f 	and.w	r3, r3, #127	; 0x7f
 800034e:	3301      	adds	r3, #1
 8000350:	fbb0 f0f3 	udiv	r0, r0, r3
 8000354:	e000      	b.n	8000358 <SystemCoreClockUpdate+0x58>
 8000356:	480a      	ldr	r0, [pc, #40]	; (8000380 <SystemCoreClockUpdate+0x80>)
 8000358:	4a07      	ldr	r2, [pc, #28]	; (8000378 <SystemCoreClockUpdate+0x78>)
 800035a:	68d3      	ldr	r3, [r2, #12]
 800035c:	b2db      	uxtb	r3, r3
 800035e:	3301      	adds	r3, #1
 8000360:	fbb0 f0f3 	udiv	r0, r0, r3
 8000364:	6913      	ldr	r3, [r2, #16]
 8000366:	f003 0301 	and.w	r3, r3, #1
 800036a:	3301      	adds	r3, #1
 800036c:	fbb0 f0f3 	udiv	r0, r0, r3
 8000370:	4b04      	ldr	r3, [pc, #16]	; (8000384 <SystemCoreClockUpdate+0x84>)
 8000372:	6018      	str	r0, [r3, #0]
 8000374:	bd10      	pop	{r4, pc}
 8000376:	bf00      	nop
 8000378:	50004600 	.word	0x50004600
 800037c:	50004710 	.word	0x50004710
 8000380:	016e3600 	.word	0x016e3600
 8000384:	2003ffc0 	.word	0x2003ffc0

08000388 <SystemCoreClockSetup>:
 8000388:	b5f8      	push	{r3, r4, r5, r6, r7, lr}
 800038a:	4b8f      	ldr	r3, [pc, #572]	; (80005c8 <SystemCoreClockSetup+0x240>)
 800038c:	681a      	ldr	r2, [r3, #0]
 800038e:	07d4      	lsls	r4, r2, #31
 8000390:	d50c      	bpl.n	80003ac <SystemCoreClockSetup+0x24>
 8000392:	4b8e      	ldr	r3, [pc, #568]	; (80005cc <SystemCoreClockSetup+0x244>)
 8000394:	681a      	ldr	r2, [r3, #0]
 8000396:	0590      	lsls	r0, r2, #22
 8000398:	d510      	bpl.n	80003bc <SystemCoreClockSetup+0x34>
 800039a:	689a      	ldr	r2, [r3, #8]
 800039c:	f442 7200 	orr.w	r2, r2, #512	; 0x200
 80003a0:	609a      	str	r2, [r3, #8]
 80003a2:	f641 504c 	movw	r0, #7500	; 0x1d4c
 80003a6:	f7ff ff79 	bl	800029c <delay>
 80003aa:	e007      	b.n	80003bc <SystemCoreClockSetup+0x34>
 80003ac:	685a      	ldr	r2, [r3, #4]
 80003ae:	f042 0201 	orr.w	r2, r2, #1
 80003b2:	605a      	str	r2, [r3, #4]
 80003b4:	681a      	ldr	r2, [r3, #0]
 80003b6:	07d1      	lsls	r1, r2, #31
 80003b8:	d5fc      	bpl.n	80003b4 <SystemCoreClockSetup+0x2c>
 80003ba:	e7ea      	b.n	8000392 <SystemCoreClockSetup+0xa>
 80003bc:	4c84      	ldr	r4, [pc, #528]	; (80005d0 <SystemCoreClockSetup+0x248>)
 80003be:	4d85      	ldr	r5, [pc, #532]	; (80005d4 <SystemCoreClockSetup+0x24c>)
 80003c0:	6863      	ldr	r3, [r4, #4]
 80003c2:	f443 2300 	orr.w	r3, r3, #524288	; 0x80000
 80003c6:	6063      	str	r3, [r4, #4]
 80003c8:	f640 10c4 	movw	r0, #2500	; 0x9c4
 80003cc:	f7ff ff66 	bl	800029c <delay>
 80003d0:	6863      	ldr	r3, [r4, #4]
 80003d2:	f423 3380 	bic.w	r3, r3, #65536	; 0x10000
 80003d6:	f023 0302 	bic.w	r3, r3, #2
 80003da:	6063      	str	r3, [r4, #4]
 80003dc:	686b      	ldr	r3, [r5, #4]
 80003de:	f013 0f30 	tst.w	r3, #48	; 0x30
 80003e2:	d104      	bne.n	80003ee <SystemCoreClockSetup+0x66>
 80003e4:	6863      	ldr	r3, [r4, #4]
 80003e6:	f043 0301 	orr.w	r3, r3, #1
 80003ea:	6063      	str	r3, [r4, #4]
 80003ec:	e01c      	b.n	8000428 <SystemCoreClockSetup+0xa0>
 80003ee:	686b      	ldr	r3, [r5, #4]
 80003f0:	f423 2370 	bic.w	r3, r3, #983040	; 0xf0000
 80003f4:	f023 0330 	bic.w	r3, r3, #48	; 0x30
 80003f8:	606b      	str	r3, [r5, #4]
 80003fa:	f7ff ff7d 	bl	80002f8 <OSCHP_GetFrequency>
 80003fe:	686a      	ldr	r2, [r5, #4]
 8000400:	4b75      	ldr	r3, [pc, #468]	; (80005d8 <SystemCoreClockSetup+0x250>)
 8000402:	fbb0 f0f3 	udiv	r0, r0, r3
 8000406:	3801      	subs	r0, #1
 8000408:	2300      	movs	r3, #0
 800040a:	ea42 4000 	orr.w	r0, r2, r0, lsl #16
 800040e:	6068      	str	r0, [r5, #4]
 8000410:	60e3      	str	r3, [r4, #12]
 8000412:	6863      	ldr	r3, [r4, #4]
 8000414:	f423 3300 	bic.w	r3, r3, #131072	; 0x20000
 8000418:	6063      	str	r3, [r4, #4]
 800041a:	6823      	ldr	r3, [r4, #0]
 800041c:	f403 7360 	and.w	r3, r3, #896	; 0x380
 8000420:	f5b3 7f60 	cmp.w	r3, #896	; 0x380
 8000424:	d1f9      	bne.n	800041a <SystemCoreClockSetup+0x92>
 8000426:	e7dd      	b.n	80003e4 <SystemCoreClockSetup+0x5c>
 8000428:	6822      	ldr	r2, [r4, #0]
 800042a:	4b69      	ldr	r3, [pc, #420]	; (80005d0 <SystemCoreClockSetup+0x248>)
 800042c:	07d2      	lsls	r2, r2, #31
 800042e:	d5fb      	bpl.n	8000428 <SystemCoreClockSetup+0xa0>
 8000430:	685a      	ldr	r2, [r3, #4]
 8000432:	f042 0210 	orr.w	r2, r2, #16
 8000436:	605a      	str	r2, [r3, #4]
 8000438:	4a68      	ldr	r2, [pc, #416]	; (80005dc <SystemCoreClockSetup+0x254>)
 800043a:	609a      	str	r2, [r3, #8]
 800043c:	685a      	ldr	r2, [r3, #4]
 800043e:	f042 0240 	orr.w	r2, r2, #64	; 0x40
 8000442:	605a      	str	r2, [r3, #4]
 8000444:	685a      	ldr	r2, [r3, #4]
 8000446:	f022 0210 	bic.w	r2, r2, #16
 800044a:	605a      	str	r2, [r3, #4]
 800044c:	685a      	ldr	r2, [r3, #4]
 800044e:	f442 2280 	orr.w	r2, r2, #262144	; 0x40000
 8000452:	605a      	str	r2, [r3, #4]
 8000454:	6823      	ldr	r3, [r4, #0]
 8000456:	4a5e      	ldr	r2, [pc, #376]	; (80005d0 <SystemCoreClockSetup+0x248>)
 8000458:	075b      	lsls	r3, r3, #29
 800045a:	d5fb      	bpl.n	8000454 <SystemCoreClockSetup+0xcc>
 800045c:	6853      	ldr	r3, [r2, #4]
 800045e:	f023 0301 	bic.w	r3, r3, #1
 8000462:	6053      	str	r3, [r2, #4]
 8000464:	6822      	ldr	r2, [r4, #0]
 8000466:	495a      	ldr	r1, [pc, #360]	; (80005d0 <SystemCoreClockSetup+0x248>)
 8000468:	f012 0201 	ands.w	r2, r2, #1
 800046c:	d1fa      	bne.n	8000464 <SystemCoreClockSetup+0xdc>
 800046e:	4b5c      	ldr	r3, [pc, #368]	; (80005e0 <SystemCoreClockSetup+0x258>)
 8000470:	f04f 1001 	mov.w	r0, #65537	; 0x10001
 8000474:	60d8      	str	r0, [r3, #12]
 8000476:	615a      	str	r2, [r3, #20]
 8000478:	611a      	str	r2, [r3, #16]
 800047a:	621a      	str	r2, [r3, #32]
 800047c:	625a      	str	r2, [r3, #36]	; 0x24
 800047e:	2203      	movs	r2, #3
 8000480:	61da      	str	r2, [r3, #28]
 8000482:	4a58      	ldr	r2, [pc, #352]	; (80005e4 <SystemCoreClockSetup+0x25c>)
 8000484:	619a      	str	r2, [r3, #24]
 8000486:	2201      	movs	r2, #1
 8000488:	639a      	str	r2, [r3, #56]	; 0x38
 800048a:	4a57      	ldr	r2, [pc, #348]	; (80005e8 <SystemCoreClockSetup+0x260>)
 800048c:	629a      	str	r2, [r3, #40]	; 0x28
 800048e:	684b      	ldr	r3, [r1, #4]
 8000490:	f023 0340 	bic.w	r3, r3, #64	; 0x40
 8000494:	604b      	str	r3, [r1, #4]
 8000496:	4b55      	ldr	r3, [pc, #340]	; (80005ec <SystemCoreClockSetup+0x264>)
 8000498:	608b      	str	r3, [r1, #8]
 800049a:	6823      	ldr	r3, [r4, #0]
 800049c:	069f      	lsls	r7, r3, #26
 800049e:	d5fc      	bpl.n	800049a <SystemCoreClockSetup+0x112>
 80004a0:	f44f 6016 	mov.w	r0, #2400	; 0x960
 80004a4:	f7ff fefa 	bl	800029c <delay>
 80004a8:	4b49      	ldr	r3, [pc, #292]	; (80005d0 <SystemCoreClockSetup+0x248>)
 80004aa:	4a51      	ldr	r2, [pc, #324]	; (80005f0 <SystemCoreClockSetup+0x268>)
 80004ac:	609a      	str	r2, [r3, #8]
 80004ae:	6823      	ldr	r3, [r4, #0]
 80004b0:	069e      	lsls	r6, r3, #26
 80004b2:	d5fc      	bpl.n	80004ae <SystemCoreClockSetup+0x126>
 80004b4:	f44f 6061 	mov.w	r0, #3600	; 0xe10
 80004b8:	f7ff fef0 	bl	800029c <delay>
 80004bc:	4b44      	ldr	r3, [pc, #272]	; (80005d0 <SystemCoreClockSetup+0x248>)
 80004be:	4a4d      	ldr	r2, [pc, #308]	; (80005f4 <SystemCoreClockSetup+0x26c>)
 80004c0:	609a      	str	r2, [r3, #8]
 80004c2:	6823      	ldr	r3, [r4, #0]
 80004c4:	069d      	lsls	r5, r3, #26
 80004c6:	d5fc      	bpl.n	80004c2 <SystemCoreClockSetup+0x13a>
 80004c8:	f44f 5096 	mov.w	r0, #4800	; 0x12c0
 80004cc:	f7ff fee6 	bl	800029c <delay>
 80004d0:	4b3f      	ldr	r3, [pc, #252]	; (80005d0 <SystemCoreClockSetup+0x248>)
 80004d2:	4a49      	ldr	r2, [pc, #292]	; (80005f8 <SystemCoreClockSetup+0x270>)
 80004d4:	609a      	str	r2, [r3, #8]
 80004d6:	6823      	ldr	r3, [r4, #0]
 80004d8:	0698      	lsls	r0, r3, #26
 80004da:	d5fc      	bpl.n	80004d6 <SystemCoreClockSetup+0x14e>
 80004dc:	f241 7070 	movw	r0, #6000	; 0x1770
 80004e0:	f7ff fedc 	bl	800029c <delay>
 80004e4:	4b3a      	ldr	r3, [pc, #232]	; (80005d0 <SystemCoreClockSetup+0x248>)
 80004e6:	4a45      	ldr	r2, [pc, #276]	; (80005fc <SystemCoreClockSetup+0x274>)
 80004e8:	609a      	str	r2, [r3, #8]
 80004ea:	6823      	ldr	r3, [r4, #0]
 80004ec:	4e38      	ldr	r6, [pc, #224]	; (80005d0 <SystemCoreClockSetup+0x248>)
 80004ee:	0699      	lsls	r1, r3, #26
 80004f0:	d5fb      	bpl.n	80004ea <SystemCoreClockSetup+0x162>
 80004f2:	f44f 50e1 	mov.w	r0, #7200	; 0x1c20
 80004f6:	4f42      	ldr	r7, [pc, #264]	; (8000600 <SystemCoreClockSetup+0x278>)
 80004f8:	4d36      	ldr	r5, [pc, #216]	; (80005d4 <SystemCoreClockSetup+0x24c>)
 80004fa:	f7ff fecf 	bl	800029c <delay>
 80004fe:	2305      	movs	r3, #5
 8000500:	60fb      	str	r3, [r7, #12]
 8000502:	6973      	ldr	r3, [r6, #20]
 8000504:	f423 3380 	bic.w	r3, r3, #65536	; 0x10000
 8000508:	f023 0302 	bic.w	r3, r3, #2
 800050c:	6173      	str	r3, [r6, #20]
 800050e:	686b      	ldr	r3, [r5, #4]
 8000510:	f013 0f30 	tst.w	r3, #48	; 0x30
 8000514:	d104      	bne.n	8000520 <SystemCoreClockSetup+0x198>
 8000516:	6963      	ldr	r3, [r4, #20]
 8000518:	f043 0301 	orr.w	r3, r3, #1
 800051c:	6163      	str	r3, [r4, #20]
 800051e:	e024      	b.n	800056a <SystemCoreClockSetup+0x1e2>
 8000520:	6872      	ldr	r2, [r6, #4]
 8000522:	4b38      	ldr	r3, [pc, #224]	; (8000604 <SystemCoreClockSetup+0x27c>)
 8000524:	4013      	ands	r3, r2
 8000526:	b12b      	cbz	r3, 8000534 <SystemCoreClockSetup+0x1ac>
 8000528:	6873      	ldr	r3, [r6, #4]
 800052a:	f423 3380 	bic.w	r3, r3, #65536	; 0x10000
 800052e:	f023 0302 	bic.w	r3, r3, #2
 8000532:	6073      	str	r3, [r6, #4]
 8000534:	686b      	ldr	r3, [r5, #4]
 8000536:	f423 2370 	bic.w	r3, r3, #983040	; 0xf0000
 800053a:	f023 0330 	bic.w	r3, r3, #48	; 0x30
 800053e:	606b      	str	r3, [r5, #4]
 8000540:	f7ff feda 	bl	80002f8 <OSCHP_GetFrequency>
 8000544:	686a      	ldr	r2, [r5, #4]
 8000546:	4b24      	ldr	r3, [pc, #144]	; (80005d8 <SystemCoreClockSetup+0x250>)
 8000548:	fbb0 f0f3 	udiv	r0, r0, r3
 800054c:	3801      	subs	r0, #1
 800054e:	ea42 4000 	orr.w	r0, r2, r0, lsl #16
 8000552:	6068      	str	r0, [r5, #4]
 8000554:	6863      	ldr	r3, [r4, #4]
 8000556:	f423 3300 	bic.w	r3, r3, #131072	; 0x20000
 800055a:	6063      	str	r3, [r4, #4]
 800055c:	6823      	ldr	r3, [r4, #0]
 800055e:	f403 7360 	and.w	r3, r3, #896	; 0x380
 8000562:	f5b3 7f60 	cmp.w	r3, #896	; 0x380
 8000566:	d1f9      	bne.n	800055c <SystemCoreClockSetup+0x1d4>
 8000568:	e7d5      	b.n	8000516 <SystemCoreClockSetup+0x18e>
 800056a:	6922      	ldr	r2, [r4, #16]
 800056c:	4b18      	ldr	r3, [pc, #96]	; (80005d0 <SystemCoreClockSetup+0x248>)
 800056e:	07d2      	lsls	r2, r2, #31
 8000570:	d5fb      	bpl.n	800056a <SystemCoreClockSetup+0x1e2>
 8000572:	695a      	ldr	r2, [r3, #20]
 8000574:	f042 0210 	orr.w	r2, r2, #16
 8000578:	615a      	str	r2, [r3, #20]
 800057a:	4a23      	ldr	r2, [pc, #140]	; (8000608 <SystemCoreClockSetup+0x280>)
 800057c:	615a      	str	r2, [r3, #20]
 800057e:	695a      	ldr	r2, [r3, #20]
 8000580:	f042 0240 	orr.w	r2, r2, #64	; 0x40
 8000584:	615a      	str	r2, [r3, #20]
 8000586:	695a      	ldr	r2, [r3, #20]
 8000588:	f022 0210 	bic.w	r2, r2, #16
 800058c:	615a      	str	r2, [r3, #20]
 800058e:	695a      	ldr	r2, [r3, #20]
 8000590:	f442 2280 	orr.w	r2, r2, #262144	; 0x40000
 8000594:	615a      	str	r2, [r3, #20]
 8000596:	6923      	ldr	r3, [r4, #16]
 8000598:	4a0d      	ldr	r2, [pc, #52]	; (80005d0 <SystemCoreClockSetup+0x248>)
 800059a:	075b      	lsls	r3, r3, #29
 800059c:	d5fb      	bpl.n	8000596 <SystemCoreClockSetup+0x20e>
 800059e:	6953      	ldr	r3, [r2, #20]
 80005a0:	f023 0301 	bic.w	r3, r3, #1
 80005a4:	6153      	str	r3, [r2, #20]
 80005a6:	6923      	ldr	r3, [r4, #16]
 80005a8:	4909      	ldr	r1, [pc, #36]	; (80005d0 <SystemCoreClockSetup+0x248>)
 80005aa:	f013 0301 	ands.w	r3, r3, #1
 80005ae:	d1fa      	bne.n	80005a6 <SystemCoreClockSetup+0x21e>
 80005b0:	694a      	ldr	r2, [r1, #20]
 80005b2:	f022 0240 	bic.w	r2, r2, #64	; 0x40
 80005b6:	614a      	str	r2, [r1, #20]
 80005b8:	2208      	movs	r2, #8
 80005ba:	60fa      	str	r2, [r7, #12]
 80005bc:	4a08      	ldr	r2, [pc, #32]	; (80005e0 <SystemCoreClockSetup+0x258>)
 80005be:	6053      	str	r3, [r2, #4]
 80005c0:	f7ff fe9e 	bl	8000300 <SystemCoreClockUpdate>
 80005c4:	bdf8      	pop	{r3, r4, r5, r6, r7, pc}
 80005c6:	bf00      	nop
 80005c8:	50004200 	.word	0x50004200
 80005cc:	50004400 	.word	0x50004400
 80005d0:	50004710 	.word	0x50004710
 80005d4:	50004700 	.word	0x50004700
 80005d8:	002625a0 	.word	0x002625a0
 80005dc:	010b2f00 	.word	0x010b2f00
 80005e0:	50004600 	.word	0x50004600
 80005e4:	00010005 	.word	0x00010005
 80005e8:	01200003 	.word	0x01200003
 80005ec:	01052f00 	.word	0x01052f00
 80005f0:	01032f00 	.word	0x01032f00
 80005f4:	01022f00 	.word	0x01022f00
 80005f8:	01012f00 	.word	0x01012f00
 80005fc:	01002f00 	.word	0x01002f00
 8000600:	50004160 	.word	0x50004160
 8000604:	00010002 	.word	0x00010002
 8000608:	02006300 	.word	0x02006300

0800060c <SystemInit>:
 800060c:	b538      	push	{r3, r4, r5, lr}
 800060e:	4a09      	ldr	r2, [pc, #36]	; (8000634 <SystemInit+0x28>)
 8000610:	4d09      	ldr	r5, [pc, #36]	; (8000638 <SystemInit+0x2c>)
 8000612:	f04f 5400 	mov.w	r4, #536870912	; 0x20000000
 8000616:	4623      	mov	r3, r4
 8000618:	cb03      	ldmia	r3!, {r0, r1}
 800061a:	42ab      	cmp	r3, r5
 800061c:	6010      	str	r0, [r2, #0]
 800061e:	6051      	str	r1, [r2, #4]
 8000620:	461c      	mov	r4, r3
 8000622:	f102 0208 	add.w	r2, r2, #8
 8000626:	d1f6      	bne.n	8000616 <SystemInit+0xa>
 8000628:	f7ff fe44 	bl	80002b4 <SystemCoreSetup>
 800062c:	f7ff feac 	bl	8000388 <SystemCoreClockSetup>
 8000630:	bd38      	pop	{r3, r4, r5, pc}
 8000632:	bf00      	nop
 8000634:	2003ffc4 	.word	0x2003ffc4
 8000638:	20000010 	.word	0x20000010

0800063c <XMC_GPIO_Init>:
 800063c:	f001 03fc 	and.w	r3, r1, #252	; 0xfc
 8000640:	4403      	add	r3, r0
 8000642:	b5f0      	push	{r4, r5, r6, r7, lr}
 8000644:	f001 0403 	and.w	r4, r1, #3
 8000648:	691e      	ldr	r6, [r3, #16]
 800064a:	00e4      	lsls	r4, r4, #3
 800064c:	25f8      	movs	r5, #248	; 0xf8
 800064e:	40a5      	lsls	r5, r4
 8000650:	ea26 0505 	bic.w	r5, r6, r5
 8000654:	611d      	str	r5, [r3, #16]
 8000656:	6f46      	ldr	r6, [r0, #116]	; 0x74
 8000658:	004f      	lsls	r7, r1, #1
 800065a:	2503      	movs	r5, #3
 800065c:	40bd      	lsls	r5, r7
 800065e:	ea26 0505 	bic.w	r5, r6, r5
 8000662:	6745      	str	r5, [r0, #116]	; 0x74
 8000664:	4d16      	ldr	r5, [pc, #88]	; (80006c0 <XMC_GPIO_Init+0x84>)
 8000666:	42a8      	cmp	r0, r5
 8000668:	d003      	beq.n	8000672 <XMC_GPIO_Init+0x36>
 800066a:	f505 7580 	add.w	r5, r5, #256	; 0x100
 800066e:	42a8      	cmp	r0, r5
 8000670:	d107      	bne.n	8000682 <XMC_GPIO_Init+0x46>
 8000672:	6e05      	ldr	r5, [r0, #96]	; 0x60
 8000674:	2601      	movs	r6, #1
 8000676:	fa06 f101 	lsl.w	r1, r6, r1
 800067a:	ea25 0101 	bic.w	r1, r5, r1
 800067e:	6601      	str	r1, [r0, #96]	; 0x60
 8000680:	e018      	b.n	80006b4 <XMC_GPIO_Init+0x78>
 8000682:	f992 5000 	ldrsb.w	r5, [r2]
 8000686:	2d00      	cmp	r5, #0
 8000688:	da14      	bge.n	80006b4 <XMC_GPIO_Init+0x78>
 800068a:	6855      	ldr	r5, [r2, #4]
 800068c:	408d      	lsls	r5, r1
 800068e:	6045      	str	r5, [r0, #4]
 8000690:	08cd      	lsrs	r5, r1, #3
 8000692:	eb00 0085 	add.w	r0, r0, r5, lsl #2
 8000696:	f001 0107 	and.w	r1, r1, #7
 800069a:	6c06      	ldr	r6, [r0, #64]	; 0x40
 800069c:	0089      	lsls	r1, r1, #2
 800069e:	2507      	movs	r5, #7
 80006a0:	408d      	lsls	r5, r1
 80006a2:	ea26 0505 	bic.w	r5, r6, r5
 80006a6:	6405      	str	r5, [r0, #64]	; 0x40
 80006a8:	7a16      	ldrb	r6, [r2, #8]
 80006aa:	6c05      	ldr	r5, [r0, #64]	; 0x40
 80006ac:	fa06 f101 	lsl.w	r1, r6, r1
 80006b0:	4329      	orrs	r1, r5
 80006b2:	6401      	str	r1, [r0, #64]	; 0x40
 80006b4:	7812      	ldrb	r2, [r2, #0]
 80006b6:	6919      	ldr	r1, [r3, #16]
 80006b8:	40a2      	lsls	r2, r4
 80006ba:	430a      	orrs	r2, r1
 80006bc:	611a      	str	r2, [r3, #16]
 80006be:	bdf0      	pop	{r4, r5, r6, r7, pc}
 80006c0:	48028e00 	.word	0x48028e00

080006c4 <XMC_GPIO_SetHardwareControl>:
 80006c4:	6f43      	ldr	r3, [r0, #116]	; 0x74
 80006c6:	0049      	lsls	r1, r1, #1
 80006c8:	b510      	push	{r4, lr}
 80006ca:	2403      	movs	r4, #3
 80006cc:	408c      	lsls	r4, r1
 80006ce:	ea23 0304 	bic.w	r3, r3, r4
 80006d2:	6743      	str	r3, [r0, #116]	; 0x74
 80006d4:	6f43      	ldr	r3, [r0, #116]	; 0x74
 80006d6:	408a      	lsls	r2, r1
 80006d8:	4313      	orrs	r3, r2
 80006da:	6743      	str	r3, [r0, #116]	; 0x74
 80006dc:	bd10      	pop	{r4, pc}

080006de <_init>:
 80006de:	4770      	bx	lr

080006e0 <DIGITAL_IO_Init>:
 80006e0:	b510      	push	{r4, lr}
 80006e2:	4604      	mov	r4, r0
 80006e4:	1d22      	adds	r2, r4, #4
 80006e6:	7c21      	ldrb	r1, [r4, #16]
 80006e8:	6800      	ldr	r0, [r0, #0]
 80006ea:	f7ff ffa7 	bl	800063c <XMC_GPIO_Init>
 80006ee:	6820      	ldr	r0, [r4, #0]
 80006f0:	7c21      	ldrb	r1, [r4, #16]
 80006f2:	7c62      	ldrb	r2, [r4, #17]
 80006f4:	f7ff ffe6 	bl	80006c4 <XMC_GPIO_SetHardwareControl>
 80006f8:	2000      	movs	r0, #0
 80006fa:	bd10      	pop	{r4, pc}

080006fc <DAVE_Init>:
 80006fc:	b508      	push	{r3, lr}
 80006fe:	4805      	ldr	r0, [pc, #20]	; (8000714 <DAVE_Init+0x18>)
 8000700:	f7ff ffee 	bl	80006e0 <DIGITAL_IO_Init>
 8000704:	b920      	cbnz	r0, 8000710 <DAVE_Init+0x14>
 8000706:	4804      	ldr	r0, [pc, #16]	; (8000718 <DAVE_Init+0x1c>)
 8000708:	e8bd 4008 	ldmia.w	sp!, {r3, lr}
 800070c:	f7ff bfe8 	b.w	80006e0 <DIGITAL_IO_Init>
 8000710:	bd08      	pop	{r3, pc}
 8000712:	bf00      	nop
 8000714:	080007f8 	.word	0x080007f8
 8000718:	0800080c 	.word	0x0800080c

0800071c <main>:
 800071c:	b538      	push	{r3, r4, r5, lr}
 800071e:	f7ff ffed 	bl	80006fc <DAVE_Init>
 8000722:	b100      	cbz	r0, 8000726 <main+0xa>
 8000724:	e7fe      	b.n	8000724 <main+0x8>
 8000726:	4b1d      	ldr	r3, [pc, #116]	; (800079c <main+0x80>)
 8000728:	7c1a      	ldrb	r2, [r3, #16]
 800072a:	681c      	ldr	r4, [r3, #0]
 800072c:	f04f 1301 	mov.w	r3, #65537	; 0x10001
 8000730:	4093      	lsls	r3, r2
 8000732:	4a1b      	ldr	r2, [pc, #108]	; (80007a0 <main+0x84>)
 8000734:	7c15      	ldrb	r5, [r2, #16]
 8000736:	6810      	ldr	r0, [r2, #0]
 8000738:	f44f 3180 	mov.w	r1, #65536	; 0x10000
 800073c:	2201      	movs	r2, #1
 800073e:	40aa      	lsls	r2, r5
 8000740:	40a9      	lsls	r1, r5
 8000742:	eddf 6a18 	vldr	s13, [pc, #96]	; 80007a4 <main+0x88>
 8000746:	6063      	str	r3, [r4, #4]
 8000748:	eeb7 7a00 	vmov.f32	s14, #112	; 0x70
 800074c:	ee76 6a87 	vadd.f32	s13, s13, s14
 8000750:	eddf 7a15 	vldr	s15, [pc, #84]	; 80007a8 <main+0x8c>
 8000754:	eef4 6ae7 	vcmpe.f32	s13, s15
 8000758:	eef1 fa10 	vmrs	APSR_nzcv, fpscr
 800075c:	d4f4      	bmi.n	8000748 <main+0x2c>
 800075e:	eddf 6a11 	vldr	s13, [pc, #68]	; 80007a4 <main+0x88>
 8000762:	6063      	str	r3, [r4, #4]
 8000764:	ee76 6a87 	vadd.f32	s13, s13, s14
 8000768:	eef4 6ae7 	vcmpe.f32	s13, s15
 800076c:	eef1 fa10 	vmrs	APSR_nzcv, fpscr
 8000770:	d4f8      	bmi.n	8000764 <main+0x48>
 8000772:	eddf 6a0c 	vldr	s13, [pc, #48]	; 80007a4 <main+0x88>
 8000776:	6042      	str	r2, [r0, #4]
 8000778:	ee76 6a87 	vadd.f32	s13, s13, s14
 800077c:	eef4 6ae7 	vcmpe.f32	s13, s15
 8000780:	eef1 fa10 	vmrs	APSR_nzcv, fpscr
 8000784:	d4f8      	bmi.n	8000778 <main+0x5c>
 8000786:	eddf 6a07 	vldr	s13, [pc, #28]	; 80007a4 <main+0x88>
 800078a:	6041      	str	r1, [r0, #4]
 800078c:	ee76 6a87 	vadd.f32	s13, s13, s14
 8000790:	eef4 6ae7 	vcmpe.f32	s13, s15
 8000794:	eef1 fa10 	vmrs	APSR_nzcv, fpscr
 8000798:	d4f8      	bmi.n	800078c <main+0x70>
 800079a:	e7d2      	b.n	8000742 <main+0x26>
 800079c:	080007f8 	.word	0x080007f8
 80007a0:	0800080c 	.word	0x0800080c
 80007a4:	00000000 	.word	0x00000000
 80007a8:	4b095440 	.word	0x4b095440

080007ac <__libc_init_array>:
 80007ac:	b570      	push	{r4, r5, r6, lr}
 80007ae:	4b0e      	ldr	r3, [pc, #56]	; (80007e8 <__libc_init_array+0x3c>)
 80007b0:	4c0e      	ldr	r4, [pc, #56]	; (80007ec <__libc_init_array+0x40>)
 80007b2:	1ae4      	subs	r4, r4, r3
 80007b4:	10a4      	asrs	r4, r4, #2
 80007b6:	2500      	movs	r5, #0
 80007b8:	461e      	mov	r6, r3
 80007ba:	42a5      	cmp	r5, r4
 80007bc:	d004      	beq.n	80007c8 <__libc_init_array+0x1c>
 80007be:	f856 3025 	ldr.w	r3, [r6, r5, lsl #2]
 80007c2:	4798      	blx	r3
 80007c4:	3501      	adds	r5, #1
 80007c6:	e7f8      	b.n	80007ba <__libc_init_array+0xe>
 80007c8:	f7ff ff89 	bl	80006de <_init>
 80007cc:	4c08      	ldr	r4, [pc, #32]	; (80007f0 <__libc_init_array+0x44>)
 80007ce:	4b09      	ldr	r3, [pc, #36]	; (80007f4 <__libc_init_array+0x48>)
 80007d0:	1ae4      	subs	r4, r4, r3
 80007d2:	10a4      	asrs	r4, r4, #2
 80007d4:	2500      	movs	r5, #0
 80007d6:	461e      	mov	r6, r3
 80007d8:	42a5      	cmp	r5, r4
 80007da:	d004      	beq.n	80007e6 <__libc_init_array+0x3a>
 80007dc:	f856 3025 	ldr.w	r3, [r6, r5, lsl #2]
 80007e0:	4798      	blx	r3
 80007e2:	3501      	adds	r5, #1
 80007e4:	e7f8      	b.n	80007d8 <__libc_init_array+0x2c>
 80007e6:	bd70      	pop	{r4, r5, r6, pc}
 80007e8:	1ffe8800 	.word	0x1ffe8800
 80007ec:	1ffe8800 	.word	0x1ffe8800
 80007f0:	1ffe8800 	.word	0x1ffe8800
 80007f4:	1ffe8800 	.word	0x1ffe8800

080007f8 <LED1>:
 80007f8:	48028400 00000080 00010000 00000000     ...H............
 8000808:	00000000                                ....

0800080c <LED2>:
 800080c:	48028400 00000080 00010000 00000000     ...H............
 800081c:	00000001                                ....
