
Emulator_CAN.elf:     file format elf32-littlearm

Sections:
Idx Name          Size      VMA       LMA       File off  Algn
  0 .text         00005590  08000000  0c000000  00008000  2**2
                  CONTENTS, ALLOC, LOAD, READONLY, CODE
  1 Stack         00000800  1ffe8000  1ffe8000  00018000  2**0
                  ALLOC
  2 .data         0000008c  1ffe8800  0c005590  00010800  2**3
                  CONTENTS, ALLOC, LOAD, DATA
  3 .bss          000002e0  1ffe888c  0c00561c  0001088c  2**2
                  ALLOC
  4 .no_init      00000014  2003ffc0  2003ffc0  00017fc0  2**2
                  ALLOC
  5 .debug_frame  0000004c  00000000  00000000  0001088c  2**2
                  CONTENTS, READONLY, DEBUGGING
  6 .build_attributes 00000467  00000000  00000000  000108d8  2**0
                  CONTENTS, READONLY

Disassembly of section .text:

08000000 <__Vectors>:
 8000000:	00 88 fe 1f 01 02 00 08 99 02 00 08 99 02 00 08     ................
 8000010:	99 02 00 08 99 02 00 08 99 02 00 08 00 00 00 00     ................
	...
 800002c:	99 02 00 08 99 02 00 08 00 00 00 00 99 02 00 08     ................
 800003c:	99 02 00 08 99 02 00 08 99 02 00 08 99 02 00 08     ................
 800004c:	99 02 00 08 99 02 00 08 99 02 00 08 99 02 00 08     ................
 800005c:	99 02 00 08 99 02 00 08 00 00 00 00 00 00 00 00     ................
 800006c:	00 00 00 00 99 02 00 08 00 00 00 00 99 02 00 08     ................
 800007c:	99 02 00 08 99 02 00 08 99 02 00 08 99 02 00 08     ................
 800008c:	99 02 00 08 99 02 00 08 99 02 00 08 99 02 00 08     ................
 800009c:	99 02 00 08 99 02 00 08 99 02 00 08 99 02 00 08     ................
 80000ac:	99 02 00 08 99 02 00 08 99 02 00 08 99 02 00 08     ................
 80000bc:	99 02 00 08 99 02 00 08 99 02 00 08 99 02 00 08     ................
 80000cc:	99 02 00 08 99 02 00 08 99 02 00 08 99 02 00 08     ................
 80000dc:	99 02 00 08 99 02 00 08 99 02 00 08 99 02 00 08     ................
 80000ec:	99 02 00 08 99 02 00 08 99 02 00 08 99 02 00 08     ................
 80000fc:	99 02 00 08 99 02 00 08 99 02 00 08 99 02 00 08     ................
 800010c:	99 02 00 08 99 02 00 08 99 02 00 08 99 02 00 08     ................
 800011c:	99 02 00 08 99 02 00 08 99 02 00 08 99 02 00 08     ................
 800012c:	99 02 00 08 99 02 00 08 99 02 00 08 99 02 00 08     ................
 800013c:	99 02 00 08 99 02 00 08 99 02 00 08 99 02 00 08     ................
 800014c:	99 02 00 08 99 02 00 08 99 02 00 08 99 02 00 08     ................
 800015c:	99 02 00 08 00 00 00 00 00 00 00 00 00 00 00 00     ................
 800016c:	00 00 00 00 99 02 00 08 99 02 00 08 99 02 00 08     ................
 800017c:	99 02 00 08 99 02 00 08 99 02 00 08 99 02 00 08     ................
 800018c:	99 02 00 08 99 02 00 08 99 02 00 08 99 02 00 08     ................
 800019c:	99 02 00 08 99 02 00 08 99 02 00 08 99 02 00 08     ................
 80001ac:	99 02 00 08 99 02 00 08 99 02 00 08 99 02 00 08     ................
 80001bc:	99 02 00 08 99 02 00 08 99 02 00 08 99 02 00 08     ................
 80001cc:	99 02 00 08 99 02 00 08 99 02 00 08 99 02 00 08     ................
 80001dc:	00 00 00 00 99 02 00 08 99 02 00 08 99 02 00 08     ................
 80001ec:	99 02 00 08 99 02 00 08 99 02 00 08 99 02 00 08     ................
 80001fc:	00 00 00 00                                         ....

08000200 <Reset_Handler>:
 8000200:	f8df d074 	ldr.w	sp, [pc, #116]	; 8000278 <__zero_table_end__>
 8000204:	481d      	ldr	r0, [pc, #116]	; (800027c <__zero_table_end__+0x4>)
 8000206:	4780      	blx	r0
 8000208:	4c1d      	ldr	r4, [pc, #116]	; (8000280 <__zero_table_end__+0x8>)
 800020a:	4d1e      	ldr	r5, [pc, #120]	; (8000284 <__zero_table_end__+0xc>)
 800020c:	42ac      	cmp	r4, r5
 800020e:	da09      	bge.n	8000224 <Reset_Handler+0x24>
 8000210:	6821      	ldr	r1, [r4, #0]
 8000212:	6862      	ldr	r2, [r4, #4]
 8000214:	68a3      	ldr	r3, [r4, #8]
 8000216:	3b04      	subs	r3, #4
 8000218:	bfa2      	ittt	ge
 800021a:	58c8      	ldrge	r0, [r1, r3]
 800021c:	50d0      	strge	r0, [r2, r3]
 800021e:	e7fa      	bge.n	8000216 <Reset_Handler+0x16>
 8000220:	340c      	adds	r4, #12
 8000222:	e7f3      	b.n	800020c <Reset_Handler+0xc>
 8000224:	4b18      	ldr	r3, [pc, #96]	; (8000288 <__zero_table_end__+0x10>)
 8000226:	4c19      	ldr	r4, [pc, #100]	; (800028c <__zero_table_end__+0x14>)
 8000228:	42a3      	cmp	r3, r4
 800022a:	da08      	bge.n	800023e <Reset_Handler+0x3e>
 800022c:	6819      	ldr	r1, [r3, #0]
 800022e:	685a      	ldr	r2, [r3, #4]
 8000230:	2000      	movs	r0, #0
 8000232:	3a04      	subs	r2, #4
 8000234:	bfa4      	itt	ge
 8000236:	5088      	strge	r0, [r1, r2]
 8000238:	e7fb      	bge.n	8000232 <Reset_Handler+0x32>
 800023a:	3308      	adds	r3, #8
 800023c:	e7f4      	b.n	8000228 <Reset_Handler+0x28>
 800023e:	4814      	ldr	r0, [pc, #80]	; (8000290 <__zero_table_end__+0x18>)
 8000240:	4780      	blx	r0
 8000242:	4814      	ldr	r0, [pc, #80]	; (8000294 <__zero_table_end__+0x1c>)
 8000244:	4780      	blx	r0
	...

08000248 <__copy_table_start__>:
 8000248:	0c005590 	.word	0x0c005590
 800024c:	1ffe8800 	.word	0x1ffe8800
 8000250:	0000008c 	.word	0x0000008c
 8000254:	0c005590 	.word	0x0c005590
 8000258:	1ffe8800 	.word	0x1ffe8800
 800025c:	00000000 	.word	0x00000000

08000260 <__copy_table_end__>:
 8000260:	1ffe888c 	.word	0x1ffe888c
 8000264:	000002e0 	.word	0x000002e0
 8000268:	20000000 	.word	0x20000000
 800026c:	00000000 	.word	0x00000000
 8000270:	20000000 	.word	0x20000000
 8000274:	00000000 	.word	0x00000000

08000278 <__zero_table_end__>:
 8000278:	1ffe8800 	.word	0x1ffe8800
 800027c:	08000369 	.word	0x08000369
 8000280:	08000248 	.word	0x08000248
 8000284:	08000260 	.word	0x08000260
 8000288:	08000260 	.word	0x08000260
 800028c:	08000278 	.word	0x08000278
 8000290:	08004ff1 	.word	0x08004ff1
 8000294:	08004fa5 	.word	0x08004fa5

08000298 <BusFault_Handler>:
 8000298:	e7fe      	b.n	8000298 <BusFault_Handler>
	...

0800029c <SystemCoreSetup>:
 800029c:	b672      	cpsid	i
 800029e:	4b0d      	ldr	r3, [pc, #52]	; (80002d4 <SystemCoreSetup+0x38>)
 80002a0:	4a0d      	ldr	r2, [pc, #52]	; (80002d8 <SystemCoreSetup+0x3c>)
 80002a2:	609a      	str	r2, [r3, #8]
 80002a4:	f3bf 8f4f 	dsb	sy
 80002a8:	b662      	cpsie	i
 80002aa:	f8d3 2088 	ldr.w	r2, [r3, #136]	; 0x88
 80002ae:	490b      	ldr	r1, [pc, #44]	; (80002dc <SystemCoreSetup+0x40>)
 80002b0:	f442 0270 	orr.w	r2, r2, #15728640	; 0xf00000
 80002b4:	f8c3 2088 	str.w	r2, [r3, #136]	; 0x88
 80002b8:	695a      	ldr	r2, [r3, #20]
 80002ba:	f022 0208 	bic.w	r2, r2, #8
 80002be:	615a      	str	r2, [r3, #20]
 80002c0:	f241 0214 	movw	r2, #4116	; 0x1014
 80002c4:	588b      	ldr	r3, [r1, r2]
 80002c6:	f023 030f 	bic.w	r3, r3, #15
 80002ca:	f043 0304 	orr.w	r3, r3, #4
 80002ce:	508b      	str	r3, [r1, r2]
 80002d0:	4770      	bx	lr
 80002d2:	bf00      	nop
 80002d4:	e000ed00 	.word	0xe000ed00
 80002d8:	08000000 	.word	0x08000000
 80002dc:	58001000 	.word	0x58001000

080002e0 <SystemCoreClockUpdate>:
 80002e0:	4b1d      	ldr	r3, [pc, #116]	; (8000358 <SystemCoreClockUpdate+0x78>)
 80002e2:	68db      	ldr	r3, [r3, #12]
 80002e4:	03d9      	lsls	r1, r3, #15
 80002e6:	b510      	push	{r4, lr}
 80002e8:	d525      	bpl.n	8000336 <SystemCoreClockUpdate+0x56>
 80002ea:	4b1c      	ldr	r3, [pc, #112]	; (800035c <SystemCoreClockUpdate+0x7c>)
 80002ec:	68da      	ldr	r2, [r3, #12]
 80002ee:	f012 0f01 	tst.w	r2, #1
 80002f2:	461c      	mov	r4, r3
 80002f4:	d102      	bne.n	80002fc <SystemCoreClockUpdate+0x1c>
 80002f6:	f004 fe03 	bl	8004f00 <OSCHP_GetFrequency>
 80002fa:	e000      	b.n	80002fe <SystemCoreClockUpdate+0x1e>
 80002fc:	4818      	ldr	r0, [pc, #96]	; (8000360 <SystemCoreClockUpdate+0x80>)
 80002fe:	6822      	ldr	r2, [r4, #0]
 8000300:	4b16      	ldr	r3, [pc, #88]	; (800035c <SystemCoreClockUpdate+0x7c>)
 8000302:	0752      	lsls	r2, r2, #29
 8000304:	d510      	bpl.n	8000328 <SystemCoreClockUpdate+0x48>
 8000306:	689a      	ldr	r2, [r3, #8]
 8000308:	6899      	ldr	r1, [r3, #8]
 800030a:	689b      	ldr	r3, [r3, #8]
 800030c:	f3c2 6203 	ubfx	r2, r2, #24, #4
 8000310:	f3c3 4406 	ubfx	r4, r3, #16, #7
 8000314:	1c53      	adds	r3, r2, #1
 8000316:	fb04 3303 	mla	r3, r4, r3, r3
 800031a:	fbb0 f0f3 	udiv	r0, r0, r3
 800031e:	f3c1 2306 	ubfx	r3, r1, #8, #7
 8000322:	fb03 0000 	mla	r0, r3, r0, r0
 8000326:	e007      	b.n	8000338 <SystemCoreClockUpdate+0x58>
 8000328:	689b      	ldr	r3, [r3, #8]
 800032a:	f003 037f 	and.w	r3, r3, #127	; 0x7f
 800032e:	3301      	adds	r3, #1
 8000330:	fbb0 f0f3 	udiv	r0, r0, r3
 8000334:	e000      	b.n	8000338 <SystemCoreClockUpdate+0x58>
 8000336:	480a      	ldr	r0, [pc, #40]	; (8000360 <SystemCoreClockUpdate+0x80>)
 8000338:	4a07      	ldr	r2, [pc, #28]	; (8000358 <SystemCoreClockUpdate+0x78>)
 800033a:	68d3      	ldr	r3, [r2, #12]
 800033c:	b2db      	uxtb	r3, r3
 800033e:	3301      	adds	r3, #1
 8000340:	fbb0 f0f3 	udiv	r0, r0, r3
 8000344:	6913      	ldr	r3, [r2, #16]
 8000346:	f003 0301 	and.w	r3, r3, #1
 800034a:	3301      	adds	r3, #1
 800034c:	fbb0 f0f3 	udiv	r0, r0, r3
 8000350:	4b04      	ldr	r3, [pc, #16]	; (8000364 <SystemCoreClockUpdate+0x84>)
 8000352:	6018      	str	r0, [r3, #0]
 8000354:	bd10      	pop	{r4, pc}
 8000356:	bf00      	nop
 8000358:	50004600 	.word	0x50004600
 800035c:	50004710 	.word	0x50004710
 8000360:	016e3600 	.word	0x016e3600
 8000364:	2003ffc0 	.word	0x2003ffc0

08000368 <SystemInit>:
 8000368:	b538      	push	{r3, r4, r5, lr}
 800036a:	4a09      	ldr	r2, [pc, #36]	; (8000390 <SystemInit+0x28>)
 800036c:	4d09      	ldr	r5, [pc, #36]	; (8000394 <SystemInit+0x2c>)
 800036e:	f04f 5400 	mov.w	r4, #536870912	; 0x20000000
 8000372:	4623      	mov	r3, r4
 8000374:	cb03      	ldmia	r3!, {r0, r1}
 8000376:	42ab      	cmp	r3, r5
 8000378:	6010      	str	r0, [r2, #0]
 800037a:	6051      	str	r1, [r2, #4]
 800037c:	461c      	mov	r4, r3
 800037e:	f102 0208 	add.w	r2, r2, #8
 8000382:	d1f6      	bne.n	8000372 <SystemInit+0xa>
 8000384:	f7ff ff8a 	bl	800029c <SystemCoreSetup>
 8000388:	f004 fdbe 	bl	8004f08 <SystemCoreClockSetup>
 800038c:	bd38      	pop	{r3, r4, r5, pc}
 800038e:	bf00      	nop
 8000390:	2003ffc4 	.word	0x2003ffc4
 8000394:	20000010 	.word	0x20000010

08000398 <PMB_UpdateEU>:
 8000398:	4bed      	ldr	r3, [pc, #948]	; (8000750 <PMB_UpdateEU+0x3b8>)
 800039a:	881a      	ldrh	r2, [r3, #0]
 800039c:	f8b3 1094 	ldrh.w	r1, [r3, #148]	; 0x94
 80003a0:	f8b3 009a 	ldrh.w	r0, [r3, #154]	; 0x9a
 80003a4:	1a51      	subs	r1, r2, r1
 80003a6:	f9b3 2112 	ldrsh.w	r2, [r3, #274]	; 0x112
 80003aa:	e92d 4ff0 	stmdb	sp!, {r4, r5, r6, r7, r8, r9, sl, fp, lr}
 80003ae:	4351      	muls	r1, r2
 80003b0:	f8b3 6096 	ldrh.w	r6, [r3, #150]	; 0x96
 80003b4:	f8b3 4098 	ldrh.w	r4, [r3, #152]	; 0x98
 80003b8:	f640 72ff 	movw	r2, #4095	; 0xfff
 80003bc:	fb91 f1f2 	sdiv	r1, r1, r2
 80003c0:	f8a3 1190 	strh.w	r1, [r3, #400]	; 0x190
 80003c4:	8859      	ldrh	r1, [r3, #2]
 80003c6:	1b8e      	subs	r6, r1, r6
 80003c8:	f9b3 1114 	ldrsh.w	r1, [r3, #276]	; 0x114
 80003cc:	434e      	muls	r6, r1
 80003ce:	8899      	ldrh	r1, [r3, #4]
 80003d0:	fb96 f6f2 	sdiv	r6, r6, r2
 80003d4:	1b0c      	subs	r4, r1, r4
 80003d6:	f9b3 1116 	ldrsh.w	r1, [r3, #278]	; 0x116
 80003da:	f8a3 6192 	strh.w	r6, [r3, #402]	; 0x192
 80003de:	434c      	muls	r4, r1
 80003e0:	88d9      	ldrh	r1, [r3, #6]
 80003e2:	fb94 f4f2 	sdiv	r4, r4, r2
 80003e6:	1a09      	subs	r1, r1, r0
 80003e8:	f9b3 0118 	ldrsh.w	r0, [r3, #280]	; 0x118
 80003ec:	f8a3 4194 	strh.w	r4, [r3, #404]	; 0x194
 80003f0:	4341      	muls	r1, r0
 80003f2:	f8b3 009c 	ldrh.w	r0, [r3, #156]	; 0x9c
 80003f6:	fb91 f1f2 	sdiv	r1, r1, r2
 80003fa:	f8a3 1196 	strh.w	r1, [r3, #406]	; 0x196
 80003fe:	8919      	ldrh	r1, [r3, #8]
 8000400:	1a09      	subs	r1, r1, r0
 8000402:	f9b3 011a 	ldrsh.w	r0, [r3, #282]	; 0x11a
 8000406:	4341      	muls	r1, r0
 8000408:	f8b3 009e 	ldrh.w	r0, [r3, #158]	; 0x9e
 800040c:	fb91 f1f2 	sdiv	r1, r1, r2
 8000410:	f8a3 1198 	strh.w	r1, [r3, #408]	; 0x198
 8000414:	8959      	ldrh	r1, [r3, #10]
 8000416:	1a09      	subs	r1, r1, r0
 8000418:	f9b3 011c 	ldrsh.w	r0, [r3, #284]	; 0x11c
 800041c:	4341      	muls	r1, r0
 800041e:	f8b3 00a0 	ldrh.w	r0, [r3, #160]	; 0xa0
 8000422:	fb91 f1f2 	sdiv	r1, r1, r2
 8000426:	f8a3 119a 	strh.w	r1, [r3, #410]	; 0x19a
 800042a:	8999      	ldrh	r1, [r3, #12]
 800042c:	1a09      	subs	r1, r1, r0
 800042e:	f9b3 011e 	ldrsh.w	r0, [r3, #286]	; 0x11e
 8000432:	4341      	muls	r1, r0
 8000434:	f8b3 00a2 	ldrh.w	r0, [r3, #162]	; 0xa2
 8000438:	fb91 f1f2 	sdiv	r1, r1, r2
 800043c:	f8a3 119c 	strh.w	r1, [r3, #412]	; 0x19c
 8000440:	89d9      	ldrh	r1, [r3, #14]
 8000442:	1a09      	subs	r1, r1, r0
 8000444:	f9b3 0120 	ldrsh.w	r0, [r3, #288]	; 0x120
 8000448:	4341      	muls	r1, r0
 800044a:	fb91 f1f2 	sdiv	r1, r1, r2
 800044e:	f8a3 119e 	strh.w	r1, [r3, #414]	; 0x19e
 8000452:	8a19      	ldrh	r1, [r3, #16]
 8000454:	f8b3 00a4 	ldrh.w	r0, [r3, #164]	; 0xa4
 8000458:	1a09      	subs	r1, r1, r0
 800045a:	f9b3 0122 	ldrsh.w	r0, [r3, #290]	; 0x122
 800045e:	4341      	muls	r1, r0
 8000460:	f8b3 00a6 	ldrh.w	r0, [r3, #166]	; 0xa6
 8000464:	fb91 f1f2 	sdiv	r1, r1, r2
 8000468:	f8a3 11a0 	strh.w	r1, [r3, #416]	; 0x1a0
 800046c:	8a59      	ldrh	r1, [r3, #18]
 800046e:	1a09      	subs	r1, r1, r0
 8000470:	f9b3 0124 	ldrsh.w	r0, [r3, #292]	; 0x124
 8000474:	4341      	muls	r1, r0
 8000476:	f8b3 00a8 	ldrh.w	r0, [r3, #168]	; 0xa8
 800047a:	fb91 f1f2 	sdiv	r1, r1, r2
 800047e:	f8a3 11a2 	strh.w	r1, [r3, #418]	; 0x1a2
 8000482:	8a99      	ldrh	r1, [r3, #20]
 8000484:	1a09      	subs	r1, r1, r0
 8000486:	f9b3 0126 	ldrsh.w	r0, [r3, #294]	; 0x126
 800048a:	4341      	muls	r1, r0
 800048c:	f8b3 00aa 	ldrh.w	r0, [r3, #170]	; 0xaa
 8000490:	fb91 f1f2 	sdiv	r1, r1, r2
 8000494:	f8a3 11a4 	strh.w	r1, [r3, #420]	; 0x1a4
 8000498:	8ad9      	ldrh	r1, [r3, #22]
 800049a:	1a09      	subs	r1, r1, r0
 800049c:	f9b3 0128 	ldrsh.w	r0, [r3, #296]	; 0x128
 80004a0:	4341      	muls	r1, r0
 80004a2:	f8b3 00ac 	ldrh.w	r0, [r3, #172]	; 0xac
 80004a6:	fb91 f1f2 	sdiv	r1, r1, r2
 80004aa:	f8a3 11a6 	strh.w	r1, [r3, #422]	; 0x1a6
 80004ae:	8b19      	ldrh	r1, [r3, #24]
 80004b0:	1a09      	subs	r1, r1, r0
 80004b2:	f9b3 012a 	ldrsh.w	r0, [r3, #298]	; 0x12a
 80004b6:	4341      	muls	r1, r0
 80004b8:	f8b3 00ae 	ldrh.w	r0, [r3, #174]	; 0xae
 80004bc:	fb91 f1f2 	sdiv	r1, r1, r2
 80004c0:	f8a3 11a8 	strh.w	r1, [r3, #424]	; 0x1a8
 80004c4:	8b59      	ldrh	r1, [r3, #26]
 80004c6:	1a09      	subs	r1, r1, r0
 80004c8:	f9b3 012c 	ldrsh.w	r0, [r3, #300]	; 0x12c
 80004cc:	4341      	muls	r1, r0
 80004ce:	f8b3 00b0 	ldrh.w	r0, [r3, #176]	; 0xb0
 80004d2:	fb91 f1f2 	sdiv	r1, r1, r2
 80004d6:	f8a3 11aa 	strh.w	r1, [r3, #426]	; 0x1aa
 80004da:	8b99      	ldrh	r1, [r3, #28]
 80004dc:	1a09      	subs	r1, r1, r0
 80004de:	f9b3 012e 	ldrsh.w	r0, [r3, #302]	; 0x12e
 80004e2:	4341      	muls	r1, r0
 80004e4:	f8b3 00b2 	ldrh.w	r0, [r3, #178]	; 0xb2
 80004e8:	fb91 f1f2 	sdiv	r1, r1, r2
 80004ec:	f8a3 11ac 	strh.w	r1, [r3, #428]	; 0x1ac
 80004f0:	8bd9      	ldrh	r1, [r3, #30]
 80004f2:	1a09      	subs	r1, r1, r0
 80004f4:	f9b3 0130 	ldrsh.w	r0, [r3, #304]	; 0x130
 80004f8:	4341      	muls	r1, r0
 80004fa:	fb91 f1f2 	sdiv	r1, r1, r2
 80004fe:	f8a3 11ae 	strh.w	r1, [r3, #430]	; 0x1ae
 8000502:	8c19      	ldrh	r1, [r3, #32]
 8000504:	f8b3 00b4 	ldrh.w	r0, [r3, #180]	; 0xb4
 8000508:	1a09      	subs	r1, r1, r0
 800050a:	f9b3 0132 	ldrsh.w	r0, [r3, #306]	; 0x132
 800050e:	4341      	muls	r1, r0
 8000510:	f8b3 00b6 	ldrh.w	r0, [r3, #182]	; 0xb6
 8000514:	fb91 f1f2 	sdiv	r1, r1, r2
 8000518:	f8a3 11b0 	strh.w	r1, [r3, #432]	; 0x1b0
 800051c:	8c59      	ldrh	r1, [r3, #34]	; 0x22
 800051e:	1a09      	subs	r1, r1, r0
 8000520:	f9b3 0134 	ldrsh.w	r0, [r3, #308]	; 0x134
 8000524:	4341      	muls	r1, r0
 8000526:	f8b3 00b8 	ldrh.w	r0, [r3, #184]	; 0xb8
 800052a:	fb91 f1f2 	sdiv	r1, r1, r2
 800052e:	f8a3 11b2 	strh.w	r1, [r3, #434]	; 0x1b2
 8000532:	8c99      	ldrh	r1, [r3, #36]	; 0x24
 8000534:	1a09      	subs	r1, r1, r0
 8000536:	f9b3 0136 	ldrsh.w	r0, [r3, #310]	; 0x136
 800053a:	4341      	muls	r1, r0
 800053c:	f8b3 00ba 	ldrh.w	r0, [r3, #186]	; 0xba
 8000540:	fb91 f1f2 	sdiv	r1, r1, r2
 8000544:	f8a3 11b4 	strh.w	r1, [r3, #436]	; 0x1b4
 8000548:	8cd9      	ldrh	r1, [r3, #38]	; 0x26
 800054a:	1a09      	subs	r1, r1, r0
 800054c:	f9b3 0138 	ldrsh.w	r0, [r3, #312]	; 0x138
 8000550:	4341      	muls	r1, r0
 8000552:	f8b3 00bc 	ldrh.w	r0, [r3, #188]	; 0xbc
 8000556:	fb91 f1f2 	sdiv	r1, r1, r2
 800055a:	f8a3 11b6 	strh.w	r1, [r3, #438]	; 0x1b6
 800055e:	8d19      	ldrh	r1, [r3, #40]	; 0x28
 8000560:	1a09      	subs	r1, r1, r0
 8000562:	f9b3 013a 	ldrsh.w	r0, [r3, #314]	; 0x13a
 8000566:	4341      	muls	r1, r0
 8000568:	f8b3 00be 	ldrh.w	r0, [r3, #190]	; 0xbe
 800056c:	fb91 f1f2 	sdiv	r1, r1, r2
 8000570:	f8a3 11b8 	strh.w	r1, [r3, #440]	; 0x1b8
 8000574:	8d59      	ldrh	r1, [r3, #42]	; 0x2a
 8000576:	1a09      	subs	r1, r1, r0
 8000578:	f9b3 013c 	ldrsh.w	r0, [r3, #316]	; 0x13c
 800057c:	4341      	muls	r1, r0
 800057e:	f8b3 00c0 	ldrh.w	r0, [r3, #192]	; 0xc0
 8000582:	fb91 f1f2 	sdiv	r1, r1, r2
 8000586:	f8a3 11ba 	strh.w	r1, [r3, #442]	; 0x1ba
 800058a:	8d99      	ldrh	r1, [r3, #44]	; 0x2c
 800058c:	1a09      	subs	r1, r1, r0
 800058e:	f9b3 013e 	ldrsh.w	r0, [r3, #318]	; 0x13e
 8000592:	4341      	muls	r1, r0
 8000594:	f8b3 00c2 	ldrh.w	r0, [r3, #194]	; 0xc2
 8000598:	fb91 f1f2 	sdiv	r1, r1, r2
 800059c:	f8a3 11bc 	strh.w	r1, [r3, #444]	; 0x1bc
 80005a0:	8dd9      	ldrh	r1, [r3, #46]	; 0x2e
 80005a2:	1a09      	subs	r1, r1, r0
 80005a4:	f9b3 0140 	ldrsh.w	r0, [r3, #320]	; 0x140
 80005a8:	4341      	muls	r1, r0
 80005aa:	f8b3 00c4 	ldrh.w	r0, [r3, #196]	; 0xc4
 80005ae:	fb91 f1f2 	sdiv	r1, r1, r2
 80005b2:	f8a3 11be 	strh.w	r1, [r3, #446]	; 0x1be
 80005b6:	8e19      	ldrh	r1, [r3, #48]	; 0x30
 80005b8:	1a09      	subs	r1, r1, r0
 80005ba:	f9b3 0142 	ldrsh.w	r0, [r3, #322]	; 0x142
 80005be:	f8b3 e0c6 	ldrh.w	lr, [r3, #198]	; 0xc6
 80005c2:	f8b3 70ca 	ldrh.w	r7, [r3, #202]	; 0xca
 80005c6:	f8b3 90cc 	ldrh.w	r9, [r3, #204]	; 0xcc
 80005ca:	f9b3 514a 	ldrsh.w	r5, [r3, #330]	; 0x14a
 80005ce:	f8b3 80d0 	ldrh.w	r8, [r3, #208]	; 0xd0
 80005d2:	f8b3 c0d2 	ldrh.w	ip, [r3, #210]	; 0xd2
 80005d6:	4341      	muls	r1, r0
 80005d8:	fb91 f1f2 	sdiv	r1, r1, r2
 80005dc:	f8a3 11c0 	strh.w	r1, [r3, #448]	; 0x1c0
 80005e0:	8e59      	ldrh	r1, [r3, #50]	; 0x32
 80005e2:	f9b3 0144 	ldrsh.w	r0, [r3, #324]	; 0x144
 80005e6:	ebce 0101 	rsb	r1, lr, r1
 80005ea:	4341      	muls	r1, r0
 80005ec:	f8b3 00c8 	ldrh.w	r0, [r3, #200]	; 0xc8
 80005f0:	fb91 fef2 	sdiv	lr, r1, r2
 80005f4:	8e99      	ldrh	r1, [r3, #52]	; 0x34
 80005f6:	f8a3 e1c2 	strh.w	lr, [r3, #450]	; 0x1c2
 80005fa:	1a09      	subs	r1, r1, r0
 80005fc:	f9b3 0146 	ldrsh.w	r0, [r3, #326]	; 0x146
 8000600:	4341      	muls	r1, r0
 8000602:	8ed8      	ldrh	r0, [r3, #54]	; 0x36
 8000604:	fb91 f1f2 	sdiv	r1, r1, r2
 8000608:	1bc7      	subs	r7, r0, r7
 800060a:	f9b3 0148 	ldrsh.w	r0, [r3, #328]	; 0x148
 800060e:	f8a3 11c4 	strh.w	r1, [r3, #452]	; 0x1c4
 8000612:	4347      	muls	r7, r0
 8000614:	8f18      	ldrh	r0, [r3, #56]	; 0x38
 8000616:	fb97 f7f2 	sdiv	r7, r7, r2
 800061a:	ebc9 0000 	rsb	r0, r9, r0
 800061e:	4368      	muls	r0, r5
 8000620:	f8b3 50ce 	ldrh.w	r5, [r3, #206]	; 0xce
 8000624:	fb90 f9f2 	sdiv	r9, r0, r2
 8000628:	8f58      	ldrh	r0, [r3, #58]	; 0x3a
 800062a:	f8a3 71c6 	strh.w	r7, [r3, #454]	; 0x1c6
 800062e:	1b40      	subs	r0, r0, r5
 8000630:	f9b3 514c 	ldrsh.w	r5, [r3, #332]	; 0x14c
 8000634:	f8a3 91c8 	strh.w	r9, [r3, #456]	; 0x1c8
 8000638:	4368      	muls	r0, r5
 800063a:	8f9d      	ldrh	r5, [r3, #60]	; 0x3c
 800063c:	fb90 f0f2 	sdiv	r0, r0, r2
 8000640:	ebc8 0805 	rsb	r8, r8, r5
 8000644:	f9b3 514e 	ldrsh.w	r5, [r3, #334]	; 0x14e
 8000648:	f8a3 01ca 	strh.w	r0, [r3, #458]	; 0x1ca
 800064c:	fb05 f808 	mul.w	r8, r5, r8
 8000650:	8fdd      	ldrh	r5, [r3, #62]	; 0x3e
 8000652:	fb98 f8f2 	sdiv	r8, r8, r2
 8000656:	ebcc 0505 	rsb	r5, ip, r5
 800065a:	f9b3 c150 	ldrsh.w	ip, [r3, #336]	; 0x150
 800065e:	f8a3 81cc 	strh.w	r8, [r3, #460]	; 0x1cc
 8000662:	fb0c f505 	mul.w	r5, ip, r5
 8000666:	f8b3 c0d4 	ldrh.w	ip, [r3, #212]	; 0xd4
 800066a:	fb95 f5f2 	sdiv	r5, r5, r2
 800066e:	f8a3 51ce 	strh.w	r5, [r3, #462]	; 0x1ce
 8000672:	f8b3 5040 	ldrh.w	r5, [r3, #64]	; 0x40
 8000676:	ebcc 0505 	rsb	r5, ip, r5
 800067a:	f9b3 c152 	ldrsh.w	ip, [r3, #338]	; 0x152
 800067e:	fb0c f505 	mul.w	r5, ip, r5
 8000682:	fb95 f5f2 	sdiv	r5, r5, r2
 8000686:	f8a3 51d0 	strh.w	r5, [r3, #464]	; 0x1d0
 800068a:	f8b3 c0d6 	ldrh.w	ip, [r3, #214]	; 0xd6
 800068e:	f8b3 5042 	ldrh.w	r5, [r3, #66]	; 0x42
 8000692:	ebcc 0505 	rsb	r5, ip, r5
 8000696:	f9b3 c154 	ldrsh.w	ip, [r3, #340]	; 0x154
 800069a:	fb0c f505 	mul.w	r5, ip, r5
 800069e:	f8b3 c0d8 	ldrh.w	ip, [r3, #216]	; 0xd8
 80006a2:	fb95 f5f2 	sdiv	r5, r5, r2
 80006a6:	f8a3 51d2 	strh.w	r5, [r3, #466]	; 0x1d2
 80006aa:	f8b3 5044 	ldrh.w	r5, [r3, #68]	; 0x44
 80006ae:	ebcc 0505 	rsb	r5, ip, r5
 80006b2:	f9b3 c156 	ldrsh.w	ip, [r3, #342]	; 0x156
 80006b6:	fb0c f505 	mul.w	r5, ip, r5
 80006ba:	f8b3 c0da 	ldrh.w	ip, [r3, #218]	; 0xda
 80006be:	fb95 f5f2 	sdiv	r5, r5, r2
 80006c2:	f8a3 51d4 	strh.w	r5, [r3, #468]	; 0x1d4
 80006c6:	f8b3 5046 	ldrh.w	r5, [r3, #70]	; 0x46
 80006ca:	ebcc 0505 	rsb	r5, ip, r5
 80006ce:	f9b3 c158 	ldrsh.w	ip, [r3, #344]	; 0x158
 80006d2:	fb0c f505 	mul.w	r5, ip, r5
 80006d6:	f8b3 c0dc 	ldrh.w	ip, [r3, #220]	; 0xdc
 80006da:	fb95 f5f2 	sdiv	r5, r5, r2
 80006de:	f8a3 51d6 	strh.w	r5, [r3, #470]	; 0x1d6
 80006e2:	f8b3 5048 	ldrh.w	r5, [r3, #72]	; 0x48
 80006e6:	ebcc 0505 	rsb	r5, ip, r5
 80006ea:	f9b3 c15a 	ldrsh.w	ip, [r3, #346]	; 0x15a
 80006ee:	fb0c f505 	mul.w	r5, ip, r5
 80006f2:	f8b3 c0de 	ldrh.w	ip, [r3, #222]	; 0xde
 80006f6:	fb95 f5f2 	sdiv	r5, r5, r2
 80006fa:	f8a3 51d8 	strh.w	r5, [r3, #472]	; 0x1d8
 80006fe:	f8b3 504a 	ldrh.w	r5, [r3, #74]	; 0x4a
 8000702:	ebcc 0505 	rsb	r5, ip, r5
 8000706:	f9b3 c15c 	ldrsh.w	ip, [r3, #348]	; 0x15c
 800070a:	fb0c f505 	mul.w	r5, ip, r5
 800070e:	f8b3 c0e0 	ldrh.w	ip, [r3, #224]	; 0xe0
 8000712:	fb95 f5f2 	sdiv	r5, r5, r2
 8000716:	f8a3 51da 	strh.w	r5, [r3, #474]	; 0x1da
 800071a:	f8b3 504c 	ldrh.w	r5, [r3, #76]	; 0x4c
 800071e:	ebcc 0505 	rsb	r5, ip, r5
 8000722:	f9b3 c15e 	ldrsh.w	ip, [r3, #350]	; 0x15e
 8000726:	fb0c f505 	mul.w	r5, ip, r5
 800072a:	f8b3 c0e2 	ldrh.w	ip, [r3, #226]	; 0xe2
 800072e:	fb95 f5f2 	sdiv	r5, r5, r2
 8000732:	f8a3 51dc 	strh.w	r5, [r3, #476]	; 0x1dc
 8000736:	f8b3 504e 	ldrh.w	r5, [r3, #78]	; 0x4e
 800073a:	ebcc 0505 	rsb	r5, ip, r5
 800073e:	f9b3 c160 	ldrsh.w	ip, [r3, #352]	; 0x160
 8000742:	fb0c f505 	mul.w	r5, ip, r5
 8000746:	f8b3 c0e4 	ldrh.w	ip, [r3, #228]	; 0xe4
 800074a:	fb95 f5f2 	sdiv	r5, r5, r2
 800074e:	e001      	b.n	8000754 <PMB_UpdateEU+0x3bc>
 8000750:	1ffe888c 	.word	0x1ffe888c
 8000754:	f8a3 51de 	strh.w	r5, [r3, #478]	; 0x1de
 8000758:	f8b3 5050 	ldrh.w	r5, [r3, #80]	; 0x50
 800075c:	ebcc 0505 	rsb	r5, ip, r5
 8000760:	f9b3 c162 	ldrsh.w	ip, [r3, #354]	; 0x162
 8000764:	fb0c f505 	mul.w	r5, ip, r5
 8000768:	fb95 f5f2 	sdiv	r5, r5, r2
 800076c:	f8a3 51e0 	strh.w	r5, [r3, #480]	; 0x1e0
 8000770:	f8b3 5052 	ldrh.w	r5, [r3, #82]	; 0x52
 8000774:	f8b3 c0e6 	ldrh.w	ip, [r3, #230]	; 0xe6
 8000778:	f8b3 a0ec 	ldrh.w	sl, [r3, #236]	; 0xec
 800077c:	f8b3 b0ee 	ldrh.w	fp, [r3, #238]	; 0xee
 8000780:	ebcc 0505 	rsb	r5, ip, r5
 8000784:	f9b3 c164 	ldrsh.w	ip, [r3, #356]	; 0x164
 8000788:	fb0c f505 	mul.w	r5, ip, r5
 800078c:	f8b3 c0e8 	ldrh.w	ip, [r3, #232]	; 0xe8
 8000790:	fb95 f5f2 	sdiv	r5, r5, r2
 8000794:	f8a3 51e2 	strh.w	r5, [r3, #482]	; 0x1e2
 8000798:	f8b3 5054 	ldrh.w	r5, [r3, #84]	; 0x54
 800079c:	ebcc 0505 	rsb	r5, ip, r5
 80007a0:	f9b3 c166 	ldrsh.w	ip, [r3, #358]	; 0x166
 80007a4:	fb0c f505 	mul.w	r5, ip, r5
 80007a8:	f8b3 c0ea 	ldrh.w	ip, [r3, #234]	; 0xea
 80007ac:	fb95 f5f2 	sdiv	r5, r5, r2
 80007b0:	f8a3 51e4 	strh.w	r5, [r3, #484]	; 0x1e4
 80007b4:	f8b3 5056 	ldrh.w	r5, [r3, #86]	; 0x56
 80007b8:	ebcc 0c05 	rsb	ip, ip, r5
 80007bc:	f9b3 5168 	ldrsh.w	r5, [r3, #360]	; 0x168
 80007c0:	fb05 fc0c 	mul.w	ip, r5, ip
 80007c4:	f8b3 5058 	ldrh.w	r5, [r3, #88]	; 0x58
 80007c8:	fb9c fcf2 	sdiv	ip, ip, r2
 80007cc:	ebca 0505 	rsb	r5, sl, r5
 80007d0:	f9b3 a16a 	ldrsh.w	sl, [r3, #362]	; 0x16a
 80007d4:	f8a3 c1e6 	strh.w	ip, [r3, #486]	; 0x1e6
 80007d8:	fb0a f505 	mul.w	r5, sl, r5
 80007dc:	f8b3 a05a 	ldrh.w	sl, [r3, #90]	; 0x5a
 80007e0:	fb95 f5f2 	sdiv	r5, r5, r2
 80007e4:	ebcb 0a0a 	rsb	sl, fp, sl
 80007e8:	f9b3 b16c 	ldrsh.w	fp, [r3, #364]	; 0x16c
 80007ec:	f8a3 51e8 	strh.w	r5, [r3, #488]	; 0x1e8
 80007f0:	fb0b fa0a 	mul.w	sl, fp, sl
 80007f4:	f8b3 b0f0 	ldrh.w	fp, [r3, #240]	; 0xf0
 80007f8:	fb9a faf2 	sdiv	sl, sl, r2
 80007fc:	f8a3 a1ea 	strh.w	sl, [r3, #490]	; 0x1ea
 8000800:	f8b3 a05c 	ldrh.w	sl, [r3, #92]	; 0x5c
 8000804:	ebcb 0a0a 	rsb	sl, fp, sl
 8000808:	f9b3 b16e 	ldrsh.w	fp, [r3, #366]	; 0x16e
 800080c:	fb0b fa0a 	mul.w	sl, fp, sl
 8000810:	f8b3 b0f2 	ldrh.w	fp, [r3, #242]	; 0xf2
 8000814:	fb9a faf2 	sdiv	sl, sl, r2
 8000818:	f8a3 a1ec 	strh.w	sl, [r3, #492]	; 0x1ec
 800081c:	f8b3 a05e 	ldrh.w	sl, [r3, #94]	; 0x5e
 8000820:	ebcb 0a0a 	rsb	sl, fp, sl
 8000824:	f9b3 b170 	ldrsh.w	fp, [r3, #368]	; 0x170
 8000828:	fb0b fa0a 	mul.w	sl, fp, sl
 800082c:	f8b3 b0f4 	ldrh.w	fp, [r3, #244]	; 0xf4
 8000830:	fb9a faf2 	sdiv	sl, sl, r2
 8000834:	f8a3 a1ee 	strh.w	sl, [r3, #494]	; 0x1ee
 8000838:	f8b3 a060 	ldrh.w	sl, [r3, #96]	; 0x60
 800083c:	ebcb 0a0a 	rsb	sl, fp, sl
 8000840:	f9b3 b172 	ldrsh.w	fp, [r3, #370]	; 0x172
 8000844:	fb0b fa0a 	mul.w	sl, fp, sl
 8000848:	f8b3 b0f6 	ldrh.w	fp, [r3, #246]	; 0xf6
 800084c:	fb9a faf2 	sdiv	sl, sl, r2
 8000850:	f8a3 a1f0 	strh.w	sl, [r3, #496]	; 0x1f0
 8000854:	f8b3 a062 	ldrh.w	sl, [r3, #98]	; 0x62
 8000858:	ebcb 0a0a 	rsb	sl, fp, sl
 800085c:	f9b3 b174 	ldrsh.w	fp, [r3, #372]	; 0x174
 8000860:	fb0b fa0a 	mul.w	sl, fp, sl
 8000864:	f8b3 b0f8 	ldrh.w	fp, [r3, #248]	; 0xf8
 8000868:	fb9a faf2 	sdiv	sl, sl, r2
 800086c:	f8a3 a1f2 	strh.w	sl, [r3, #498]	; 0x1f2
 8000870:	f8b3 a064 	ldrh.w	sl, [r3, #100]	; 0x64
 8000874:	ebcb 0a0a 	rsb	sl, fp, sl
 8000878:	f9b3 b176 	ldrsh.w	fp, [r3, #374]	; 0x176
 800087c:	fb0b fa0a 	mul.w	sl, fp, sl
 8000880:	f8b3 b0fa 	ldrh.w	fp, [r3, #250]	; 0xfa
 8000884:	fb9a faf2 	sdiv	sl, sl, r2
 8000888:	f8a3 a1f4 	strh.w	sl, [r3, #500]	; 0x1f4
 800088c:	f8b3 a066 	ldrh.w	sl, [r3, #102]	; 0x66
 8000890:	ebcb 0a0a 	rsb	sl, fp, sl
 8000894:	f9b3 b178 	ldrsh.w	fp, [r3, #376]	; 0x178
 8000898:	fb0b fa0a 	mul.w	sl, fp, sl
 800089c:	f8b3 b0fc 	ldrh.w	fp, [r3, #252]	; 0xfc
 80008a0:	fb9a faf2 	sdiv	sl, sl, r2
 80008a4:	f8a3 a1f6 	strh.w	sl, [r3, #502]	; 0x1f6
 80008a8:	f8b3 a068 	ldrh.w	sl, [r3, #104]	; 0x68
 80008ac:	ebcb 0a0a 	rsb	sl, fp, sl
 80008b0:	f9b3 b17a 	ldrsh.w	fp, [r3, #378]	; 0x17a
 80008b4:	fb0b fa0a 	mul.w	sl, fp, sl
 80008b8:	f8b3 b0fe 	ldrh.w	fp, [r3, #254]	; 0xfe
 80008bc:	fb9a faf2 	sdiv	sl, sl, r2
 80008c0:	f8a3 a1f8 	strh.w	sl, [r3, #504]	; 0x1f8
 80008c4:	f8b3 a06a 	ldrh.w	sl, [r3, #106]	; 0x6a
 80008c8:	ebcb 0a0a 	rsb	sl, fp, sl
 80008cc:	f9b3 b17c 	ldrsh.w	fp, [r3, #380]	; 0x17c
 80008d0:	fb0b fa0a 	mul.w	sl, fp, sl
 80008d4:	f8b3 b100 	ldrh.w	fp, [r3, #256]	; 0x100
 80008d8:	fb9a faf2 	sdiv	sl, sl, r2
 80008dc:	f8a3 a1fa 	strh.w	sl, [r3, #506]	; 0x1fa
 80008e0:	f8b3 a06c 	ldrh.w	sl, [r3, #108]	; 0x6c
 80008e4:	ebcb 0a0a 	rsb	sl, fp, sl
 80008e8:	f9b3 b17e 	ldrsh.w	fp, [r3, #382]	; 0x17e
 80008ec:	fb0b fa0a 	mul.w	sl, fp, sl
 80008f0:	f8b3 b102 	ldrh.w	fp, [r3, #258]	; 0x102
 80008f4:	fb9a faf2 	sdiv	sl, sl, r2
 80008f8:	f8a3 a1fc 	strh.w	sl, [r3, #508]	; 0x1fc
 80008fc:	f8b3 a06e 	ldrh.w	sl, [r3, #110]	; 0x6e
 8000900:	ebcb 0a0a 	rsb	sl, fp, sl
 8000904:	f9b3 b180 	ldrsh.w	fp, [r3, #384]	; 0x180
 8000908:	fb0b fa0a 	mul.w	sl, fp, sl
 800090c:	f8b3 b104 	ldrh.w	fp, [r3, #260]	; 0x104
 8000910:	fb9a faf2 	sdiv	sl, sl, r2
 8000914:	f8a3 a1fe 	strh.w	sl, [r3, #510]	; 0x1fe
 8000918:	f8b3 a070 	ldrh.w	sl, [r3, #112]	; 0x70
 800091c:	ebcb 0a0a 	rsb	sl, fp, sl
 8000920:	f9b3 b182 	ldrsh.w	fp, [r3, #386]	; 0x182
 8000924:	fb0b fa0a 	mul.w	sl, fp, sl
 8000928:	f8b3 b106 	ldrh.w	fp, [r3, #262]	; 0x106
 800092c:	fb9a faf2 	sdiv	sl, sl, r2
 8000930:	f8a3 a200 	strh.w	sl, [r3, #512]	; 0x200
 8000934:	f8b3 a072 	ldrh.w	sl, [r3, #114]	; 0x72
 8000938:	ebcb 0a0a 	rsb	sl, fp, sl
 800093c:	f9b3 b184 	ldrsh.w	fp, [r3, #388]	; 0x184
 8000940:	fb0b fa0a 	mul.w	sl, fp, sl
 8000944:	fb9a faf2 	sdiv	sl, sl, r2
 8000948:	f8a3 a202 	strh.w	sl, [r3, #514]	; 0x202
 800094c:	f8b3 b108 	ldrh.w	fp, [r3, #264]	; 0x108
 8000950:	f8b3 a074 	ldrh.w	sl, [r3, #116]	; 0x74
 8000954:	ebcb 0a0a 	rsb	sl, fp, sl
 8000958:	f9b3 b186 	ldrsh.w	fp, [r3, #390]	; 0x186
 800095c:	fb0b fa0a 	mul.w	sl, fp, sl
 8000960:	f8b3 b10a 	ldrh.w	fp, [r3, #266]	; 0x10a
 8000964:	fb9a faf2 	sdiv	sl, sl, r2
 8000968:	f8a3 a204 	strh.w	sl, [r3, #516]	; 0x204
 800096c:	f8b3 a076 	ldrh.w	sl, [r3, #118]	; 0x76
 8000970:	ebcb 0a0a 	rsb	sl, fp, sl
 8000974:	f9b3 b188 	ldrsh.w	fp, [r3, #392]	; 0x188
 8000978:	fb0b fa0a 	mul.w	sl, fp, sl
 800097c:	f8b3 b10c 	ldrh.w	fp, [r3, #268]	; 0x10c
 8000980:	fb9a faf2 	sdiv	sl, sl, r2
 8000984:	f8a3 a206 	strh.w	sl, [r3, #518]	; 0x206
 8000988:	f8b3 a078 	ldrh.w	sl, [r3, #120]	; 0x78
 800098c:	ebcb 0a0a 	rsb	sl, fp, sl
 8000990:	f9b3 b18a 	ldrsh.w	fp, [r3, #394]	; 0x18a
 8000994:	fb0b fa0a 	mul.w	sl, fp, sl
 8000998:	f8b3 b10e 	ldrh.w	fp, [r3, #270]	; 0x10e
 800099c:	fb9a faf2 	sdiv	sl, sl, r2
 80009a0:	f8a3 a208 	strh.w	sl, [r3, #520]	; 0x208
 80009a4:	f8b3 a07a 	ldrh.w	sl, [r3, #122]	; 0x7a
 80009a8:	ebcb 0a0a 	rsb	sl, fp, sl
 80009ac:	f9b3 b18c 	ldrsh.w	fp, [r3, #396]	; 0x18c
 80009b0:	fb0b fa0a 	mul.w	sl, fp, sl
 80009b4:	f8b3 b110 	ldrh.w	fp, [r3, #272]	; 0x110
 80009b8:	fb9a faf2 	sdiv	sl, sl, r2
 80009bc:	f8a3 a20a 	strh.w	sl, [r3, #522]	; 0x20a
 80009c0:	f8b3 a07c 	ldrh.w	sl, [r3, #124]	; 0x7c
 80009c4:	4448      	add	r0, r9
 80009c6:	ebcb 0b0a 	rsb	fp, fp, sl
 80009ca:	4471      	add	r1, lr
 80009cc:	f9b3 a18e 	ldrsh.w	sl, [r3, #398]	; 0x18e
 80009d0:	4440      	add	r0, r8
 80009d2:	4465      	add	r5, ip
 80009d4:	4439      	add	r1, r7
 80009d6:	4434      	add	r4, r6
 80009d8:	fb0a fa0b 	mul.w	sl, sl, fp
 80009dc:	f8a3 020e 	strh.w	r0, [r3, #526]	; 0x20e
 80009e0:	fb9a f2f2 	sdiv	r2, sl, r2
 80009e4:	f8a3 5210 	strh.w	r5, [r3, #528]	; 0x210
 80009e8:	f8a3 220c 	strh.w	r2, [r3, #524]	; 0x20c
 80009ec:	f8a3 1212 	strh.w	r1, [r3, #530]	; 0x212
 80009f0:	f8a3 4214 	strh.w	r4, [r3, #532]	; 0x214
 80009f4:	e8bd 8ff0 	ldmia.w	sp!, {r4, r5, r6, r7, r8, r9, sl, fp, pc}

080009f8 <PMB_Emulator_Init>:
 80009f8:	b570      	push	{r4, r5, r6, lr}
 80009fa:	4c24      	ldr	r4, [pc, #144]	; (8000a8c <PMB_Emulator_Init+0x94>)
 80009fc:	4e24      	ldr	r6, [pc, #144]	; (8000a90 <PMB_Emulator_Init+0x98>)
 80009fe:	4620      	mov	r0, r4
 8000a00:	2100      	movs	r1, #0
 8000a02:	f44f 7237 	mov.w	r2, #732	; 0x2dc
 8000a06:	f004 fb19 	bl	800503c <memset>
 8000a0a:	2302      	movs	r3, #2
 8000a0c:	f884 3083 	strb.w	r3, [r4, #131]	; 0x83
 8000a10:	2501      	movs	r5, #1
 8000a12:	6873      	ldr	r3, [r6, #4]
 8000a14:	f884 5087 	strb.w	r5, [r4, #135]	; 0x87
 8000a18:	6818      	ldr	r0, [r3, #0]
 8000a1a:	f8a4 52ce 	strh.w	r5, [r4, #718]	; 0x2ce
 8000a1e:	f8a4 52d0 	strh.w	r5, [r4, #720]	; 0x2d0
 8000a22:	2300      	movs	r3, #0
 8000a24:	7603      	strb	r3, [r0, #24]
 8000a26:	79c3      	ldrb	r3, [r0, #7]
 8000a28:	f043 0320 	orr.w	r3, r3, #32
 8000a2c:	71c3      	strb	r3, [r0, #7]
 8000a2e:	6843      	ldr	r3, [r0, #4]
 8000a30:	f44f 4240 	mov.w	r2, #49152	; 0xc000
 8000a34:	f362 031c 	bfi	r3, r2, #0, #29
 8000a38:	6043      	str	r3, [r0, #4]
 8000a3a:	6883      	ldr	r3, [r0, #8]
 8000a3c:	f44f 427f 	mov.w	r2, #65280	; 0xff00
 8000a40:	f362 031c 	bfi	r3, r2, #0, #29
 8000a44:	6083      	str	r3, [r0, #8]
 8000a46:	0e1b      	lsrs	r3, r3, #24
 8000a48:	f043 0320 	orr.w	r3, r3, #32
 8000a4c:	2408      	movs	r4, #8
 8000a4e:	72c3      	strb	r3, [r0, #11]
 8000a50:	7304      	strb	r4, [r0, #12]
 8000a52:	f004 f9bd 	bl	8004dd0 <XMC_CAN_MO_Config>
 8000a56:	68b3      	ldr	r3, [r6, #8]
 8000a58:	4a0e      	ldr	r2, [pc, #56]	; (8000a94 <PMB_Emulator_Init+0x9c>)
 8000a5a:	6818      	ldr	r0, [r3, #0]
 8000a5c:	79c3      	ldrb	r3, [r0, #7]
 8000a5e:	7304      	strb	r4, [r0, #12]
 8000a60:	f043 0320 	orr.w	r3, r3, #32
 8000a64:	71c3      	strb	r3, [r0, #7]
 8000a66:	6843      	ldr	r3, [r0, #4]
 8000a68:	7605      	strb	r5, [r0, #24]
 8000a6a:	f362 031c 	bfi	r3, r2, #0, #29
 8000a6e:	6043      	str	r3, [r0, #4]
 8000a70:	6883      	ldr	r3, [r0, #8]
 8000a72:	f06f 4260 	mvn.w	r2, #3758096384	; 0xe0000000
 8000a76:	f362 031c 	bfi	r3, r2, #0, #29
 8000a7a:	6083      	str	r3, [r0, #8]
 8000a7c:	0e1b      	lsrs	r3, r3, #24
 8000a7e:	f043 0320 	orr.w	r3, r3, #32
 8000a82:	72c3      	strb	r3, [r0, #11]
 8000a84:	e8bd 4070 	ldmia.w	sp!, {r4, r5, r6, lr}
 8000a88:	f004 b9a2 	b.w	8004dd0 <XMC_CAN_MO_Config>
 8000a8c:	1ffe888c 	.word	0x1ffe888c
 8000a90:	1ffe8870 	.word	0x1ffe8870
 8000a94:	1000a0c0 	.word	0x1000a0c0

08000a98 <PMB_Emulator_Run>:
 8000a98:	4beb      	ldr	r3, [pc, #940]	; (8000e48 <PMB_Emulator_Run+0x3b0>)
 8000a9a:	685b      	ldr	r3, [r3, #4]
 8000a9c:	e92d 4ff0 	stmdb	sp!, {r4, r5, r6, r7, r8, r9, sl, fp, lr}
 8000aa0:	f8d3 8000 	ldr.w	r8, [r3]
 8000aa4:	f8d8 a000 	ldr.w	sl, [r8]
 8000aa8:	f8da 301c 	ldr.w	r3, [sl, #28]
 8000aac:	f013 0f0c 	tst.w	r3, #12
 8000ab0:	b087      	sub	sp, #28
 8000ab2:	f002 8455 	beq.w	8003360 <PMB_Emulator_Run+0x28c8>
 8000ab6:	f8d8 3010 	ldr.w	r3, [r8, #16]
 8000aba:	9300      	str	r3, [sp, #0]
 8000abc:	f8d8 4014 	ldr.w	r4, [r8, #20]
 8000ac0:	9900      	ldr	r1, [sp, #0]
 8000ac2:	9a00      	ldr	r2, [sp, #0]
 8000ac4:	f89d 5000 	ldrb.w	r5, [sp]
 8000ac8:	f88d 5008 	strb.w	r5, [sp, #8]
 8000acc:	ea4f 4b14 	mov.w	fp, r4, lsr #16
 8000ad0:	0e08      	lsrs	r0, r1, #24
 8000ad2:	b2e6      	uxtb	r6, r4
 8000ad4:	0a21      	lsrs	r1, r4, #8
 8000ad6:	0e24      	lsrs	r4, r4, #24
 8000ad8:	f88d 400f 	strb.w	r4, [sp, #15]
 8000adc:	2401      	movs	r4, #1
 8000ade:	f8ca 401c 	str.w	r4, [sl, #28]
 8000ae2:	f8d8 4004 	ldr.w	r4, [r8, #4]
 8000ae6:	f88d b00e 	strb.w	fp, [sp, #14]
 8000aea:	f3c4 081c 	ubfx	r8, r4, #0, #29
 8000aee:	0a1b      	lsrs	r3, r3, #8
 8000af0:	ea4f 4c12 	mov.w	ip, r2, lsr #16
 8000af4:	ea4f 4a18 	mov.w	sl, r8, lsr #16
 8000af8:	ea4f 6798 	mov.w	r7, r8, lsr #26
 8000afc:	fa5f fe83 	uxtb.w	lr, r3
 8000b00:	fa5f f28c 	uxtb.w	r2, ip
 8000b04:	fa5f f980 	uxtb.w	r9, r0
 8000b08:	fa5f fb88 	uxtb.w	fp, r8
 8000b0c:	f88d e009 	strb.w	lr, [sp, #9]
 8000b10:	f88d 200a 	strb.w	r2, [sp, #10]
 8000b14:	f88d 900b 	strb.w	r9, [sp, #11]
 8000b18:	f88d 600c 	strb.w	r6, [sp, #12]
 8000b1c:	f88d 100d 	strb.w	r1, [sp, #13]
 8000b20:	f3ca 0409 	ubfx	r4, sl, #0, #10
 8000b24:	9701      	str	r7, [sp, #4]
 8000b26:	f04f 0800 	mov.w	r8, #0
 8000b2a:	af02      	add	r7, sp, #8
 8000b2c:	f817 7008 	ldrb.w	r7, [r7, r8]
 8000b30:	2f00      	cmp	r7, #0
 8000b32:	f041 8561 	bne.w	80025f8 <PMB_Emulator_Run+0x1b60>
 8000b36:	f108 0801 	add.w	r8, r8, #1
 8000b3a:	f1b8 0f06 	cmp.w	r8, #6
 8000b3e:	d1f4      	bne.n	8000b2a <PMB_Emulator_Run+0x92>
 8000b40:	e00b      	b.n	8000b5a <PMB_Emulator_Run+0xc2>
 8000b42:	f5b4 7ffc 	cmp.w	r4, #504	; 0x1f8
 8000b46:	f041 8580 	bne.w	800264a <PMB_Emulator_Run+0x1bb2>
 8000b4a:	49c0      	ldr	r1, [pc, #768]	; (8000e4c <PMB_Emulator_Run+0x3b4>)
 8000b4c:	f891 12d2 	ldrb.w	r1, [r1, #722]	; 0x2d2
 8000b50:	070f      	lsls	r7, r1, #28
 8000b52:	f102 83ec 	bmi.w	800332e <PMB_Emulator_Run+0x2896>
 8000b56:	f7ff fc1f 	bl	8000398 <PMB_UpdateEU>
 8000b5a:	4abc      	ldr	r2, [pc, #752]	; (8000e4c <PMB_Emulator_Run+0x3b4>)
 8000b5c:	2300      	movs	r3, #0
 8000b5e:	9305      	str	r3, [sp, #20]
 8000b60:	9304      	str	r3, [sp, #16]
 8000b62:	f8b2 32d8 	ldrh.w	r3, [r2, #728]	; 0x2d8
 8000b66:	2c61      	cmp	r4, #97	; 0x61
 8000b68:	ea4f 2613 	mov.w	r6, r3, lsr #8
 8000b6c:	b2df      	uxtb	r7, r3
 8000b6e:	f103 0301 	add.w	r3, r3, #1
 8000b72:	f8a2 32d8 	strh.w	r3, [r2, #728]	; 0x2d8
 8000b76:	f88d 6017 	strb.w	r6, [sp, #23]
 8000b7a:	f88d 7016 	strb.w	r7, [sp, #22]
 8000b7e:	4613      	mov	r3, r2
 8000b80:	f001 80dd 	beq.w	8001d3e <PMB_Emulator_Run+0x12a6>
 8000b84:	f200 8239 	bhi.w	8000ffa <PMB_Emulator_Run+0x562>
 8000b88:	2c33      	cmp	r4, #51	; 0x33
 8000b8a:	f000 868b 	beq.w	80018a4 <PMB_Emulator_Run+0xe0c>
 8000b8e:	f200 8119 	bhi.w	8000dc4 <PMB_Emulator_Run+0x32c>
 8000b92:	2c13      	cmp	r4, #19
 8000b94:	f000 858c 	beq.w	80016b0 <PMB_Emulator_Run+0xc18>
 8000b98:	f200 8083 	bhi.w	8000ca2 <PMB_Emulator_Run+0x20a>
 8000b9c:	2c09      	cmp	r4, #9
 8000b9e:	f000 84f0 	beq.w	8001582 <PMB_Emulator_Run+0xaea>
 8000ba2:	d840      	bhi.n	8000c26 <PMB_Emulator_Run+0x18e>
 8000ba4:	2c04      	cmp	r4, #4
 8000ba6:	f000 84a5 	beq.w	80014f4 <PMB_Emulator_Run+0xa5c>
 8000baa:	d821      	bhi.n	8000bf0 <PMB_Emulator_Run+0x158>
 8000bac:	2c01      	cmp	r4, #1
 8000bae:	f000 8473 	beq.w	8001498 <PMB_Emulator_Run+0xa00>
 8000bb2:	f0c0 845a 	bcc.w	800146a <PMB_Emulator_Run+0x9d2>
 8000bb6:	2c02      	cmp	r4, #2
 8000bb8:	f000 8485 	beq.w	80014c6 <PMB_Emulator_Run+0xa2e>
 8000bbc:	2c03      	cmp	r4, #3
 8000bbe:	f041 84d8 	bne.w	8002572 <PMB_Emulator_Run+0x1ada>
 8000bc2:	8a52      	ldrh	r2, [r2, #18]
 8000bc4:	f88d 2010 	strb.w	r2, [sp, #16]
 8000bc8:	f3c2 2203 	ubfx	r2, r2, #8, #4
 8000bcc:	f88d 2011 	strb.w	r2, [sp, #17]
 8000bd0:	8a9a      	ldrh	r2, [r3, #20]
 8000bd2:	8adb      	ldrh	r3, [r3, #22]
 8000bd4:	f88d 2012 	strb.w	r2, [sp, #18]
 8000bd8:	f88d 3014 	strb.w	r3, [sp, #20]
 8000bdc:	f3c2 2203 	ubfx	r2, r2, #8, #4
 8000be0:	f3c3 2303 	ubfx	r3, r3, #8, #4
 8000be4:	f88d 2013 	strb.w	r2, [sp, #19]
 8000be8:	f88d 3015 	strb.w	r3, [sp, #21]
 8000bec:	f001 bcc1 	b.w	8002572 <PMB_Emulator_Run+0x1ada>
 8000bf0:	2c06      	cmp	r4, #6
 8000bf2:	f000 84a6 	beq.w	8001542 <PMB_Emulator_Run+0xaaa>
 8000bf6:	f0c0 8494 	bcc.w	8001522 <PMB_Emulator_Run+0xa8a>
 8000bfa:	2c07      	cmp	r4, #7
 8000bfc:	f000 84b1 	beq.w	8001562 <PMB_Emulator_Run+0xaca>
 8000c00:	2c08      	cmp	r4, #8
 8000c02:	f041 84b6 	bne.w	8002572 <PMB_Emulator_Run+0x1ada>
 8000c06:	8d52      	ldrh	r2, [r2, #42]	; 0x2a
 8000c08:	8d9b      	ldrh	r3, [r3, #44]	; 0x2c
 8000c0a:	f88d 2010 	strb.w	r2, [sp, #16]
 8000c0e:	f88d 3012 	strb.w	r3, [sp, #18]
 8000c12:	f3c2 2203 	ubfx	r2, r2, #8, #4
 8000c16:	f3c3 2303 	ubfx	r3, r3, #8, #4
 8000c1a:	f88d 2011 	strb.w	r2, [sp, #17]
 8000c1e:	f88d 3013 	strb.w	r3, [sp, #19]
 8000c22:	f001 bca6 	b.w	8002572 <PMB_Emulator_Run+0x1ada>
 8000c26:	2c0e      	cmp	r4, #14
 8000c28:	f000 84fa 	beq.w	8001620 <PMB_Emulator_Run+0xb88>
 8000c2c:	d81c      	bhi.n	8000c68 <PMB_Emulator_Run+0x1d0>
 8000c2e:	2c0b      	cmp	r4, #11
 8000c30:	f000 84ce 	beq.w	80015d0 <PMB_Emulator_Run+0xb38>
 8000c34:	f0c0 84b5 	bcc.w	80015a2 <PMB_Emulator_Run+0xb0a>
 8000c38:	2c0c      	cmp	r4, #12
 8000c3a:	f000 84e0 	beq.w	80015fe <PMB_Emulator_Run+0xb66>
 8000c3e:	2c0d      	cmp	r4, #13
 8000c40:	f041 8497 	bne.w	8002572 <PMB_Emulator_Run+0x1ada>
 8000c44:	f8b2 2042 	ldrh.w	r2, [r2, #66]	; 0x42
 8000c48:	f8b3 3044 	ldrh.w	r3, [r3, #68]	; 0x44
 8000c4c:	f88d 2010 	strb.w	r2, [sp, #16]
 8000c50:	f88d 3012 	strb.w	r3, [sp, #18]
 8000c54:	f3c2 2203 	ubfx	r2, r2, #8, #4
 8000c58:	f3c3 2303 	ubfx	r3, r3, #8, #4
 8000c5c:	f88d 2011 	strb.w	r2, [sp, #17]
 8000c60:	f88d 3013 	strb.w	r3, [sp, #19]
 8000c64:	f001 bc85 	b.w	8002572 <PMB_Emulator_Run+0x1ada>
 8000c68:	2c10      	cmp	r4, #16
 8000c6a:	f000 84fd 	beq.w	8001668 <PMB_Emulator_Run+0xbd0>
 8000c6e:	f0c0 84e9 	bcc.w	8001644 <PMB_Emulator_Run+0xbac>
 8000c72:	2c11      	cmp	r4, #17
 8000c74:	f000 850a 	beq.w	800168c <PMB_Emulator_Run+0xbf4>
 8000c78:	2c12      	cmp	r4, #18
 8000c7a:	f041 847a 	bne.w	8002572 <PMB_Emulator_Run+0x1ada>
 8000c7e:	f8b2 2056 	ldrh.w	r2, [r2, #86]	; 0x56
 8000c82:	f8b3 3058 	ldrh.w	r3, [r3, #88]	; 0x58
 8000c86:	f88d 2010 	strb.w	r2, [sp, #16]
 8000c8a:	f88d 3012 	strb.w	r3, [sp, #18]
 8000c8e:	f3c2 2203 	ubfx	r2, r2, #8, #4
 8000c92:	f3c3 2303 	ubfx	r3, r3, #8, #4
 8000c96:	f88d 2011 	strb.w	r2, [sp, #17]
 8000c9a:	f88d 3013 	strb.w	r3, [sp, #19]
 8000c9e:	f001 bc68 	b.w	8002572 <PMB_Emulator_Run+0x1ada>
 8000ca2:	2c1d      	cmp	r4, #29
 8000ca4:	f000 85a2 	beq.w	80017ec <PMB_Emulator_Run+0xd54>
 8000ca8:	d839      	bhi.n	8000d1e <PMB_Emulator_Run+0x286>
 8000caa:	2c18      	cmp	r4, #24
 8000cac:	f000 8558 	beq.w	8001760 <PMB_Emulator_Run+0xcc8>
 8000cb0:	d81c      	bhi.n	8000cec <PMB_Emulator_Run+0x254>
 8000cb2:	2c15      	cmp	r4, #21
 8000cb4:	f000 8528 	beq.w	8001708 <PMB_Emulator_Run+0xc70>
 8000cb8:	f0c0 850c 	bcc.w	80016d4 <PMB_Emulator_Run+0xc3c>
 8000cbc:	2c16      	cmp	r4, #22
 8000cbe:	f000 853d 	beq.w	800173c <PMB_Emulator_Run+0xca4>
 8000cc2:	2c17      	cmp	r4, #23
 8000cc4:	f041 8455 	bne.w	8002572 <PMB_Emulator_Run+0x1ada>
 8000cc8:	f8b2 206e 	ldrh.w	r2, [r2, #110]	; 0x6e
 8000ccc:	f8b3 3070 	ldrh.w	r3, [r3, #112]	; 0x70
 8000cd0:	f88d 2010 	strb.w	r2, [sp, #16]
 8000cd4:	f88d 3012 	strb.w	r3, [sp, #18]
 8000cd8:	f3c2 2203 	ubfx	r2, r2, #8, #4
 8000cdc:	f3c3 2303 	ubfx	r3, r3, #8, #4
 8000ce0:	f88d 2011 	strb.w	r2, [sp, #17]
 8000ce4:	f88d 3013 	strb.w	r3, [sp, #19]
 8000ce8:	f001 bc43 	b.w	8002572 <PMB_Emulator_Run+0x1ada>
 8000cec:	2c1a      	cmp	r4, #26
 8000cee:	f000 855b 	beq.w	80017a8 <PMB_Emulator_Run+0xd10>
 8000cf2:	f0c0 8547 	bcc.w	8001784 <PMB_Emulator_Run+0xcec>
 8000cf6:	2c1b      	cmp	r4, #27
 8000cf8:	f000 856a 	beq.w	80017d0 <PMB_Emulator_Run+0xd38>
 8000cfc:	2c1c      	cmp	r4, #28
 8000cfe:	f041 8438 	bne.w	8002572 <PMB_Emulator_Run+0x1ada>
 8000d02:	f892 2081 	ldrb.w	r2, [r2, #129]	; 0x81
 8000d06:	f88d 2010 	strb.w	r2, [sp, #16]
 8000d0a:	f893 2082 	ldrb.w	r2, [r3, #130]	; 0x82
 8000d0e:	f893 3083 	ldrb.w	r3, [r3, #131]	; 0x83
 8000d12:	f88d 2011 	strb.w	r2, [sp, #17]
 8000d16:	f88d 3012 	strb.w	r3, [sp, #18]
 8000d1a:	f001 bc2a 	b.w	8002572 <PMB_Emulator_Run+0x1ada>
 8000d1e:	2c22      	cmp	r4, #34	; 0x22
 8000d20:	f000 858c 	beq.w	800183c <PMB_Emulator_Run+0xda4>
 8000d24:	d81c      	bhi.n	8000d60 <PMB_Emulator_Run+0x2c8>
 8000d26:	2c1f      	cmp	r4, #31
 8000d28:	f000 8574 	beq.w	8001814 <PMB_Emulator_Run+0xd7c>
 8000d2c:	f0c0 8568 	bcc.w	8001800 <PMB_Emulator_Run+0xd68>
 8000d30:	2c20      	cmp	r4, #32
 8000d32:	f000 8575 	beq.w	8001820 <PMB_Emulator_Run+0xd88>
 8000d36:	2c21      	cmp	r4, #33	; 0x21
 8000d38:	f041 841b 	bne.w	8002572 <PMB_Emulator_Run+0x1ada>
 8000d3c:	f892 208c 	ldrb.w	r2, [r2, #140]	; 0x8c
 8000d40:	f88d 2010 	strb.w	r2, [sp, #16]
 8000d44:	f893 208d 	ldrb.w	r2, [r3, #141]	; 0x8d
 8000d48:	f88d 2011 	strb.w	r2, [sp, #17]
 8000d4c:	f893 208e 	ldrb.w	r2, [r3, #142]	; 0x8e
 8000d50:	f893 308f 	ldrb.w	r3, [r3, #143]	; 0x8f
 8000d54:	f88d 2012 	strb.w	r2, [sp, #18]
 8000d58:	f88d 3013 	strb.w	r3, [sp, #19]
 8000d5c:	f001 bc09 	b.w	8002572 <PMB_Emulator_Run+0x1ada>
 8000d60:	2c30      	cmp	r4, #48	; 0x30
 8000d62:	f000 8571 	beq.w	8001848 <PMB_Emulator_Run+0xdb0>
 8000d66:	d810      	bhi.n	8000d8a <PMB_Emulator_Run+0x2f2>
 8000d68:	2c23      	cmp	r4, #35	; 0x23
 8000d6a:	f041 8402 	bne.w	8002572 <PMB_Emulator_Run+0x1ada>
 8000d6e:	f892 2091 	ldrb.w	r2, [r2, #145]	; 0x91
 8000d72:	f88d 2010 	strb.w	r2, [sp, #16]
 8000d76:	f893 2092 	ldrb.w	r2, [r3, #146]	; 0x92
 8000d7a:	f893 3093 	ldrb.w	r3, [r3, #147]	; 0x93
 8000d7e:	f88d 2011 	strb.w	r2, [sp, #17]
 8000d82:	f88d 3012 	strb.w	r3, [sp, #18]
 8000d86:	f001 bbf4 	b.w	8002572 <PMB_Emulator_Run+0x1ada>
 8000d8a:	2c31      	cmp	r4, #49	; 0x31
 8000d8c:	f000 8573 	beq.w	8001876 <PMB_Emulator_Run+0xdde>
 8000d90:	2c32      	cmp	r4, #50	; 0x32
 8000d92:	f041 83ee 	bne.w	8002572 <PMB_Emulator_Run+0x1ada>
 8000d96:	f8b2 20a0 	ldrh.w	r2, [r2, #160]	; 0xa0
 8000d9a:	f88d 2010 	strb.w	r2, [sp, #16]
 8000d9e:	0a12      	lsrs	r2, r2, #8
 8000da0:	f88d 2011 	strb.w	r2, [sp, #17]
 8000da4:	f8b3 20a2 	ldrh.w	r2, [r3, #162]	; 0xa2
 8000da8:	f8b3 30a4 	ldrh.w	r3, [r3, #164]	; 0xa4
 8000dac:	f88d 2012 	strb.w	r2, [sp, #18]
 8000db0:	f88d 3014 	strb.w	r3, [sp, #20]
 8000db4:	0a12      	lsrs	r2, r2, #8
 8000db6:	0a1b      	lsrs	r3, r3, #8
 8000db8:	f88d 2013 	strb.w	r2, [sp, #19]
 8000dbc:	f88d 3015 	strb.w	r3, [sp, #21]
 8000dc0:	f001 bbd7 	b.w	8002572 <PMB_Emulator_Run+0x1ada>
 8000dc4:	2c47      	cmp	r4, #71	; 0x47
 8000dc6:	f000 8697 	beq.w	8001af8 <PMB_Emulator_Run+0x1060>
 8000dca:	d87b      	bhi.n	8000ec4 <PMB_Emulator_Run+0x42c>
 8000dcc:	2c3d      	cmp	r4, #61	; 0x3d
 8000dce:	f000 8605 	beq.w	80019dc <PMB_Emulator_Run+0xf44>
 8000dd2:	d83d      	bhi.n	8000e50 <PMB_Emulator_Run+0x3b8>
 8000dd4:	2c38      	cmp	r4, #56	; 0x38
 8000dd6:	f000 85b3 	beq.w	8001940 <PMB_Emulator_Run+0xea8>
 8000dda:	d81a      	bhi.n	8000e12 <PMB_Emulator_Run+0x37a>
 8000ddc:	2c35      	cmp	r4, #53	; 0x35
 8000dde:	f000 858f 	beq.w	8001900 <PMB_Emulator_Run+0xe68>
 8000de2:	f0c0 8576 	bcc.w	80018d2 <PMB_Emulator_Run+0xe3a>
 8000de6:	2c36      	cmp	r4, #54	; 0x36
 8000de8:	f000 859a 	beq.w	8001920 <PMB_Emulator_Run+0xe88>
 8000dec:	2c37      	cmp	r4, #55	; 0x37
 8000dee:	f041 83c0 	bne.w	8002572 <PMB_Emulator_Run+0x1ada>
 8000df2:	f8b2 20ba 	ldrh.w	r2, [r2, #186]	; 0xba
 8000df6:	f8b3 30bc 	ldrh.w	r3, [r3, #188]	; 0xbc
 8000dfa:	f88d 2010 	strb.w	r2, [sp, #16]
 8000dfe:	f88d 3012 	strb.w	r3, [sp, #18]
 8000e02:	0a12      	lsrs	r2, r2, #8
 8000e04:	0a1b      	lsrs	r3, r3, #8
 8000e06:	f88d 2011 	strb.w	r2, [sp, #17]
 8000e0a:	f88d 3013 	strb.w	r3, [sp, #19]
 8000e0e:	f001 bbb0 	b.w	8002572 <PMB_Emulator_Run+0x1ada>
 8000e12:	2c3a      	cmp	r4, #58	; 0x3a
 8000e14:	f000 85b4 	beq.w	8001980 <PMB_Emulator_Run+0xee8>
 8000e18:	f0c0 85a2 	bcc.w	8001960 <PMB_Emulator_Run+0xec8>
 8000e1c:	2c3b      	cmp	r4, #59	; 0x3b
 8000e1e:	f000 85c6 	beq.w	80019ae <PMB_Emulator_Run+0xf16>
 8000e22:	2c3c      	cmp	r4, #60	; 0x3c
 8000e24:	f041 83a5 	bne.w	8002572 <PMB_Emulator_Run+0x1ada>
 8000e28:	f8b2 20d2 	ldrh.w	r2, [r2, #210]	; 0xd2
 8000e2c:	f8b3 30d4 	ldrh.w	r3, [r3, #212]	; 0xd4
 8000e30:	f88d 2010 	strb.w	r2, [sp, #16]
 8000e34:	f88d 3012 	strb.w	r3, [sp, #18]
 8000e38:	0a12      	lsrs	r2, r2, #8
 8000e3a:	0a1b      	lsrs	r3, r3, #8
 8000e3c:	f88d 2011 	strb.w	r2, [sp, #17]
 8000e40:	f88d 3013 	strb.w	r3, [sp, #19]
 8000e44:	f001 bb95 	b.w	8002572 <PMB_Emulator_Run+0x1ada>
 8000e48:	1ffe8870 	.word	0x1ffe8870
 8000e4c:	1ffe888c 	.word	0x1ffe888c
 8000e50:	2c42      	cmp	r4, #66	; 0x42
 8000e52:	f000 8603 	beq.w	8001a5c <PMB_Emulator_Run+0xfc4>
 8000e56:	d81a      	bhi.n	8000e8e <PMB_Emulator_Run+0x3f6>
 8000e58:	2c3f      	cmp	r4, #63	; 0x3f
 8000e5a:	f000 85df 	beq.w	8001a1c <PMB_Emulator_Run+0xf84>
 8000e5e:	f0c0 85cd 	bcc.w	80019fc <PMB_Emulator_Run+0xf64>
 8000e62:	2c40      	cmp	r4, #64	; 0x40
 8000e64:	f000 85ea 	beq.w	8001a3c <PMB_Emulator_Run+0xfa4>
 8000e68:	2c41      	cmp	r4, #65	; 0x41
 8000e6a:	f041 8382 	bne.w	8002572 <PMB_Emulator_Run+0x1ada>
 8000e6e:	f8b2 20e6 	ldrh.w	r2, [r2, #230]	; 0xe6
 8000e72:	f8b3 30e8 	ldrh.w	r3, [r3, #232]	; 0xe8
 8000e76:	f88d 2010 	strb.w	r2, [sp, #16]
 8000e7a:	f88d 3012 	strb.w	r3, [sp, #18]
 8000e7e:	0a12      	lsrs	r2, r2, #8
 8000e80:	0a1b      	lsrs	r3, r3, #8
 8000e82:	f88d 2011 	strb.w	r2, [sp, #17]
 8000e86:	f88d 3013 	strb.w	r3, [sp, #19]
 8000e8a:	f001 bb72 	b.w	8002572 <PMB_Emulator_Run+0x1ada>
 8000e8e:	2c44      	cmp	r4, #68	; 0x44
 8000e90:	f000 8604 	beq.w	8001a9c <PMB_Emulator_Run+0x1004>
 8000e94:	f0c0 85f2 	bcc.w	8001a7c <PMB_Emulator_Run+0xfe4>
 8000e98:	2c45      	cmp	r4, #69	; 0x45
 8000e9a:	f000 8616 	beq.w	8001aca <PMB_Emulator_Run+0x1032>
 8000e9e:	2c46      	cmp	r4, #70	; 0x46
 8000ea0:	f041 8367 	bne.w	8002572 <PMB_Emulator_Run+0x1ada>
 8000ea4:	f8b2 20fe 	ldrh.w	r2, [r2, #254]	; 0xfe
 8000ea8:	f8b3 3100 	ldrh.w	r3, [r3, #256]	; 0x100
 8000eac:	f88d 2010 	strb.w	r2, [sp, #16]
 8000eb0:	f88d 3012 	strb.w	r3, [sp, #18]
 8000eb4:	0a12      	lsrs	r2, r2, #8
 8000eb6:	0a1b      	lsrs	r3, r3, #8
 8000eb8:	f88d 2011 	strb.w	r2, [sp, #17]
 8000ebc:	f88d 3013 	strb.w	r3, [sp, #19]
 8000ec0:	f001 bb57 	b.w	8002572 <PMB_Emulator_Run+0x1ada>
 8000ec4:	2c56      	cmp	r4, #86	; 0x56
 8000ec6:	f000 86b3 	beq.w	8001c30 <PMB_Emulator_Run+0x1198>
 8000eca:	d840      	bhi.n	8000f4e <PMB_Emulator_Run+0x4b6>
 8000ecc:	2c51      	cmp	r4, #81	; 0x51
 8000ece:	f000 8653 	beq.w	8001b78 <PMB_Emulator_Run+0x10e0>
 8000ed2:	d821      	bhi.n	8000f18 <PMB_Emulator_Run+0x480>
 8000ed4:	2c49      	cmp	r4, #73	; 0x49
 8000ed6:	f000 862f 	beq.w	8001b38 <PMB_Emulator_Run+0x10a0>
 8000eda:	f0c0 861d 	bcc.w	8001b18 <PMB_Emulator_Run+0x1080>
 8000ede:	2c4a      	cmp	r4, #74	; 0x4a
 8000ee0:	f000 863a 	beq.w	8001b58 <PMB_Emulator_Run+0x10c0>
 8000ee4:	2c50      	cmp	r4, #80	; 0x50
 8000ee6:	f041 8344 	bne.w	8002572 <PMB_Emulator_Run+0x1ada>
 8000eea:	f8b2 2112 	ldrh.w	r2, [r2, #274]	; 0x112
 8000eee:	f88d 2010 	strb.w	r2, [sp, #16]
 8000ef2:	0a12      	lsrs	r2, r2, #8
 8000ef4:	f88d 2011 	strb.w	r2, [sp, #17]
 8000ef8:	f8b3 2114 	ldrh.w	r2, [r3, #276]	; 0x114
 8000efc:	f8b3 3116 	ldrh.w	r3, [r3, #278]	; 0x116
 8000f00:	f88d 2012 	strb.w	r2, [sp, #18]
 8000f04:	f88d 3014 	strb.w	r3, [sp, #20]
 8000f08:	0a12      	lsrs	r2, r2, #8
 8000f0a:	0a1b      	lsrs	r3, r3, #8
 8000f0c:	f88d 2013 	strb.w	r2, [sp, #19]
 8000f10:	f88d 3015 	strb.w	r3, [sp, #21]
 8000f14:	f001 bb2d 	b.w	8002572 <PMB_Emulator_Run+0x1ada>
 8000f18:	2c53      	cmp	r4, #83	; 0x53
 8000f1a:	f000 865b 	beq.w	8001bd4 <PMB_Emulator_Run+0x113c>
 8000f1e:	f0c0 8642 	bcc.w	8001ba6 <PMB_Emulator_Run+0x110e>
 8000f22:	2c54      	cmp	r4, #84	; 0x54
 8000f24:	f000 866d 	beq.w	8001c02 <PMB_Emulator_Run+0x116a>
 8000f28:	2c55      	cmp	r4, #85	; 0x55
 8000f2a:	f041 8322 	bne.w	8002572 <PMB_Emulator_Run+0x1ada>
 8000f2e:	f8b2 2130 	ldrh.w	r2, [r2, #304]	; 0x130
 8000f32:	f8b3 3132 	ldrh.w	r3, [r3, #306]	; 0x132
 8000f36:	f88d 2010 	strb.w	r2, [sp, #16]
 8000f3a:	f88d 3012 	strb.w	r3, [sp, #18]
 8000f3e:	0a12      	lsrs	r2, r2, #8
 8000f40:	0a1b      	lsrs	r3, r3, #8
 8000f42:	f88d 2011 	strb.w	r2, [sp, #17]
 8000f46:	f88d 3013 	strb.w	r3, [sp, #19]
 8000f4a:	f001 bb12 	b.w	8002572 <PMB_Emulator_Run+0x1ada>
 8000f4e:	2c5b      	cmp	r4, #91	; 0x5b
 8000f50:	f000 86ae 	beq.w	8001cb0 <PMB_Emulator_Run+0x1218>
 8000f54:	d821      	bhi.n	8000f9a <PMB_Emulator_Run+0x502>
 8000f56:	2c58      	cmp	r4, #88	; 0x58
 8000f58:	f000 868a 	beq.w	8001c70 <PMB_Emulator_Run+0x11d8>
 8000f5c:	f0c0 8678 	bcc.w	8001c50 <PMB_Emulator_Run+0x11b8>
 8000f60:	2c59      	cmp	r4, #89	; 0x59
 8000f62:	f000 8695 	beq.w	8001c90 <PMB_Emulator_Run+0x11f8>
 8000f66:	2c5a      	cmp	r4, #90	; 0x5a
 8000f68:	f041 8303 	bne.w	8002572 <PMB_Emulator_Run+0x1ada>
 8000f6c:	f8b2 2144 	ldrh.w	r2, [r2, #324]	; 0x144
 8000f70:	f88d 2010 	strb.w	r2, [sp, #16]
 8000f74:	0a12      	lsrs	r2, r2, #8
 8000f76:	f88d 2011 	strb.w	r2, [sp, #17]
 8000f7a:	f8b3 2146 	ldrh.w	r2, [r3, #326]	; 0x146
 8000f7e:	f8b3 3148 	ldrh.w	r3, [r3, #328]	; 0x148
 8000f82:	f88d 2012 	strb.w	r2, [sp, #18]
 8000f86:	f88d 3014 	strb.w	r3, [sp, #20]
 8000f8a:	0a12      	lsrs	r2, r2, #8
 8000f8c:	0a1b      	lsrs	r3, r3, #8
 8000f8e:	f88d 2013 	strb.w	r2, [sp, #19]
 8000f92:	f88d 3015 	strb.w	r3, [sp, #21]
 8000f96:	f001 baec 	b.w	8002572 <PMB_Emulator_Run+0x1ada>
 8000f9a:	2c5e      	cmp	r4, #94	; 0x5e
 8000f9c:	f000 86af 	beq.w	8001cfe <PMB_Emulator_Run+0x1266>
 8000fa0:	d815      	bhi.n	8000fce <PMB_Emulator_Run+0x536>
 8000fa2:	2c5c      	cmp	r4, #92	; 0x5c
 8000fa4:	f000 869b 	beq.w	8001cde <PMB_Emulator_Run+0x1246>
 8000fa8:	2c5d      	cmp	r4, #93	; 0x5d
 8000faa:	f041 82e2 	bne.w	8002572 <PMB_Emulator_Run+0x1ada>
 8000fae:	f8b2 2154 	ldrh.w	r2, [r2, #340]	; 0x154
 8000fb2:	f8b3 3156 	ldrh.w	r3, [r3, #342]	; 0x156
 8000fb6:	f88d 2010 	strb.w	r2, [sp, #16]
 8000fba:	f88d 3012 	strb.w	r3, [sp, #18]
 8000fbe:	0a12      	lsrs	r2, r2, #8
 8000fc0:	0a1b      	lsrs	r3, r3, #8
 8000fc2:	f88d 2011 	strb.w	r2, [sp, #17]
 8000fc6:	f88d 3013 	strb.w	r3, [sp, #19]
 8000fca:	f001 bad2 	b.w	8002572 <PMB_Emulator_Run+0x1ada>
 8000fce:	2c5f      	cmp	r4, #95	; 0x5f
 8000fd0:	f000 86a5 	beq.w	8001d1e <PMB_Emulator_Run+0x1286>
 8000fd4:	2c60      	cmp	r4, #96	; 0x60
 8000fd6:	f041 82cc 	bne.w	8002572 <PMB_Emulator_Run+0x1ada>
 8000fda:	f8b2 2160 	ldrh.w	r2, [r2, #352]	; 0x160
 8000fde:	f8b3 3162 	ldrh.w	r3, [r3, #354]	; 0x162
 8000fe2:	f88d 2010 	strb.w	r2, [sp, #16]
 8000fe6:	f88d 3012 	strb.w	r3, [sp, #18]
 8000fea:	0a12      	lsrs	r2, r2, #8
 8000fec:	0a1b      	lsrs	r3, r3, #8
 8000fee:	f88d 2011 	strb.w	r2, [sp, #17]
 8000ff2:	f88d 3013 	strb.w	r3, [sp, #19]
 8000ff6:	f001 babc 	b.w	8002572 <PMB_Emulator_Run+0x1ada>
 8000ffa:	2ca8      	cmp	r4, #168	; 0xa8
 8000ffc:	f001 80b0 	beq.w	8002160 <PMB_Emulator_Run+0x16c8>
 8001000:	f200 8114 	bhi.w	800122c <PMB_Emulator_Run+0x794>
 8001004:	2c7a      	cmp	r4, #122	; 0x7a
 8001006:	f000 87ae 	beq.w	8001f66 <PMB_Emulator_Run+0x14ce>
 800100a:	f200 8086 	bhi.w	800111a <PMB_Emulator_Run+0x682>
 800100e:	2c70      	cmp	r4, #112	; 0x70
 8001010:	f000 8715 	beq.w	8001e3e <PMB_Emulator_Run+0x13a6>
 8001014:	d840      	bhi.n	8001098 <PMB_Emulator_Run+0x600>
 8001016:	2c66      	cmp	r4, #102	; 0x66
 8001018:	f000 86d5 	beq.w	8001dc6 <PMB_Emulator_Run+0x132e>
 800101c:	d821      	bhi.n	8001062 <PMB_Emulator_Run+0x5ca>
 800101e:	2c63      	cmp	r4, #99	; 0x63
 8001020:	f000 86ac 	beq.w	8001d7c <PMB_Emulator_Run+0x12e4>
 8001024:	f0c0 869b 	bcc.w	8001d5e <PMB_Emulator_Run+0x12c6>
 8001028:	2c64      	cmp	r4, #100	; 0x64
 800102a:	f000 86b6 	beq.w	8001d9a <PMB_Emulator_Run+0x1302>
 800102e:	2c65      	cmp	r4, #101	; 0x65
 8001030:	f041 829f 	bne.w	8002572 <PMB_Emulator_Run+0x1ada>
 8001034:	f8b2 2176 	ldrh.w	r2, [r2, #374]	; 0x176
 8001038:	f88d 2010 	strb.w	r2, [sp, #16]
 800103c:	0a12      	lsrs	r2, r2, #8
 800103e:	f88d 2011 	strb.w	r2, [sp, #17]
 8001042:	f8b3 2178 	ldrh.w	r2, [r3, #376]	; 0x178
 8001046:	f8b3 317a 	ldrh.w	r3, [r3, #378]	; 0x17a
 800104a:	f88d 2012 	strb.w	r2, [sp, #18]
 800104e:	f88d 3014 	strb.w	r3, [sp, #20]
 8001052:	0a12      	lsrs	r2, r2, #8
 8001054:	0a1b      	lsrs	r3, r3, #8
 8001056:	f88d 2013 	strb.w	r2, [sp, #19]
 800105a:	f88d 3015 	strb.w	r3, [sp, #21]
 800105e:	f001 ba88 	b.w	8002572 <PMB_Emulator_Run+0x1ada>
 8001062:	2c68      	cmp	r4, #104	; 0x68
 8001064:	f000 86cd 	beq.w	8001e02 <PMB_Emulator_Run+0x136a>
 8001068:	f0c0 86bc 	bcc.w	8001de4 <PMB_Emulator_Run+0x134c>
 800106c:	2c69      	cmp	r4, #105	; 0x69
 800106e:	f000 86d7 	beq.w	8001e20 <PMB_Emulator_Run+0x1388>
 8001072:	2c6a      	cmp	r4, #106	; 0x6a
 8001074:	f041 827d 	bne.w	8002572 <PMB_Emulator_Run+0x1ada>
 8001078:	f8b2 218c 	ldrh.w	r2, [r2, #396]	; 0x18c
 800107c:	f8b3 318e 	ldrh.w	r3, [r3, #398]	; 0x18e
 8001080:	f88d 2010 	strb.w	r2, [sp, #16]
 8001084:	f88d 3012 	strb.w	r3, [sp, #18]
 8001088:	0a12      	lsrs	r2, r2, #8
 800108a:	0a1b      	lsrs	r3, r3, #8
 800108c:	f88d 2011 	strb.w	r2, [sp, #17]
 8001090:	f88d 3013 	strb.w	r3, [sp, #19]
 8001094:	f001 ba6d 	b.w	8002572 <PMB_Emulator_Run+0x1ada>
 8001098:	2c75      	cmp	r4, #117	; 0x75
 800109a:	f000 8728 	beq.w	8001eee <PMB_Emulator_Run+0x1456>
 800109e:	d821      	bhi.n	80010e4 <PMB_Emulator_Run+0x64c>
 80010a0:	2c72      	cmp	r4, #114	; 0x72
 80010a2:	f000 86f8 	beq.w	8001e96 <PMB_Emulator_Run+0x13fe>
 80010a6:	f0c0 86e0 	bcc.w	8001e6a <PMB_Emulator_Run+0x13d2>
 80010aa:	2c73      	cmp	r4, #115	; 0x73
 80010ac:	f000 8709 	beq.w	8001ec2 <PMB_Emulator_Run+0x142a>
 80010b0:	2c74      	cmp	r4, #116	; 0x74
 80010b2:	f041 825e 	bne.w	8002572 <PMB_Emulator_Run+0x1ada>
 80010b6:	f8b2 21a8 	ldrh.w	r2, [r2, #424]	; 0x1a8
 80010ba:	f88d 2010 	strb.w	r2, [sp, #16]
 80010be:	0a12      	lsrs	r2, r2, #8
 80010c0:	f88d 2011 	strb.w	r2, [sp, #17]
 80010c4:	f8b3 21aa 	ldrh.w	r2, [r3, #426]	; 0x1aa
 80010c8:	f8b3 31ac 	ldrh.w	r3, [r3, #428]	; 0x1ac
 80010cc:	f88d 2012 	strb.w	r2, [sp, #18]
 80010d0:	f88d 3014 	strb.w	r3, [sp, #20]
 80010d4:	0a12      	lsrs	r2, r2, #8
 80010d6:	0a1b      	lsrs	r3, r3, #8
 80010d8:	f88d 2013 	strb.w	r2, [sp, #19]
 80010dc:	f88d 3015 	strb.w	r3, [sp, #21]
 80010e0:	f001 ba47 	b.w	8002572 <PMB_Emulator_Run+0x1ada>
 80010e4:	2c77      	cmp	r4, #119	; 0x77
 80010e6:	f000 8720 	beq.w	8001f2a <PMB_Emulator_Run+0x1492>
 80010ea:	f0c0 870f 	bcc.w	8001f0c <PMB_Emulator_Run+0x1474>
 80010ee:	2c78      	cmp	r4, #120	; 0x78
 80010f0:	f000 872a 	beq.w	8001f48 <PMB_Emulator_Run+0x14b0>
 80010f4:	2c79      	cmp	r4, #121	; 0x79
 80010f6:	f041 823c 	bne.w	8002572 <PMB_Emulator_Run+0x1ada>
 80010fa:	f8b2 21be 	ldrh.w	r2, [r2, #446]	; 0x1be
 80010fe:	f8b3 31c0 	ldrh.w	r3, [r3, #448]	; 0x1c0
 8001102:	f88d 2010 	strb.w	r2, [sp, #16]
 8001106:	f88d 3012 	strb.w	r3, [sp, #18]
 800110a:	0a12      	lsrs	r2, r2, #8
 800110c:	0a1b      	lsrs	r3, r3, #8
 800110e:	f88d 2011 	strb.w	r2, [sp, #17]
 8001112:	f88d 3013 	strb.w	r3, [sp, #19]
 8001116:	f001 ba2c 	b.w	8002572 <PMB_Emulator_Run+0x1ada>
 800111a:	2c84      	cmp	r4, #132	; 0x84
 800111c:	f000 87a9 	beq.w	8002072 <PMB_Emulator_Run+0x15da>
 8001120:	d839      	bhi.n	8001196 <PMB_Emulator_Run+0x6fe>
 8001122:	2c7f      	cmp	r4, #127	; 0x7f
 8001124:	f000 8769 	beq.w	8001ffa <PMB_Emulator_Run+0x1562>
 8001128:	d81a      	bhi.n	8001160 <PMB_Emulator_Run+0x6c8>
 800112a:	2c7c      	cmp	r4, #124	; 0x7c
 800112c:	f000 8747 	beq.w	8001fbe <PMB_Emulator_Run+0x1526>
 8001130:	f0c0 872f 	bcc.w	8001f92 <PMB_Emulator_Run+0x14fa>
 8001134:	2c7d      	cmp	r4, #125	; 0x7d
 8001136:	f000 8751 	beq.w	8001fdc <PMB_Emulator_Run+0x1544>
 800113a:	2c7e      	cmp	r4, #126	; 0x7e
 800113c:	f041 8219 	bne.w	8002572 <PMB_Emulator_Run+0x1ada>
 8001140:	f8b2 21d6 	ldrh.w	r2, [r2, #470]	; 0x1d6
 8001144:	f8b3 31d8 	ldrh.w	r3, [r3, #472]	; 0x1d8
 8001148:	f88d 2010 	strb.w	r2, [sp, #16]
 800114c:	f88d 3012 	strb.w	r3, [sp, #18]
 8001150:	0a12      	lsrs	r2, r2, #8
 8001152:	0a1b      	lsrs	r3, r3, #8
 8001154:	f88d 2011 	strb.w	r2, [sp, #17]
 8001158:	f88d 3013 	strb.w	r3, [sp, #19]
 800115c:	f001 ba09 	b.w	8002572 <PMB_Emulator_Run+0x1ada>
 8001160:	2c81      	cmp	r4, #129	; 0x81
 8001162:	f000 8768 	beq.w	8002036 <PMB_Emulator_Run+0x159e>
 8001166:	f0c0 8757 	bcc.w	8002018 <PMB_Emulator_Run+0x1580>
 800116a:	2c82      	cmp	r4, #130	; 0x82
 800116c:	f000 8772 	beq.w	8002054 <PMB_Emulator_Run+0x15bc>
 8001170:	2c83      	cmp	r4, #131	; 0x83
 8001172:	f041 81fe 	bne.w	8002572 <PMB_Emulator_Run+0x1ada>
 8001176:	f8b2 21ea 	ldrh.w	r2, [r2, #490]	; 0x1ea
 800117a:	f8b3 31ec 	ldrh.w	r3, [r3, #492]	; 0x1ec
 800117e:	f88d 2010 	strb.w	r2, [sp, #16]
 8001182:	f88d 3012 	strb.w	r3, [sp, #18]
 8001186:	0a12      	lsrs	r2, r2, #8
 8001188:	0a1b      	lsrs	r3, r3, #8
 800118a:	f88d 2011 	strb.w	r2, [sp, #17]
 800118e:	f88d 3013 	strb.w	r3, [sp, #19]
 8001192:	f001 b9ee 	b.w	8002572 <PMB_Emulator_Run+0x1ada>
 8001196:	2c89      	cmp	r4, #137	; 0x89
 8001198:	f000 87b5 	beq.w	8002106 <PMB_Emulator_Run+0x166e>
 800119c:	d81a      	bhi.n	80011d4 <PMB_Emulator_Run+0x73c>
 800119e:	2c86      	cmp	r4, #134	; 0x86
 80011a0:	f000 8793 	beq.w	80020ca <PMB_Emulator_Run+0x1632>
 80011a4:	f0c0 877b 	bcc.w	800209e <PMB_Emulator_Run+0x1606>
 80011a8:	2c87      	cmp	r4, #135	; 0x87
 80011aa:	f000 879d 	beq.w	80020e8 <PMB_Emulator_Run+0x1650>
 80011ae:	2c88      	cmp	r4, #136	; 0x88
 80011b0:	f041 81df 	bne.w	8002572 <PMB_Emulator_Run+0x1ada>
 80011b4:	f8b2 2202 	ldrh.w	r2, [r2, #514]	; 0x202
 80011b8:	f8b3 3204 	ldrh.w	r3, [r3, #516]	; 0x204
 80011bc:	f88d 2010 	strb.w	r2, [sp, #16]
 80011c0:	f88d 3012 	strb.w	r3, [sp, #18]
 80011c4:	0a12      	lsrs	r2, r2, #8
 80011c6:	0a1b      	lsrs	r3, r3, #8
 80011c8:	f88d 2011 	strb.w	r2, [sp, #17]
 80011cc:	f88d 3013 	strb.w	r3, [sp, #19]
 80011d0:	f001 b9cf 	b.w	8002572 <PMB_Emulator_Run+0x1ada>
 80011d4:	2c90      	cmp	r4, #144	; 0x90
 80011d6:	f000 87a5 	beq.w	8002124 <PMB_Emulator_Run+0x168c>
 80011da:	d812      	bhi.n	8001202 <PMB_Emulator_Run+0x76a>
 80011dc:	2c8a      	cmp	r4, #138	; 0x8a
 80011de:	f041 81c8 	bne.w	8002572 <PMB_Emulator_Run+0x1ada>
 80011e2:	f8b2 220a 	ldrh.w	r2, [r2, #522]	; 0x20a
 80011e6:	f8b3 320c 	ldrh.w	r3, [r3, #524]	; 0x20c
 80011ea:	f88d 2010 	strb.w	r2, [sp, #16]
 80011ee:	f88d 3012 	strb.w	r3, [sp, #18]
 80011f2:	0a12      	lsrs	r2, r2, #8
 80011f4:	0a1b      	lsrs	r3, r3, #8
 80011f6:	f88d 2011 	strb.w	r2, [sp, #17]
 80011fa:	f88d 3013 	strb.w	r3, [sp, #19]
 80011fe:	f001 b9b8 	b.w	8002572 <PMB_Emulator_Run+0x1ada>
 8001202:	2c91      	cmp	r4, #145	; 0x91
 8001204:	f000 87a4 	beq.w	8002150 <PMB_Emulator_Run+0x16b8>
 8001208:	2ca0      	cmp	r4, #160	; 0xa0
 800120a:	f041 81b2 	bne.w	8002572 <PMB_Emulator_Run+0x1ada>
 800120e:	f8d2 3218 	ldr.w	r3, [r2, #536]	; 0x218
 8001212:	f88d 3010 	strb.w	r3, [sp, #16]
 8001216:	0a1a      	lsrs	r2, r3, #8
 8001218:	f88d 2011 	strb.w	r2, [sp, #17]
 800121c:	0c1a      	lsrs	r2, r3, #16
 800121e:	0e1b      	lsrs	r3, r3, #24
 8001220:	f88d 2012 	strb.w	r2, [sp, #18]
 8001224:	f88d 3013 	strb.w	r3, [sp, #19]
 8001228:	f001 b9a3 	b.w	8002572 <PMB_Emulator_Run+0x1ada>
 800122c:	2cc1      	cmp	r4, #193	; 0xc1
 800122e:	f001 80a0 	beq.w	8002372 <PMB_Emulator_Run+0x18da>
 8001232:	f200 8086 	bhi.w	8001342 <PMB_Emulator_Run+0x8aa>
 8001236:	2cb7      	cmp	r4, #183	; 0xb7
 8001238:	f001 801c 	beq.w	8002274 <PMB_Emulator_Run+0x17dc>
 800123c:	d840      	bhi.n	80012c0 <PMB_Emulator_Run+0x828>
 800123e:	2cb2      	cmp	r4, #178	; 0xb2
 8001240:	f000 87c7 	beq.w	80021d2 <PMB_Emulator_Run+0x173a>
 8001244:	d821      	bhi.n	800128a <PMB_Emulator_Run+0x7f2>
 8001246:	2caa      	cmp	r4, #170	; 0xaa
 8001248:	f000 879c 	beq.w	8002184 <PMB_Emulator_Run+0x16ec>
 800124c:	f0c0 878d 	bcc.w	800216a <PMB_Emulator_Run+0x16d2>
 8001250:	2cb0      	cmp	r4, #176	; 0xb0
 8001252:	f000 87a8 	beq.w	80021a6 <PMB_Emulator_Run+0x170e>
 8001256:	2cb1      	cmp	r4, #177	; 0xb1
 8001258:	f041 818b 	bne.w	8002572 <PMB_Emulator_Run+0x1ada>
 800125c:	f8b2 222a 	ldrh.w	r2, [r2, #554]	; 0x22a
 8001260:	f88d 2010 	strb.w	r2, [sp, #16]
 8001264:	0a12      	lsrs	r2, r2, #8
 8001266:	f88d 2011 	strb.w	r2, [sp, #17]
 800126a:	f8b3 222c 	ldrh.w	r2, [r3, #556]	; 0x22c
 800126e:	f8b3 322e 	ldrh.w	r3, [r3, #558]	; 0x22e
 8001272:	f88d 2012 	strb.w	r2, [sp, #18]
 8001276:	f88d 3014 	strb.w	r3, [sp, #20]
 800127a:	0a12      	lsrs	r2, r2, #8
 800127c:	0a1b      	lsrs	r3, r3, #8
 800127e:	f88d 2013 	strb.w	r2, [sp, #19]
 8001282:	f88d 3015 	strb.w	r3, [sp, #21]
 8001286:	f001 b974 	b.w	8002572 <PMB_Emulator_Run+0x1ada>
 800128a:	2cb4      	cmp	r4, #180	; 0xb4
 800128c:	f000 87cd 	beq.w	800222a <PMB_Emulator_Run+0x1792>
 8001290:	f0c0 87b5 	bcc.w	80021fe <PMB_Emulator_Run+0x1766>
 8001294:	2cb5      	cmp	r4, #181	; 0xb5
 8001296:	f000 87de 	beq.w	8002256 <PMB_Emulator_Run+0x17be>
 800129a:	2cb6      	cmp	r4, #182	; 0xb6
 800129c:	f041 8169 	bne.w	8002572 <PMB_Emulator_Run+0x1ada>
 80012a0:	f8b2 2246 	ldrh.w	r2, [r2, #582]	; 0x246
 80012a4:	f8b3 3248 	ldrh.w	r3, [r3, #584]	; 0x248
 80012a8:	f88d 2010 	strb.w	r2, [sp, #16]
 80012ac:	f88d 3012 	strb.w	r3, [sp, #18]
 80012b0:	0a12      	lsrs	r2, r2, #8
 80012b2:	0a1b      	lsrs	r3, r3, #8
 80012b4:	f88d 2011 	strb.w	r2, [sp, #17]
 80012b8:	f88d 3013 	strb.w	r3, [sp, #19]
 80012bc:	f001 b959 	b.w	8002572 <PMB_Emulator_Run+0x1ada>
 80012c0:	2cbc      	cmp	r4, #188	; 0xbc
 80012c2:	f001 801a 	beq.w	80022fa <PMB_Emulator_Run+0x1862>
 80012c6:	d821      	bhi.n	800130c <PMB_Emulator_Run+0x874>
 80012c8:	2cb9      	cmp	r4, #185	; 0xb9
 80012ca:	f000 87f1 	beq.w	80022b0 <PMB_Emulator_Run+0x1818>
 80012ce:	f0c0 87e0 	bcc.w	8002292 <PMB_Emulator_Run+0x17fa>
 80012d2:	2cba      	cmp	r4, #186	; 0xba
 80012d4:	f000 87fb 	beq.w	80022ce <PMB_Emulator_Run+0x1836>
 80012d8:	2cbb      	cmp	r4, #187	; 0xbb
 80012da:	f041 814a 	bne.w	8002572 <PMB_Emulator_Run+0x1ada>
 80012de:	f8b2 225c 	ldrh.w	r2, [r2, #604]	; 0x25c
 80012e2:	f88d 2010 	strb.w	r2, [sp, #16]
 80012e6:	0a12      	lsrs	r2, r2, #8
 80012e8:	f88d 2011 	strb.w	r2, [sp, #17]
 80012ec:	f8b3 225e 	ldrh.w	r2, [r3, #606]	; 0x25e
 80012f0:	f8b3 3260 	ldrh.w	r3, [r3, #608]	; 0x260
 80012f4:	f88d 2012 	strb.w	r2, [sp, #18]
 80012f8:	f88d 3014 	strb.w	r3, [sp, #20]
 80012fc:	0a12      	lsrs	r2, r2, #8
 80012fe:	0a1b      	lsrs	r3, r3, #8
 8001300:	f88d 2013 	strb.w	r2, [sp, #19]
 8001304:	f88d 3015 	strb.w	r3, [sp, #21]
 8001308:	f001 b933 	b.w	8002572 <PMB_Emulator_Run+0x1ada>
 800130c:	2cbe      	cmp	r4, #190	; 0xbe
 800130e:	f001 8012 	beq.w	8002336 <PMB_Emulator_Run+0x189e>
 8001312:	f0c1 8001 	bcc.w	8002318 <PMB_Emulator_Run+0x1880>
 8001316:	2cbf      	cmp	r4, #191	; 0xbf
 8001318:	f001 801c 	beq.w	8002354 <PMB_Emulator_Run+0x18bc>
 800131c:	2cc0      	cmp	r4, #192	; 0xc0
 800131e:	f041 8128 	bne.w	8002572 <PMB_Emulator_Run+0x1ada>
 8001322:	f8b2 2272 	ldrh.w	r2, [r2, #626]	; 0x272
 8001326:	f8b3 3274 	ldrh.w	r3, [r3, #628]	; 0x274
 800132a:	f88d 2010 	strb.w	r2, [sp, #16]
 800132e:	f88d 3012 	strb.w	r3, [sp, #18]
 8001332:	0a12      	lsrs	r2, r2, #8
 8001334:	0a1b      	lsrs	r3, r3, #8
 8001336:	f88d 2011 	strb.w	r2, [sp, #17]
 800133a:	f88d 3013 	strb.w	r3, [sp, #19]
 800133e:	f001 b918 	b.w	8002572 <PMB_Emulator_Run+0x1ada>
 8001342:	2ccb      	cmp	r4, #203	; 0xcb
 8001344:	f001 8094 	beq.w	8002470 <PMB_Emulator_Run+0x19d8>
 8001348:	d840      	bhi.n	80013cc <PMB_Emulator_Run+0x934>
 800134a:	2cc6      	cmp	r4, #198	; 0xc6
 800134c:	f001 8054 	beq.w	80023f8 <PMB_Emulator_Run+0x1960>
 8001350:	d821      	bhi.n	8001396 <PMB_Emulator_Run+0x8fe>
 8001352:	2cc3      	cmp	r4, #195	; 0xc3
 8001354:	f001 802b 	beq.w	80023ae <PMB_Emulator_Run+0x1916>
 8001358:	f0c1 801a 	bcc.w	8002390 <PMB_Emulator_Run+0x18f8>
 800135c:	2cc4      	cmp	r4, #196	; 0xc4
 800135e:	f001 8035 	beq.w	80023cc <PMB_Emulator_Run+0x1934>
 8001362:	2cc5      	cmp	r4, #197	; 0xc5
 8001364:	f041 8105 	bne.w	8002572 <PMB_Emulator_Run+0x1ada>
 8001368:	f8b2 2288 	ldrh.w	r2, [r2, #648]	; 0x288
 800136c:	f88d 2010 	strb.w	r2, [sp, #16]
 8001370:	0a12      	lsrs	r2, r2, #8
 8001372:	f88d 2011 	strb.w	r2, [sp, #17]
 8001376:	f8b3 228a 	ldrh.w	r2, [r3, #650]	; 0x28a
 800137a:	f8b3 328c 	ldrh.w	r3, [r3, #652]	; 0x28c
 800137e:	f88d 2012 	strb.w	r2, [sp, #18]
 8001382:	f88d 3014 	strb.w	r3, [sp, #20]
 8001386:	0a12      	lsrs	r2, r2, #8
 8001388:	0a1b      	lsrs	r3, r3, #8
 800138a:	f88d 2013 	strb.w	r2, [sp, #19]
 800138e:	f88d 3015 	strb.w	r3, [sp, #21]
 8001392:	f001 b8ee 	b.w	8002572 <PMB_Emulator_Run+0x1ada>
 8001396:	2cc8      	cmp	r4, #200	; 0xc8
 8001398:	f001 804c 	beq.w	8002434 <PMB_Emulator_Run+0x199c>
 800139c:	f0c1 803b 	bcc.w	8002416 <PMB_Emulator_Run+0x197e>
 80013a0:	2cc9      	cmp	r4, #201	; 0xc9
 80013a2:	f001 8056 	beq.w	8002452 <PMB_Emulator_Run+0x19ba>
 80013a6:	2cca      	cmp	r4, #202	; 0xca
 80013a8:	f041 80e3 	bne.w	8002572 <PMB_Emulator_Run+0x1ada>
 80013ac:	f8b2 229e 	ldrh.w	r2, [r2, #670]	; 0x29e
 80013b0:	f8b3 32a0 	ldrh.w	r3, [r3, #672]	; 0x2a0
 80013b4:	f88d 2010 	strb.w	r2, [sp, #16]
 80013b8:	f88d 3012 	strb.w	r3, [sp, #18]
 80013bc:	0a12      	lsrs	r2, r2, #8
 80013be:	0a1b      	lsrs	r3, r3, #8
 80013c0:	f88d 2011 	strb.w	r2, [sp, #17]
 80013c4:	f88d 3013 	strb.w	r3, [sp, #19]
 80013c8:	f001 b8d3 	b.w	8002572 <PMB_Emulator_Run+0x1ada>
 80013cc:	2cd0      	cmp	r4, #208	; 0xd0
 80013ce:	f001 80a0 	beq.w	8002512 <PMB_Emulator_Run+0x1a7a>
 80013d2:	d81a      	bhi.n	800140a <PMB_Emulator_Run+0x972>
 80013d4:	2ccd      	cmp	r4, #205	; 0xcd
 80013d6:	f001 8070 	beq.w	80024ba <PMB_Emulator_Run+0x1a22>
 80013da:	f0c1 805f 	bcc.w	800249c <PMB_Emulator_Run+0x1a04>
 80013de:	2cce      	cmp	r4, #206	; 0xce
 80013e0:	f001 8081 	beq.w	80024e6 <PMB_Emulator_Run+0x1a4e>
 80013e4:	2ccf      	cmp	r4, #207	; 0xcf
 80013e6:	f041 80c4 	bne.w	8002572 <PMB_Emulator_Run+0x1ada>
 80013ea:	f8b2 22b8 	ldrh.w	r2, [r2, #696]	; 0x2b8
 80013ee:	f8b3 32ba 	ldrh.w	r3, [r3, #698]	; 0x2ba
 80013f2:	f88d 2010 	strb.w	r2, [sp, #16]
 80013f6:	f88d 3012 	strb.w	r3, [sp, #18]
 80013fa:	0a12      	lsrs	r2, r2, #8
 80013fc:	0a1b      	lsrs	r3, r3, #8
 80013fe:	f88d 2011 	strb.w	r2, [sp, #17]
 8001402:	f88d 3013 	strb.w	r3, [sp, #19]
 8001406:	f001 b8b4 	b.w	8002572 <PMB_Emulator_Run+0x1ada>
 800140a:	2cd9      	cmp	r4, #217	; 0xd9
 800140c:	f001 8096 	beq.w	800253c <PMB_Emulator_Run+0x1aa4>
 8001410:	d80d      	bhi.n	800142e <PMB_Emulator_Run+0x996>
 8001412:	2cd1      	cmp	r4, #209	; 0xd1
 8001414:	f001 8085 	beq.w	8002522 <PMB_Emulator_Run+0x1a8a>
 8001418:	2cd8      	cmp	r4, #216	; 0xd8
 800141a:	f041 80aa 	bne.w	8002572 <PMB_Emulator_Run+0x1ada>
 800141e:	4beb      	ldr	r3, [pc, #940]	; (80017cc <PMB_Emulator_Run+0xd34>)
 8001420:	6818      	ldr	r0, [r3, #0]
 8001422:	889b      	ldrh	r3, [r3, #4]
 8001424:	9004      	str	r0, [sp, #16]
 8001426:	f8ad 3014 	strh.w	r3, [sp, #20]
 800142a:	f001 b8a2 	b.w	8002572 <PMB_Emulator_Run+0x1ada>
 800142e:	f5b4 7ffc 	cmp.w	r4, #504	; 0x1f8
 8001432:	f001 8090 	beq.w	8002556 <PMB_Emulator_Run+0x1abe>
 8001436:	f5b4 7ffd 	cmp.w	r4, #506	; 0x1fa
 800143a:	f041 809a 	bne.w	8002572 <PMB_Emulator_Run+0x1ada>
 800143e:	f892 22d2 	ldrb.w	r2, [r2, #722]	; 0x2d2
 8001442:	f88d 2010 	strb.w	r2, [sp, #16]
 8001446:	f893 22d3 	ldrb.w	r2, [r3, #723]	; 0x2d3
 800144a:	f88d 2011 	strb.w	r2, [sp, #17]
 800144e:	f893 22d4 	ldrb.w	r2, [r3, #724]	; 0x2d4
 8001452:	f88d 2012 	strb.w	r2, [sp, #18]
 8001456:	f893 22d5 	ldrb.w	r2, [r3, #725]	; 0x2d5
 800145a:	f893 32d6 	ldrb.w	r3, [r3, #726]	; 0x2d6
 800145e:	f88d 2013 	strb.w	r2, [sp, #19]
 8001462:	f88d 3014 	strb.w	r3, [sp, #20]
 8001466:	f001 b884 	b.w	8002572 <PMB_Emulator_Run+0x1ada>
 800146a:	8812      	ldrh	r2, [r2, #0]
 800146c:	f88d 2010 	strb.w	r2, [sp, #16]
 8001470:	f3c2 2203 	ubfx	r2, r2, #8, #4
 8001474:	f88d 2011 	strb.w	r2, [sp, #17]
 8001478:	885a      	ldrh	r2, [r3, #2]
 800147a:	889b      	ldrh	r3, [r3, #4]
 800147c:	f88d 2012 	strb.w	r2, [sp, #18]
 8001480:	f88d 3014 	strb.w	r3, [sp, #20]
 8001484:	f3c2 2203 	ubfx	r2, r2, #8, #4
 8001488:	f3c3 2303 	ubfx	r3, r3, #8, #4
 800148c:	f88d 2013 	strb.w	r2, [sp, #19]
 8001490:	f88d 3015 	strb.w	r3, [sp, #21]
 8001494:	f001 b86d 	b.w	8002572 <PMB_Emulator_Run+0x1ada>
 8001498:	88d2      	ldrh	r2, [r2, #6]
 800149a:	f88d 2010 	strb.w	r2, [sp, #16]
 800149e:	f3c2 2203 	ubfx	r2, r2, #8, #4
 80014a2:	f88d 2011 	strb.w	r2, [sp, #17]
 80014a6:	891a      	ldrh	r2, [r3, #8]
 80014a8:	895b      	ldrh	r3, [r3, #10]
 80014aa:	f88d 2012 	strb.w	r2, [sp, #18]
 80014ae:	f88d 3014 	strb.w	r3, [sp, #20]
 80014b2:	f3c2 2203 	ubfx	r2, r2, #8, #4
 80014b6:	f3c3 2303 	ubfx	r3, r3, #8, #4
 80014ba:	f88d 2013 	strb.w	r2, [sp, #19]
 80014be:	f88d 3015 	strb.w	r3, [sp, #21]
 80014c2:	f001 b856 	b.w	8002572 <PMB_Emulator_Run+0x1ada>
 80014c6:	8992      	ldrh	r2, [r2, #12]
 80014c8:	f88d 2010 	strb.w	r2, [sp, #16]
 80014cc:	f3c2 2203 	ubfx	r2, r2, #8, #4
 80014d0:	f88d 2011 	strb.w	r2, [sp, #17]
 80014d4:	89da      	ldrh	r2, [r3, #14]
 80014d6:	8a1b      	ldrh	r3, [r3, #16]
 80014d8:	f88d 2012 	strb.w	r2, [sp, #18]
 80014dc:	f88d 3014 	strb.w	r3, [sp, #20]
 80014e0:	f3c2 2203 	ubfx	r2, r2, #8, #4
 80014e4:	f3c3 2303 	ubfx	r3, r3, #8, #4
 80014e8:	f88d 2013 	strb.w	r2, [sp, #19]
 80014ec:	f88d 3015 	strb.w	r3, [sp, #21]
 80014f0:	f001 b83f 	b.w	8002572 <PMB_Emulator_Run+0x1ada>
 80014f4:	8b13      	ldrh	r3, [r2, #24]
 80014f6:	f88d 3010 	strb.w	r3, [sp, #16]
 80014fa:	f3c3 2303 	ubfx	r3, r3, #8, #4
 80014fe:	f88d 3011 	strb.w	r3, [sp, #17]
 8001502:	8b53      	ldrh	r3, [r2, #26]
 8001504:	f88d 3012 	strb.w	r3, [sp, #18]
 8001508:	f3c3 2303 	ubfx	r3, r3, #8, #4
 800150c:	f88d 3013 	strb.w	r3, [sp, #19]
 8001510:	8b93      	ldrh	r3, [r2, #28]
 8001512:	f88d 3014 	strb.w	r3, [sp, #20]
 8001516:	f3c3 2303 	ubfx	r3, r3, #8, #4
 800151a:	f88d 3015 	strb.w	r3, [sp, #21]
 800151e:	f001 b828 	b.w	8002572 <PMB_Emulator_Run+0x1ada>
 8001522:	8bd2      	ldrh	r2, [r2, #30]
 8001524:	8c1b      	ldrh	r3, [r3, #32]
 8001526:	f88d 2010 	strb.w	r2, [sp, #16]
 800152a:	f88d 3012 	strb.w	r3, [sp, #18]
 800152e:	f3c2 2203 	ubfx	r2, r2, #8, #4
 8001532:	f3c3 2303 	ubfx	r3, r3, #8, #4
 8001536:	f88d 2011 	strb.w	r2, [sp, #17]
 800153a:	f88d 3013 	strb.w	r3, [sp, #19]
 800153e:	f001 b818 	b.w	8002572 <PMB_Emulator_Run+0x1ada>
 8001542:	8c52      	ldrh	r2, [r2, #34]	; 0x22
 8001544:	8c9b      	ldrh	r3, [r3, #36]	; 0x24
 8001546:	f88d 2010 	strb.w	r2, [sp, #16]
 800154a:	f88d 3012 	strb.w	r3, [sp, #18]
 800154e:	f3c2 2203 	ubfx	r2, r2, #8, #4
 8001552:	f3c3 2303 	ubfx	r3, r3, #8, #4
 8001556:	f88d 2011 	strb.w	r2, [sp, #17]
 800155a:	f88d 3013 	strb.w	r3, [sp, #19]
 800155e:	f001 b808 	b.w	8002572 <PMB_Emulator_Run+0x1ada>
 8001562:	8cd2      	ldrh	r2, [r2, #38]	; 0x26
 8001564:	8d1b      	ldrh	r3, [r3, #40]	; 0x28
 8001566:	f88d 2010 	strb.w	r2, [sp, #16]
 800156a:	f88d 3012 	strb.w	r3, [sp, #18]
 800156e:	f3c2 2203 	ubfx	r2, r2, #8, #4
 8001572:	f3c3 2303 	ubfx	r3, r3, #8, #4
 8001576:	f88d 2011 	strb.w	r2, [sp, #17]
 800157a:	f88d 3013 	strb.w	r3, [sp, #19]
 800157e:	f000 bff8 	b.w	8002572 <PMB_Emulator_Run+0x1ada>
 8001582:	8dd3      	ldrh	r3, [r2, #46]	; 0x2e
 8001584:	f88d 3010 	strb.w	r3, [sp, #16]
 8001588:	f3c3 2303 	ubfx	r3, r3, #8, #4
 800158c:	f88d 3011 	strb.w	r3, [sp, #17]
 8001590:	8e13      	ldrh	r3, [r2, #48]	; 0x30
 8001592:	f88d 3012 	strb.w	r3, [sp, #18]
 8001596:	f3c3 2303 	ubfx	r3, r3, #8, #4
 800159a:	f88d 3013 	strb.w	r3, [sp, #19]
 800159e:	f000 bfe8 	b.w	8002572 <PMB_Emulator_Run+0x1ada>
 80015a2:	8e52      	ldrh	r2, [r2, #50]	; 0x32
 80015a4:	f88d 2010 	strb.w	r2, [sp, #16]
 80015a8:	f3c2 2203 	ubfx	r2, r2, #8, #4
 80015ac:	f88d 2011 	strb.w	r2, [sp, #17]
 80015b0:	8e9a      	ldrh	r2, [r3, #52]	; 0x34
 80015b2:	8edb      	ldrh	r3, [r3, #54]	; 0x36
 80015b4:	f88d 2012 	strb.w	r2, [sp, #18]
 80015b8:	f88d 3014 	strb.w	r3, [sp, #20]
 80015bc:	f3c2 2203 	ubfx	r2, r2, #8, #4
 80015c0:	f3c3 2303 	ubfx	r3, r3, #8, #4
 80015c4:	f88d 2013 	strb.w	r2, [sp, #19]
 80015c8:	f88d 3015 	strb.w	r3, [sp, #21]
 80015cc:	f000 bfd1 	b.w	8002572 <PMB_Emulator_Run+0x1ada>
 80015d0:	8f12      	ldrh	r2, [r2, #56]	; 0x38
 80015d2:	f88d 2010 	strb.w	r2, [sp, #16]
 80015d6:	f3c2 2203 	ubfx	r2, r2, #8, #4
 80015da:	f88d 2011 	strb.w	r2, [sp, #17]
 80015de:	8f5a      	ldrh	r2, [r3, #58]	; 0x3a
 80015e0:	8f9b      	ldrh	r3, [r3, #60]	; 0x3c
 80015e2:	f88d 2012 	strb.w	r2, [sp, #18]
 80015e6:	f88d 3014 	strb.w	r3, [sp, #20]
 80015ea:	f3c2 2203 	ubfx	r2, r2, #8, #4
 80015ee:	f3c3 2303 	ubfx	r3, r3, #8, #4
 80015f2:	f88d 2013 	strb.w	r2, [sp, #19]
 80015f6:	f88d 3015 	strb.w	r3, [sp, #21]
 80015fa:	f000 bfba 	b.w	8002572 <PMB_Emulator_Run+0x1ada>
 80015fe:	8fd2      	ldrh	r2, [r2, #62]	; 0x3e
 8001600:	f8b3 3040 	ldrh.w	r3, [r3, #64]	; 0x40
 8001604:	f88d 2010 	strb.w	r2, [sp, #16]
 8001608:	f88d 3012 	strb.w	r3, [sp, #18]
 800160c:	f3c2 2203 	ubfx	r2, r2, #8, #4
 8001610:	f3c3 2303 	ubfx	r3, r3, #8, #4
 8001614:	f88d 2011 	strb.w	r2, [sp, #17]
 8001618:	f88d 3013 	strb.w	r3, [sp, #19]
 800161c:	f000 bfa9 	b.w	8002572 <PMB_Emulator_Run+0x1ada>
 8001620:	f8b2 3046 	ldrh.w	r3, [r2, #70]	; 0x46
 8001624:	f88d 3010 	strb.w	r3, [sp, #16]
 8001628:	f3c3 2303 	ubfx	r3, r3, #8, #4
 800162c:	f88d 3011 	strb.w	r3, [sp, #17]
 8001630:	f8b2 3048 	ldrh.w	r3, [r2, #72]	; 0x48
 8001634:	f88d 3012 	strb.w	r3, [sp, #18]
 8001638:	f3c3 2303 	ubfx	r3, r3, #8, #4
 800163c:	f88d 3013 	strb.w	r3, [sp, #19]
 8001640:	f000 bf97 	b.w	8002572 <PMB_Emulator_Run+0x1ada>
 8001644:	f8b2 204a 	ldrh.w	r2, [r2, #74]	; 0x4a
 8001648:	f8b3 304c 	ldrh.w	r3, [r3, #76]	; 0x4c
 800164c:	f88d 2010 	strb.w	r2, [sp, #16]
 8001650:	f88d 3012 	strb.w	r3, [sp, #18]
 8001654:	f3c2 2203 	ubfx	r2, r2, #8, #4
 8001658:	f3c3 2303 	ubfx	r3, r3, #8, #4
 800165c:	f88d 2011 	strb.w	r2, [sp, #17]
 8001660:	f88d 3013 	strb.w	r3, [sp, #19]
 8001664:	f000 bf85 	b.w	8002572 <PMB_Emulator_Run+0x1ada>
 8001668:	f8b2 204e 	ldrh.w	r2, [r2, #78]	; 0x4e
 800166c:	f8b3 3050 	ldrh.w	r3, [r3, #80]	; 0x50
 8001670:	f88d 2010 	strb.w	r2, [sp, #16]
 8001674:	f88d 3012 	strb.w	r3, [sp, #18]
 8001678:	f3c2 2203 	ubfx	r2, r2, #8, #4
 800167c:	f3c3 2303 	ubfx	r3, r3, #8, #4
 8001680:	f88d 2011 	strb.w	r2, [sp, #17]
 8001684:	f88d 3013 	strb.w	r3, [sp, #19]
 8001688:	f000 bf73 	b.w	8002572 <PMB_Emulator_Run+0x1ada>
 800168c:	f8b2 2052 	ldrh.w	r2, [r2, #82]	; 0x52
 8001690:	f8b3 3054 	ldrh.w	r3, [r3, #84]	; 0x54
 8001694:	f88d 2010 	strb.w	r2, [sp, #16]
 8001698:	f88d 3012 	strb.w	r3, [sp, #18]
 800169c:	f3c2 2203 	ubfx	r2, r2, #8, #4
 80016a0:	f3c3 2303 	ubfx	r3, r3, #8, #4
 80016a4:	f88d 2011 	strb.w	r2, [sp, #17]
 80016a8:	f88d 3013 	strb.w	r3, [sp, #19]
 80016ac:	f000 bf61 	b.w	8002572 <PMB_Emulator_Run+0x1ada>
 80016b0:	f8b2 305a 	ldrh.w	r3, [r2, #90]	; 0x5a
 80016b4:	f88d 3010 	strb.w	r3, [sp, #16]
 80016b8:	f3c3 2303 	ubfx	r3, r3, #8, #4
 80016bc:	f88d 3011 	strb.w	r3, [sp, #17]
 80016c0:	f8b2 305c 	ldrh.w	r3, [r2, #92]	; 0x5c
 80016c4:	f88d 3012 	strb.w	r3, [sp, #18]
 80016c8:	f3c3 2303 	ubfx	r3, r3, #8, #4
 80016cc:	f88d 3013 	strb.w	r3, [sp, #19]
 80016d0:	f000 bf4f 	b.w	8002572 <PMB_Emulator_Run+0x1ada>
 80016d4:	f8b2 205e 	ldrh.w	r2, [r2, #94]	; 0x5e
 80016d8:	f88d 2010 	strb.w	r2, [sp, #16]
 80016dc:	f3c2 2203 	ubfx	r2, r2, #8, #4
 80016e0:	f88d 2011 	strb.w	r2, [sp, #17]
 80016e4:	f8b3 2060 	ldrh.w	r2, [r3, #96]	; 0x60
 80016e8:	f8b3 3062 	ldrh.w	r3, [r3, #98]	; 0x62
 80016ec:	f88d 2012 	strb.w	r2, [sp, #18]
 80016f0:	f88d 3014 	strb.w	r3, [sp, #20]
 80016f4:	f3c2 2203 	ubfx	r2, r2, #8, #4
 80016f8:	f3c3 2303 	ubfx	r3, r3, #8, #4
 80016fc:	f88d 2013 	strb.w	r2, [sp, #19]
 8001700:	f88d 3015 	strb.w	r3, [sp, #21]
 8001704:	f000 bf35 	b.w	8002572 <PMB_Emulator_Run+0x1ada>
 8001708:	f8b2 2064 	ldrh.w	r2, [r2, #100]	; 0x64
 800170c:	f88d 2010 	strb.w	r2, [sp, #16]
 8001710:	f3c2 2203 	ubfx	r2, r2, #8, #4
 8001714:	f88d 2011 	strb.w	r2, [sp, #17]
 8001718:	f8b3 2066 	ldrh.w	r2, [r3, #102]	; 0x66
 800171c:	f8b3 3068 	ldrh.w	r3, [r3, #104]	; 0x68
 8001720:	f88d 2012 	strb.w	r2, [sp, #18]
 8001724:	f88d 3014 	strb.w	r3, [sp, #20]
 8001728:	f3c2 2203 	ubfx	r2, r2, #8, #4
 800172c:	f3c3 2303 	ubfx	r3, r3, #8, #4
 8001730:	f88d 2013 	strb.w	r2, [sp, #19]
 8001734:	f88d 3015 	strb.w	r3, [sp, #21]
 8001738:	f000 bf1b 	b.w	8002572 <PMB_Emulator_Run+0x1ada>
 800173c:	f8b2 206a 	ldrh.w	r2, [r2, #106]	; 0x6a
 8001740:	f8b3 306c 	ldrh.w	r3, [r3, #108]	; 0x6c
 8001744:	f88d 2010 	strb.w	r2, [sp, #16]
 8001748:	f88d 3012 	strb.w	r3, [sp, #18]
 800174c:	f3c2 2203 	ubfx	r2, r2, #8, #4
 8001750:	f3c3 2303 	ubfx	r3, r3, #8, #4
 8001754:	f88d 2011 	strb.w	r2, [sp, #17]
 8001758:	f88d 3013 	strb.w	r3, [sp, #19]
 800175c:	f000 bf09 	b.w	8002572 <PMB_Emulator_Run+0x1ada>
 8001760:	f8b2 3072 	ldrh.w	r3, [r2, #114]	; 0x72
 8001764:	f88d 3010 	strb.w	r3, [sp, #16]
 8001768:	f3c3 2303 	ubfx	r3, r3, #8, #4
 800176c:	f88d 3011 	strb.w	r3, [sp, #17]
 8001770:	f8b2 3074 	ldrh.w	r3, [r2, #116]	; 0x74
 8001774:	f88d 3012 	strb.w	r3, [sp, #18]
 8001778:	f3c3 2303 	ubfx	r3, r3, #8, #4
 800177c:	f88d 3013 	strb.w	r3, [sp, #19]
 8001780:	f000 bef7 	b.w	8002572 <PMB_Emulator_Run+0x1ada>
 8001784:	f8b2 2076 	ldrh.w	r2, [r2, #118]	; 0x76
 8001788:	f8b3 3078 	ldrh.w	r3, [r3, #120]	; 0x78
 800178c:	f88d 2010 	strb.w	r2, [sp, #16]
 8001790:	f88d 3012 	strb.w	r3, [sp, #18]
 8001794:	f3c2 2203 	ubfx	r2, r2, #8, #4
 8001798:	f3c3 2303 	ubfx	r3, r3, #8, #4
 800179c:	f88d 2011 	strb.w	r2, [sp, #17]
 80017a0:	f88d 3013 	strb.w	r3, [sp, #19]
 80017a4:	f000 bee5 	b.w	8002572 <PMB_Emulator_Run+0x1ada>
 80017a8:	f8b2 207a 	ldrh.w	r2, [r2, #122]	; 0x7a
 80017ac:	f8b3 307c 	ldrh.w	r3, [r3, #124]	; 0x7c
 80017b0:	f88d 2010 	strb.w	r2, [sp, #16]
 80017b4:	f88d 3012 	strb.w	r3, [sp, #18]
 80017b8:	f3c2 2203 	ubfx	r2, r2, #8, #4
 80017bc:	f3c3 2303 	ubfx	r3, r3, #8, #4
 80017c0:	f88d 2011 	strb.w	r2, [sp, #17]
 80017c4:	f88d 3013 	strb.w	r3, [sp, #19]
 80017c8:	f000 bed3 	b.w	8002572 <PMB_Emulator_Run+0x1ada>
 80017cc:	1ffe8b51 	.word	0x1ffe8b51
 80017d0:	f892 207e 	ldrb.w	r2, [r2, #126]	; 0x7e
 80017d4:	f88d 2010 	strb.w	r2, [sp, #16]
 80017d8:	f893 207f 	ldrb.w	r2, [r3, #127]	; 0x7f
 80017dc:	f893 3080 	ldrb.w	r3, [r3, #128]	; 0x80
 80017e0:	f88d 2011 	strb.w	r2, [sp, #17]
 80017e4:	f88d 3012 	strb.w	r3, [sp, #18]
 80017e8:	f000 bec3 	b.w	8002572 <PMB_Emulator_Run+0x1ada>
 80017ec:	f892 3084 	ldrb.w	r3, [r2, #132]	; 0x84
 80017f0:	f88d 3010 	strb.w	r3, [sp, #16]
 80017f4:	f892 3085 	ldrb.w	r3, [r2, #133]	; 0x85
 80017f8:	f88d 3011 	strb.w	r3, [sp, #17]
 80017fc:	f000 beb9 	b.w	8002572 <PMB_Emulator_Run+0x1ada>
 8001800:	f892 2086 	ldrb.w	r2, [r2, #134]	; 0x86
 8001804:	f893 3087 	ldrb.w	r3, [r3, #135]	; 0x87
 8001808:	f88d 2010 	strb.w	r2, [sp, #16]
 800180c:	f88d 3011 	strb.w	r3, [sp, #17]
 8001810:	f000 beaf 	b.w	8002572 <PMB_Emulator_Run+0x1ada>
 8001814:	f892 3088 	ldrb.w	r3, [r2, #136]	; 0x88
 8001818:	f88d 3010 	strb.w	r3, [sp, #16]
 800181c:	f000 bea9 	b.w	8002572 <PMB_Emulator_Run+0x1ada>
 8001820:	f892 2089 	ldrb.w	r2, [r2, #137]	; 0x89
 8001824:	f88d 2010 	strb.w	r2, [sp, #16]
 8001828:	f893 208a 	ldrb.w	r2, [r3, #138]	; 0x8a
 800182c:	f893 308b 	ldrb.w	r3, [r3, #139]	; 0x8b
 8001830:	f88d 2011 	strb.w	r2, [sp, #17]
 8001834:	f88d 3012 	strb.w	r3, [sp, #18]
 8001838:	f000 be9b 	b.w	8002572 <PMB_Emulator_Run+0x1ada>
 800183c:	f892 3090 	ldrb.w	r3, [r2, #144]	; 0x90
 8001840:	f88d 3010 	strb.w	r3, [sp, #16]
 8001844:	f000 be95 	b.w	8002572 <PMB_Emulator_Run+0x1ada>
 8001848:	f8b2 2094 	ldrh.w	r2, [r2, #148]	; 0x94
 800184c:	f88d 2010 	strb.w	r2, [sp, #16]
 8001850:	0a12      	lsrs	r2, r2, #8
 8001852:	f88d 2011 	strb.w	r2, [sp, #17]
 8001856:	f8b3 2096 	ldrh.w	r2, [r3, #150]	; 0x96
 800185a:	f8b3 3098 	ldrh.w	r3, [r3, #152]	; 0x98
 800185e:	f88d 2012 	strb.w	r2, [sp, #18]
 8001862:	f88d 3014 	strb.w	r3, [sp, #20]
 8001866:	0a12      	lsrs	r2, r2, #8
 8001868:	0a1b      	lsrs	r3, r3, #8
 800186a:	f88d 2013 	strb.w	r2, [sp, #19]
 800186e:	f88d 3015 	strb.w	r3, [sp, #21]
 8001872:	f000 be7e 	b.w	8002572 <PMB_Emulator_Run+0x1ada>
 8001876:	f8b2 209a 	ldrh.w	r2, [r2, #154]	; 0x9a
 800187a:	f88d 2010 	strb.w	r2, [sp, #16]
 800187e:	0a12      	lsrs	r2, r2, #8
 8001880:	f88d 2011 	strb.w	r2, [sp, #17]
 8001884:	f8b3 209c 	ldrh.w	r2, [r3, #156]	; 0x9c
 8001888:	f8b3 309e 	ldrh.w	r3, [r3, #158]	; 0x9e
 800188c:	f88d 2012 	strb.w	r2, [sp, #18]
 8001890:	f88d 3014 	strb.w	r3, [sp, #20]
 8001894:	0a12      	lsrs	r2, r2, #8
 8001896:	0a1b      	lsrs	r3, r3, #8
 8001898:	f88d 2013 	strb.w	r2, [sp, #19]
 800189c:	f88d 3015 	strb.w	r3, [sp, #21]
 80018a0:	f000 be67 	b.w	8002572 <PMB_Emulator_Run+0x1ada>
 80018a4:	f8b2 30a6 	ldrh.w	r3, [r2, #166]	; 0xa6
 80018a8:	f88d 3010 	strb.w	r3, [sp, #16]
 80018ac:	0a1b      	lsrs	r3, r3, #8
 80018ae:	f88d 3011 	strb.w	r3, [sp, #17]
 80018b2:	f8b2 30a8 	ldrh.w	r3, [r2, #168]	; 0xa8
 80018b6:	f88d 3012 	strb.w	r3, [sp, #18]
 80018ba:	0a1b      	lsrs	r3, r3, #8
 80018bc:	f88d 3013 	strb.w	r3, [sp, #19]
 80018c0:	f8b2 30aa 	ldrh.w	r3, [r2, #170]	; 0xaa
 80018c4:	f88d 3014 	strb.w	r3, [sp, #20]
 80018c8:	0a1b      	lsrs	r3, r3, #8
 80018ca:	f88d 3015 	strb.w	r3, [sp, #21]
 80018ce:	f000 be50 	b.w	8002572 <PMB_Emulator_Run+0x1ada>
 80018d2:	f8b2 20ac 	ldrh.w	r2, [r2, #172]	; 0xac
 80018d6:	f88d 2010 	strb.w	r2, [sp, #16]
 80018da:	0a12      	lsrs	r2, r2, #8
 80018dc:	f88d 2011 	strb.w	r2, [sp, #17]
 80018e0:	f8b3 20ae 	ldrh.w	r2, [r3, #174]	; 0xae
 80018e4:	f8b3 30b0 	ldrh.w	r3, [r3, #176]	; 0xb0
 80018e8:	f88d 2012 	strb.w	r2, [sp, #18]
 80018ec:	f88d 3014 	strb.w	r3, [sp, #20]
 80018f0:	0a12      	lsrs	r2, r2, #8
 80018f2:	0a1b      	lsrs	r3, r3, #8
 80018f4:	f88d 2013 	strb.w	r2, [sp, #19]
 80018f8:	f88d 3015 	strb.w	r3, [sp, #21]
 80018fc:	f000 be39 	b.w	8002572 <PMB_Emulator_Run+0x1ada>
 8001900:	f8b2 20b2 	ldrh.w	r2, [r2, #178]	; 0xb2
 8001904:	f8b3 30b4 	ldrh.w	r3, [r3, #180]	; 0xb4
 8001908:	f88d 2010 	strb.w	r2, [sp, #16]
 800190c:	f88d 3012 	strb.w	r3, [sp, #18]
 8001910:	0a12      	lsrs	r2, r2, #8
 8001912:	0a1b      	lsrs	r3, r3, #8
 8001914:	f88d 2011 	strb.w	r2, [sp, #17]
 8001918:	f88d 3013 	strb.w	r3, [sp, #19]
 800191c:	f000 be29 	b.w	8002572 <PMB_Emulator_Run+0x1ada>
 8001920:	f8b2 20b6 	ldrh.w	r2, [r2, #182]	; 0xb6
 8001924:	f8b3 30b8 	ldrh.w	r3, [r3, #184]	; 0xb8
 8001928:	f88d 2010 	strb.w	r2, [sp, #16]
 800192c:	f88d 3012 	strb.w	r3, [sp, #18]
 8001930:	0a12      	lsrs	r2, r2, #8
 8001932:	0a1b      	lsrs	r3, r3, #8
 8001934:	f88d 2011 	strb.w	r2, [sp, #17]
 8001938:	f88d 3013 	strb.w	r3, [sp, #19]
 800193c:	f000 be19 	b.w	8002572 <PMB_Emulator_Run+0x1ada>
 8001940:	f8b2 30be 	ldrh.w	r3, [r2, #190]	; 0xbe
 8001944:	f88d 3010 	strb.w	r3, [sp, #16]
 8001948:	0a1b      	lsrs	r3, r3, #8
 800194a:	f88d 3011 	strb.w	r3, [sp, #17]
 800194e:	f8b2 30c0 	ldrh.w	r3, [r2, #192]	; 0xc0
 8001952:	f88d 3012 	strb.w	r3, [sp, #18]
 8001956:	0a1b      	lsrs	r3, r3, #8
 8001958:	f88d 3013 	strb.w	r3, [sp, #19]
 800195c:	f000 be09 	b.w	8002572 <PMB_Emulator_Run+0x1ada>
 8001960:	f8b2 20c2 	ldrh.w	r2, [r2, #194]	; 0xc2
 8001964:	f8b3 30c4 	ldrh.w	r3, [r3, #196]	; 0xc4
 8001968:	f88d 2010 	strb.w	r2, [sp, #16]
 800196c:	f88d 3012 	strb.w	r3, [sp, #18]
 8001970:	0a12      	lsrs	r2, r2, #8
 8001972:	0a1b      	lsrs	r3, r3, #8
 8001974:	f88d 2011 	strb.w	r2, [sp, #17]
 8001978:	f88d 3013 	strb.w	r3, [sp, #19]
 800197c:	f000 bdf9 	b.w	8002572 <PMB_Emulator_Run+0x1ada>
 8001980:	f8b2 20c6 	ldrh.w	r2, [r2, #198]	; 0xc6
 8001984:	f88d 2010 	strb.w	r2, [sp, #16]
 8001988:	0a12      	lsrs	r2, r2, #8
 800198a:	f88d 2011 	strb.w	r2, [sp, #17]
 800198e:	f8b3 20c8 	ldrh.w	r2, [r3, #200]	; 0xc8
 8001992:	f8b3 30ca 	ldrh.w	r3, [r3, #202]	; 0xca
 8001996:	f88d 2012 	strb.w	r2, [sp, #18]
 800199a:	f88d 3014 	strb.w	r3, [sp, #20]
 800199e:	0a12      	lsrs	r2, r2, #8
 80019a0:	0a1b      	lsrs	r3, r3, #8
 80019a2:	f88d 2013 	strb.w	r2, [sp, #19]
 80019a6:	f88d 3015 	strb.w	r3, [sp, #21]
 80019aa:	f000 bde2 	b.w	8002572 <PMB_Emulator_Run+0x1ada>
 80019ae:	f8b2 20cc 	ldrh.w	r2, [r2, #204]	; 0xcc
 80019b2:	f88d 2010 	strb.w	r2, [sp, #16]
 80019b6:	0a12      	lsrs	r2, r2, #8
 80019b8:	f88d 2011 	strb.w	r2, [sp, #17]
 80019bc:	f8b3 20ce 	ldrh.w	r2, [r3, #206]	; 0xce
 80019c0:	f8b3 30d0 	ldrh.w	r3, [r3, #208]	; 0xd0
 80019c4:	f88d 2012 	strb.w	r2, [sp, #18]
 80019c8:	f88d 3014 	strb.w	r3, [sp, #20]
 80019cc:	0a12      	lsrs	r2, r2, #8
 80019ce:	0a1b      	lsrs	r3, r3, #8
 80019d0:	f88d 2013 	strb.w	r2, [sp, #19]
 80019d4:	f88d 3015 	strb.w	r3, [sp, #21]
 80019d8:	f000 bdcb 	b.w	8002572 <PMB_Emulator_Run+0x1ada>
 80019dc:	f8b2 30d6 	ldrh.w	r3, [r2, #214]	; 0xd6
 80019e0:	f88d 3010 	strb.w	r3, [sp, #16]
 80019e4:	0a1b      	lsrs	r3, r3, #8
 80019e6:	f88d 3011 	strb.w	r3, [sp, #17]
 80019ea:	f8b2 30d8 	ldrh.w	r3, [r2, #216]	; 0xd8
 80019ee:	f88d 3012 	strb.w	r3, [sp, #18]
 80019f2:	0a1b      	lsrs	r3, r3, #8
 80019f4:	f88d 3013 	strb.w	r3, [sp, #19]
 80019f8:	f000 bdbb 	b.w	8002572 <PMB_Emulator_Run+0x1ada>
 80019fc:	f8b2 20da 	ldrh.w	r2, [r2, #218]	; 0xda
 8001a00:	f8b3 30dc 	ldrh.w	r3, [r3, #220]	; 0xdc
 8001a04:	f88d 2010 	strb.w	r2, [sp, #16]
 8001a08:	f88d 3012 	strb.w	r3, [sp, #18]
 8001a0c:	0a12      	lsrs	r2, r2, #8
 8001a0e:	0a1b      	lsrs	r3, r3, #8
 8001a10:	f88d 2011 	strb.w	r2, [sp, #17]
 8001a14:	f88d 3013 	strb.w	r3, [sp, #19]
 8001a18:	f000 bdab 	b.w	8002572 <PMB_Emulator_Run+0x1ada>
 8001a1c:	f8b2 20de 	ldrh.w	r2, [r2, #222]	; 0xde
 8001a20:	f8b3 30e0 	ldrh.w	r3, [r3, #224]	; 0xe0
 8001a24:	f88d 2010 	strb.w	r2, [sp, #16]
 8001a28:	f88d 3012 	strb.w	r3, [sp, #18]
 8001a2c:	0a12      	lsrs	r2, r2, #8
 8001a2e:	0a1b      	lsrs	r3, r3, #8
 8001a30:	f88d 2011 	strb.w	r2, [sp, #17]
 8001a34:	f88d 3013 	strb.w	r3, [sp, #19]
 8001a38:	f000 bd9b 	b.w	8002572 <PMB_Emulator_Run+0x1ada>
 8001a3c:	f8b2 20e2 	ldrh.w	r2, [r2, #226]	; 0xe2
 8001a40:	f8b3 30e4 	ldrh.w	r3, [r3, #228]	; 0xe4
 8001a44:	f88d 2010 	strb.w	r2, [sp, #16]
 8001a48:	f88d 3012 	strb.w	r3, [sp, #18]
 8001a4c:	0a12      	lsrs	r2, r2, #8
 8001a4e:	0a1b      	lsrs	r3, r3, #8
 8001a50:	f88d 2011 	strb.w	r2, [sp, #17]
 8001a54:	f88d 3013 	strb.w	r3, [sp, #19]
 8001a58:	f000 bd8b 	b.w	8002572 <PMB_Emulator_Run+0x1ada>
 8001a5c:	f8b2 30ea 	ldrh.w	r3, [r2, #234]	; 0xea
 8001a60:	f88d 3010 	strb.w	r3, [sp, #16]
 8001a64:	0a1b      	lsrs	r3, r3, #8
 8001a66:	f88d 3011 	strb.w	r3, [sp, #17]
 8001a6a:	f8b2 30ec 	ldrh.w	r3, [r2, #236]	; 0xec
 8001a6e:	f88d 3012 	strb.w	r3, [sp, #18]
 8001a72:	0a1b      	lsrs	r3, r3, #8
 8001a74:	f88d 3013 	strb.w	r3, [sp, #19]
 8001a78:	f000 bd7b 	b.w	8002572 <PMB_Emulator_Run+0x1ada>
 8001a7c:	f8b2 20ee 	ldrh.w	r2, [r2, #238]	; 0xee
 8001a80:	f8b3 30f0 	ldrh.w	r3, [r3, #240]	; 0xf0
 8001a84:	f88d 2010 	strb.w	r2, [sp, #16]
 8001a88:	f88d 3012 	strb.w	r3, [sp, #18]
 8001a8c:	0a12      	lsrs	r2, r2, #8
 8001a8e:	0a1b      	lsrs	r3, r3, #8
 8001a90:	f88d 2011 	strb.w	r2, [sp, #17]
 8001a94:	f88d 3013 	strb.w	r3, [sp, #19]
 8001a98:	f000 bd6b 	b.w	8002572 <PMB_Emulator_Run+0x1ada>
 8001a9c:	f8b2 20f2 	ldrh.w	r2, [r2, #242]	; 0xf2
 8001aa0:	f88d 2010 	strb.w	r2, [sp, #16]
 8001aa4:	0a12      	lsrs	r2, r2, #8
 8001aa6:	f88d 2011 	strb.w	r2, [sp, #17]
 8001aaa:	f8b3 20f4 	ldrh.w	r2, [r3, #244]	; 0xf4
 8001aae:	f8b3 30f6 	ldrh.w	r3, [r3, #246]	; 0xf6
 8001ab2:	f88d 2012 	strb.w	r2, [sp, #18]
 8001ab6:	f88d 3014 	strb.w	r3, [sp, #20]
 8001aba:	0a12      	lsrs	r2, r2, #8
 8001abc:	0a1b      	lsrs	r3, r3, #8
 8001abe:	f88d 2013 	strb.w	r2, [sp, #19]
 8001ac2:	f88d 3015 	strb.w	r3, [sp, #21]
 8001ac6:	f000 bd54 	b.w	8002572 <PMB_Emulator_Run+0x1ada>
 8001aca:	f8b2 20f8 	ldrh.w	r2, [r2, #248]	; 0xf8
 8001ace:	f88d 2010 	strb.w	r2, [sp, #16]
 8001ad2:	0a12      	lsrs	r2, r2, #8
 8001ad4:	f88d 2011 	strb.w	r2, [sp, #17]
 8001ad8:	f8b3 20fa 	ldrh.w	r2, [r3, #250]	; 0xfa
 8001adc:	f8b3 30fc 	ldrh.w	r3, [r3, #252]	; 0xfc
 8001ae0:	f88d 2012 	strb.w	r2, [sp, #18]
 8001ae4:	f88d 3014 	strb.w	r3, [sp, #20]
 8001ae8:	0a12      	lsrs	r2, r2, #8
 8001aea:	0a1b      	lsrs	r3, r3, #8
 8001aec:	f88d 2013 	strb.w	r2, [sp, #19]
 8001af0:	f88d 3015 	strb.w	r3, [sp, #21]
 8001af4:	f000 bd3d 	b.w	8002572 <PMB_Emulator_Run+0x1ada>
 8001af8:	f8b2 3102 	ldrh.w	r3, [r2, #258]	; 0x102
 8001afc:	f88d 3010 	strb.w	r3, [sp, #16]
 8001b00:	0a1b      	lsrs	r3, r3, #8
 8001b02:	f88d 3011 	strb.w	r3, [sp, #17]
 8001b06:	f8b2 3104 	ldrh.w	r3, [r2, #260]	; 0x104
 8001b0a:	f88d 3012 	strb.w	r3, [sp, #18]
 8001b0e:	0a1b      	lsrs	r3, r3, #8
 8001b10:	f88d 3013 	strb.w	r3, [sp, #19]
 8001b14:	f000 bd2d 	b.w	8002572 <PMB_Emulator_Run+0x1ada>
 8001b18:	f8b2 2106 	ldrh.w	r2, [r2, #262]	; 0x106
 8001b1c:	f8b3 3108 	ldrh.w	r3, [r3, #264]	; 0x108
 8001b20:	f88d 2010 	strb.w	r2, [sp, #16]
 8001b24:	f88d 3012 	strb.w	r3, [sp, #18]
 8001b28:	0a12      	lsrs	r2, r2, #8
 8001b2a:	0a1b      	lsrs	r3, r3, #8
 8001b2c:	f88d 2011 	strb.w	r2, [sp, #17]
 8001b30:	f88d 3013 	strb.w	r3, [sp, #19]
 8001b34:	f000 bd1d 	b.w	8002572 <PMB_Emulator_Run+0x1ada>
 8001b38:	f8b2 210a 	ldrh.w	r2, [r2, #266]	; 0x10a
 8001b3c:	f8b3 310c 	ldrh.w	r3, [r3, #268]	; 0x10c
 8001b40:	f88d 2010 	strb.w	r2, [sp, #16]
 8001b44:	f88d 3012 	strb.w	r3, [sp, #18]
 8001b48:	0a12      	lsrs	r2, r2, #8
 8001b4a:	0a1b      	lsrs	r3, r3, #8
 8001b4c:	f88d 2011 	strb.w	r2, [sp, #17]
 8001b50:	f88d 3013 	strb.w	r3, [sp, #19]
 8001b54:	f000 bd0d 	b.w	8002572 <PMB_Emulator_Run+0x1ada>
 8001b58:	f8b2 210e 	ldrh.w	r2, [r2, #270]	; 0x10e
 8001b5c:	f8b3 3110 	ldrh.w	r3, [r3, #272]	; 0x110
 8001b60:	f88d 2010 	strb.w	r2, [sp, #16]
 8001b64:	f88d 3012 	strb.w	r3, [sp, #18]
 8001b68:	0a12      	lsrs	r2, r2, #8
 8001b6a:	0a1b      	lsrs	r3, r3, #8
 8001b6c:	f88d 2011 	strb.w	r2, [sp, #17]
 8001b70:	f88d 3013 	strb.w	r3, [sp, #19]
 8001b74:	f000 bcfd 	b.w	8002572 <PMB_Emulator_Run+0x1ada>
 8001b78:	f8b2 3118 	ldrh.w	r3, [r2, #280]	; 0x118
 8001b7c:	f88d 3010 	strb.w	r3, [sp, #16]
 8001b80:	0a1b      	lsrs	r3, r3, #8
 8001b82:	f88d 3011 	strb.w	r3, [sp, #17]
 8001b86:	f8b2 311a 	ldrh.w	r3, [r2, #282]	; 0x11a
 8001b8a:	f88d 3012 	strb.w	r3, [sp, #18]
 8001b8e:	0a1b      	lsrs	r3, r3, #8
 8001b90:	f88d 3013 	strb.w	r3, [sp, #19]
 8001b94:	f8b2 311c 	ldrh.w	r3, [r2, #284]	; 0x11c
 8001b98:	f88d 3014 	strb.w	r3, [sp, #20]
 8001b9c:	0a1b      	lsrs	r3, r3, #8
 8001b9e:	f88d 3015 	strb.w	r3, [sp, #21]
 8001ba2:	f000 bce6 	b.w	8002572 <PMB_Emulator_Run+0x1ada>
 8001ba6:	f8b2 211e 	ldrh.w	r2, [r2, #286]	; 0x11e
 8001baa:	f88d 2010 	strb.w	r2, [sp, #16]
 8001bae:	0a12      	lsrs	r2, r2, #8
 8001bb0:	f88d 2011 	strb.w	r2, [sp, #17]
 8001bb4:	f8b3 2120 	ldrh.w	r2, [r3, #288]	; 0x120
 8001bb8:	f8b3 3122 	ldrh.w	r3, [r3, #290]	; 0x122
 8001bbc:	f88d 2012 	strb.w	r2, [sp, #18]
 8001bc0:	f88d 3014 	strb.w	r3, [sp, #20]
 8001bc4:	0a12      	lsrs	r2, r2, #8
 8001bc6:	0a1b      	lsrs	r3, r3, #8
 8001bc8:	f88d 2013 	strb.w	r2, [sp, #19]
 8001bcc:	f88d 3015 	strb.w	r3, [sp, #21]
 8001bd0:	f000 bccf 	b.w	8002572 <PMB_Emulator_Run+0x1ada>
 8001bd4:	f8b2 2124 	ldrh.w	r2, [r2, #292]	; 0x124
 8001bd8:	f88d 2010 	strb.w	r2, [sp, #16]
 8001bdc:	0a12      	lsrs	r2, r2, #8
 8001bde:	f88d 2011 	strb.w	r2, [sp, #17]
 8001be2:	f8b3 2126 	ldrh.w	r2, [r3, #294]	; 0x126
 8001be6:	f8b3 3128 	ldrh.w	r3, [r3, #296]	; 0x128
 8001bea:	f88d 2012 	strb.w	r2, [sp, #18]
 8001bee:	f88d 3014 	strb.w	r3, [sp, #20]
 8001bf2:	0a12      	lsrs	r2, r2, #8
 8001bf4:	0a1b      	lsrs	r3, r3, #8
 8001bf6:	f88d 2013 	strb.w	r2, [sp, #19]
 8001bfa:	f88d 3015 	strb.w	r3, [sp, #21]
 8001bfe:	f000 bcb8 	b.w	8002572 <PMB_Emulator_Run+0x1ada>
 8001c02:	f8b2 212a 	ldrh.w	r2, [r2, #298]	; 0x12a
 8001c06:	f88d 2010 	strb.w	r2, [sp, #16]
 8001c0a:	0a12      	lsrs	r2, r2, #8
 8001c0c:	f88d 2011 	strb.w	r2, [sp, #17]
 8001c10:	f8b3 212c 	ldrh.w	r2, [r3, #300]	; 0x12c
 8001c14:	f8b3 312e 	ldrh.w	r3, [r3, #302]	; 0x12e
 8001c18:	f88d 2012 	strb.w	r2, [sp, #18]
 8001c1c:	f88d 3014 	strb.w	r3, [sp, #20]
 8001c20:	0a12      	lsrs	r2, r2, #8
 8001c22:	0a1b      	lsrs	r3, r3, #8
 8001c24:	f88d 2013 	strb.w	r2, [sp, #19]
 8001c28:	f88d 3015 	strb.w	r3, [sp, #21]
 8001c2c:	f000 bca1 	b.w	8002572 <PMB_Emulator_Run+0x1ada>
 8001c30:	f8b2 3134 	ldrh.w	r3, [r2, #308]	; 0x134
 8001c34:	f88d 3010 	strb.w	r3, [sp, #16]
 8001c38:	0a1b      	lsrs	r3, r3, #8
 8001c3a:	f88d 3011 	strb.w	r3, [sp, #17]
 8001c3e:	f8b2 3136 	ldrh.w	r3, [r2, #310]	; 0x136
 8001c42:	f88d 3012 	strb.w	r3, [sp, #18]
 8001c46:	0a1b      	lsrs	r3, r3, #8
 8001c48:	f88d 3013 	strb.w	r3, [sp, #19]
 8001c4c:	f000 bc91 	b.w	8002572 <PMB_Emulator_Run+0x1ada>
 8001c50:	f8b2 2138 	ldrh.w	r2, [r2, #312]	; 0x138
 8001c54:	f8b3 313a 	ldrh.w	r3, [r3, #314]	; 0x13a
 8001c58:	f88d 2010 	strb.w	r2, [sp, #16]
 8001c5c:	f88d 3012 	strb.w	r3, [sp, #18]
 8001c60:	0a12      	lsrs	r2, r2, #8
 8001c62:	0a1b      	lsrs	r3, r3, #8
 8001c64:	f88d 2011 	strb.w	r2, [sp, #17]
 8001c68:	f88d 3013 	strb.w	r3, [sp, #19]
 8001c6c:	f000 bc81 	b.w	8002572 <PMB_Emulator_Run+0x1ada>
 8001c70:	f8b2 213c 	ldrh.w	r2, [r2, #316]	; 0x13c
 8001c74:	f8b3 313e 	ldrh.w	r3, [r3, #318]	; 0x13e
 8001c78:	f88d 2010 	strb.w	r2, [sp, #16]
 8001c7c:	f88d 3012 	strb.w	r3, [sp, #18]
 8001c80:	0a12      	lsrs	r2, r2, #8
 8001c82:	0a1b      	lsrs	r3, r3, #8
 8001c84:	f88d 2011 	strb.w	r2, [sp, #17]
 8001c88:	f88d 3013 	strb.w	r3, [sp, #19]
 8001c8c:	f000 bc71 	b.w	8002572 <PMB_Emulator_Run+0x1ada>
 8001c90:	f8b2 2140 	ldrh.w	r2, [r2, #320]	; 0x140
 8001c94:	f8b3 3142 	ldrh.w	r3, [r3, #322]	; 0x142
 8001c98:	f88d 2010 	strb.w	r2, [sp, #16]
 8001c9c:	f88d 3012 	strb.w	r3, [sp, #18]
 8001ca0:	0a12      	lsrs	r2, r2, #8
 8001ca2:	0a1b      	lsrs	r3, r3, #8
 8001ca4:	f88d 2011 	strb.w	r2, [sp, #17]
 8001ca8:	f88d 3013 	strb.w	r3, [sp, #19]
 8001cac:	f000 bc61 	b.w	8002572 <PMB_Emulator_Run+0x1ada>
 8001cb0:	f8b2 314a 	ldrh.w	r3, [r2, #330]	; 0x14a
 8001cb4:	f88d 3010 	strb.w	r3, [sp, #16]
 8001cb8:	0a1b      	lsrs	r3, r3, #8
 8001cba:	f88d 3011 	strb.w	r3, [sp, #17]
 8001cbe:	f8b2 314c 	ldrh.w	r3, [r2, #332]	; 0x14c
 8001cc2:	f88d 3012 	strb.w	r3, [sp, #18]
 8001cc6:	0a1b      	lsrs	r3, r3, #8
 8001cc8:	f88d 3013 	strb.w	r3, [sp, #19]
 8001ccc:	f8b2 314e 	ldrh.w	r3, [r2, #334]	; 0x14e
 8001cd0:	f88d 3014 	strb.w	r3, [sp, #20]
 8001cd4:	0a1b      	lsrs	r3, r3, #8
 8001cd6:	f88d 3015 	strb.w	r3, [sp, #21]
 8001cda:	f000 bc4a 	b.w	8002572 <PMB_Emulator_Run+0x1ada>
 8001cde:	f8b2 2150 	ldrh.w	r2, [r2, #336]	; 0x150
 8001ce2:	f8b3 3152 	ldrh.w	r3, [r3, #338]	; 0x152
 8001ce6:	f88d 2010 	strb.w	r2, [sp, #16]
 8001cea:	f88d 3012 	strb.w	r3, [sp, #18]
 8001cee:	0a12      	lsrs	r2, r2, #8
 8001cf0:	0a1b      	lsrs	r3, r3, #8
 8001cf2:	f88d 2011 	strb.w	r2, [sp, #17]
 8001cf6:	f88d 3013 	strb.w	r3, [sp, #19]
 8001cfa:	f000 bc3a 	b.w	8002572 <PMB_Emulator_Run+0x1ada>
 8001cfe:	f8b2 2158 	ldrh.w	r2, [r2, #344]	; 0x158
 8001d02:	f8b3 315a 	ldrh.w	r3, [r3, #346]	; 0x15a
 8001d06:	f88d 2010 	strb.w	r2, [sp, #16]
 8001d0a:	f88d 3012 	strb.w	r3, [sp, #18]
 8001d0e:	0a12      	lsrs	r2, r2, #8
 8001d10:	0a1b      	lsrs	r3, r3, #8
 8001d12:	f88d 2011 	strb.w	r2, [sp, #17]
 8001d16:	f88d 3013 	strb.w	r3, [sp, #19]
 8001d1a:	f000 bc2a 	b.w	8002572 <PMB_Emulator_Run+0x1ada>
 8001d1e:	f8b2 215c 	ldrh.w	r2, [r2, #348]	; 0x15c
 8001d22:	f8b3 315e 	ldrh.w	r3, [r3, #350]	; 0x15e
 8001d26:	f88d 2010 	strb.w	r2, [sp, #16]
 8001d2a:	f88d 3012 	strb.w	r3, [sp, #18]
 8001d2e:	0a12      	lsrs	r2, r2, #8
 8001d30:	0a1b      	lsrs	r3, r3, #8
 8001d32:	f88d 2011 	strb.w	r2, [sp, #17]
 8001d36:	f88d 3013 	strb.w	r3, [sp, #19]
 8001d3a:	f000 bc1a 	b.w	8002572 <PMB_Emulator_Run+0x1ada>
 8001d3e:	f8b2 3164 	ldrh.w	r3, [r2, #356]	; 0x164
 8001d42:	f88d 3010 	strb.w	r3, [sp, #16]
 8001d46:	0a1b      	lsrs	r3, r3, #8
 8001d48:	f88d 3011 	strb.w	r3, [sp, #17]
 8001d4c:	f8b2 3166 	ldrh.w	r3, [r2, #358]	; 0x166
 8001d50:	f88d 3012 	strb.w	r3, [sp, #18]
 8001d54:	0a1b      	lsrs	r3, r3, #8
 8001d56:	f88d 3013 	strb.w	r3, [sp, #19]
 8001d5a:	f000 bc0a 	b.w	8002572 <PMB_Emulator_Run+0x1ada>
 8001d5e:	f8b2 2168 	ldrh.w	r2, [r2, #360]	; 0x168
 8001d62:	f8b3 316a 	ldrh.w	r3, [r3, #362]	; 0x16a
 8001d66:	f88d 2010 	strb.w	r2, [sp, #16]
 8001d6a:	f88d 3012 	strb.w	r3, [sp, #18]
 8001d6e:	0a12      	lsrs	r2, r2, #8
 8001d70:	0a1b      	lsrs	r3, r3, #8
 8001d72:	f88d 2011 	strb.w	r2, [sp, #17]
 8001d76:	f88d 3013 	strb.w	r3, [sp, #19]
 8001d7a:	e3fa      	b.n	8002572 <PMB_Emulator_Run+0x1ada>
 8001d7c:	f8b2 216c 	ldrh.w	r2, [r2, #364]	; 0x16c
 8001d80:	f8b3 316e 	ldrh.w	r3, [r3, #366]	; 0x16e
 8001d84:	f88d 2010 	strb.w	r2, [sp, #16]
 8001d88:	f88d 3012 	strb.w	r3, [sp, #18]
 8001d8c:	0a12      	lsrs	r2, r2, #8
 8001d8e:	0a1b      	lsrs	r3, r3, #8
 8001d90:	f88d 2011 	strb.w	r2, [sp, #17]
 8001d94:	f88d 3013 	strb.w	r3, [sp, #19]
 8001d98:	e3eb      	b.n	8002572 <PMB_Emulator_Run+0x1ada>
 8001d9a:	f8b2 2170 	ldrh.w	r2, [r2, #368]	; 0x170
 8001d9e:	f88d 2010 	strb.w	r2, [sp, #16]
 8001da2:	0a12      	lsrs	r2, r2, #8
 8001da4:	f88d 2011 	strb.w	r2, [sp, #17]
 8001da8:	f8b3 2172 	ldrh.w	r2, [r3, #370]	; 0x172
 8001dac:	f8b3 3174 	ldrh.w	r3, [r3, #372]	; 0x174
 8001db0:	f88d 2012 	strb.w	r2, [sp, #18]
 8001db4:	f88d 3014 	strb.w	r3, [sp, #20]
 8001db8:	0a12      	lsrs	r2, r2, #8
 8001dba:	0a1b      	lsrs	r3, r3, #8
 8001dbc:	f88d 2013 	strb.w	r2, [sp, #19]
 8001dc0:	f88d 3015 	strb.w	r3, [sp, #21]
 8001dc4:	e3d5      	b.n	8002572 <PMB_Emulator_Run+0x1ada>
 8001dc6:	f8b2 317c 	ldrh.w	r3, [r2, #380]	; 0x17c
 8001dca:	f88d 3010 	strb.w	r3, [sp, #16]
 8001dce:	0a1b      	lsrs	r3, r3, #8
 8001dd0:	f88d 3011 	strb.w	r3, [sp, #17]
 8001dd4:	f8b2 317e 	ldrh.w	r3, [r2, #382]	; 0x17e
 8001dd8:	f88d 3012 	strb.w	r3, [sp, #18]
 8001ddc:	0a1b      	lsrs	r3, r3, #8
 8001dde:	f88d 3013 	strb.w	r3, [sp, #19]
 8001de2:	e3c6      	b.n	8002572 <PMB_Emulator_Run+0x1ada>
 8001de4:	f8b2 2180 	ldrh.w	r2, [r2, #384]	; 0x180
 8001de8:	f8b3 3182 	ldrh.w	r3, [r3, #386]	; 0x182
 8001dec:	f88d 2010 	strb.w	r2, [sp, #16]
 8001df0:	f88d 3012 	strb.w	r3, [sp, #18]
 8001df4:	0a12      	lsrs	r2, r2, #8
 8001df6:	0a1b      	lsrs	r3, r3, #8
 8001df8:	f88d 2011 	strb.w	r2, [sp, #17]
 8001dfc:	f88d 3013 	strb.w	r3, [sp, #19]
 8001e00:	e3b7      	b.n	8002572 <PMB_Emulator_Run+0x1ada>
 8001e02:	f8b2 2184 	ldrh.w	r2, [r2, #388]	; 0x184
 8001e06:	f8b3 3186 	ldrh.w	r3, [r3, #390]	; 0x186
 8001e0a:	f88d 2010 	strb.w	r2, [sp, #16]
 8001e0e:	f88d 3012 	strb.w	r3, [sp, #18]
 8001e12:	0a12      	lsrs	r2, r2, #8
 8001e14:	0a1b      	lsrs	r3, r3, #8
 8001e16:	f88d 2011 	strb.w	r2, [sp, #17]
 8001e1a:	f88d 3013 	strb.w	r3, [sp, #19]
 8001e1e:	e3a8      	b.n	8002572 <PMB_Emulator_Run+0x1ada>
 8001e20:	f8b2 2188 	ldrh.w	r2, [r2, #392]	; 0x188
 8001e24:	f8b3 318a 	ldrh.w	r3, [r3, #394]	; 0x18a
 8001e28:	f88d 2010 	strb.w	r2, [sp, #16]
 8001e2c:	f88d 3012 	strb.w	r3, [sp, #18]
 8001e30:	0a12      	lsrs	r2, r2, #8
 8001e32:	0a1b      	lsrs	r3, r3, #8
 8001e34:	f88d 2011 	strb.w	r2, [sp, #17]
 8001e38:	f88d 3013 	strb.w	r3, [sp, #19]
 8001e3c:	e399      	b.n	8002572 <PMB_Emulator_Run+0x1ada>
 8001e3e:	f8b2 3190 	ldrh.w	r3, [r2, #400]	; 0x190
 8001e42:	f88d 3010 	strb.w	r3, [sp, #16]
 8001e46:	0a1b      	lsrs	r3, r3, #8
 8001e48:	f88d 3011 	strb.w	r3, [sp, #17]
 8001e4c:	f8b2 3192 	ldrh.w	r3, [r2, #402]	; 0x192
 8001e50:	f88d 3012 	strb.w	r3, [sp, #18]
 8001e54:	0a1b      	lsrs	r3, r3, #8
 8001e56:	f88d 3013 	strb.w	r3, [sp, #19]
 8001e5a:	f8b2 3194 	ldrh.w	r3, [r2, #404]	; 0x194
 8001e5e:	f88d 3014 	strb.w	r3, [sp, #20]
 8001e62:	0a1b      	lsrs	r3, r3, #8
 8001e64:	f88d 3015 	strb.w	r3, [sp, #21]
 8001e68:	e383      	b.n	8002572 <PMB_Emulator_Run+0x1ada>
 8001e6a:	f8b2 2196 	ldrh.w	r2, [r2, #406]	; 0x196
 8001e6e:	f88d 2010 	strb.w	r2, [sp, #16]
 8001e72:	0a12      	lsrs	r2, r2, #8
 8001e74:	f88d 2011 	strb.w	r2, [sp, #17]
 8001e78:	f8b3 2198 	ldrh.w	r2, [r3, #408]	; 0x198
 8001e7c:	f8b3 319a 	ldrh.w	r3, [r3, #410]	; 0x19a
 8001e80:	f88d 2012 	strb.w	r2, [sp, #18]
 8001e84:	f88d 3014 	strb.w	r3, [sp, #20]
 8001e88:	0a12      	lsrs	r2, r2, #8
 8001e8a:	0a1b      	lsrs	r3, r3, #8
 8001e8c:	f88d 2013 	strb.w	r2, [sp, #19]
 8001e90:	f88d 3015 	strb.w	r3, [sp, #21]
 8001e94:	e36d      	b.n	8002572 <PMB_Emulator_Run+0x1ada>
 8001e96:	f8b2 219c 	ldrh.w	r2, [r2, #412]	; 0x19c
 8001e9a:	f88d 2010 	strb.w	r2, [sp, #16]
 8001e9e:	0a12      	lsrs	r2, r2, #8
 8001ea0:	f88d 2011 	strb.w	r2, [sp, #17]
 8001ea4:	f8b3 219e 	ldrh.w	r2, [r3, #414]	; 0x19e
 8001ea8:	f8b3 31a0 	ldrh.w	r3, [r3, #416]	; 0x1a0
 8001eac:	f88d 2012 	strb.w	r2, [sp, #18]
 8001eb0:	f88d 3014 	strb.w	r3, [sp, #20]
 8001eb4:	0a12      	lsrs	r2, r2, #8
 8001eb6:	0a1b      	lsrs	r3, r3, #8
 8001eb8:	f88d 2013 	strb.w	r2, [sp, #19]
 8001ebc:	f88d 3015 	strb.w	r3, [sp, #21]
 8001ec0:	e357      	b.n	8002572 <PMB_Emulator_Run+0x1ada>
 8001ec2:	f8b2 21a2 	ldrh.w	r2, [r2, #418]	; 0x1a2
 8001ec6:	f88d 2010 	strb.w	r2, [sp, #16]
 8001eca:	0a12      	lsrs	r2, r2, #8
 8001ecc:	f88d 2011 	strb.w	r2, [sp, #17]
 8001ed0:	f8b3 21a4 	ldrh.w	r2, [r3, #420]	; 0x1a4
 8001ed4:	f8b3 31a6 	ldrh.w	r3, [r3, #422]	; 0x1a6
 8001ed8:	f88d 2012 	strb.w	r2, [sp, #18]
 8001edc:	f88d 3014 	strb.w	r3, [sp, #20]
 8001ee0:	0a12      	lsrs	r2, r2, #8
 8001ee2:	0a1b      	lsrs	r3, r3, #8
 8001ee4:	f88d 2013 	strb.w	r2, [sp, #19]
 8001ee8:	f88d 3015 	strb.w	r3, [sp, #21]
 8001eec:	e341      	b.n	8002572 <PMB_Emulator_Run+0x1ada>
 8001eee:	f8b2 31ae 	ldrh.w	r3, [r2, #430]	; 0x1ae
 8001ef2:	f88d 3010 	strb.w	r3, [sp, #16]
 8001ef6:	0a1b      	lsrs	r3, r3, #8
 8001ef8:	f88d 3011 	strb.w	r3, [sp, #17]
 8001efc:	f8b2 31b0 	ldrh.w	r3, [r2, #432]	; 0x1b0
 8001f00:	f88d 3012 	strb.w	r3, [sp, #18]
 8001f04:	0a1b      	lsrs	r3, r3, #8
 8001f06:	f88d 3013 	strb.w	r3, [sp, #19]
 8001f0a:	e332      	b.n	8002572 <PMB_Emulator_Run+0x1ada>
 8001f0c:	f8b2 21b2 	ldrh.w	r2, [r2, #434]	; 0x1b2
 8001f10:	f8b3 31b4 	ldrh.w	r3, [r3, #436]	; 0x1b4
 8001f14:	f88d 2010 	strb.w	r2, [sp, #16]
 8001f18:	f88d 3012 	strb.w	r3, [sp, #18]
 8001f1c:	0a12      	lsrs	r2, r2, #8
 8001f1e:	0a1b      	lsrs	r3, r3, #8
 8001f20:	f88d 2011 	strb.w	r2, [sp, #17]
 8001f24:	f88d 3013 	strb.w	r3, [sp, #19]
 8001f28:	e323      	b.n	8002572 <PMB_Emulator_Run+0x1ada>
 8001f2a:	f8b2 21b6 	ldrh.w	r2, [r2, #438]	; 0x1b6
 8001f2e:	f8b3 31b8 	ldrh.w	r3, [r3, #440]	; 0x1b8
 8001f32:	f88d 2010 	strb.w	r2, [sp, #16]
 8001f36:	f88d 3012 	strb.w	r3, [sp, #18]
 8001f3a:	0a12      	lsrs	r2, r2, #8
 8001f3c:	0a1b      	lsrs	r3, r3, #8
 8001f3e:	f88d 2011 	strb.w	r2, [sp, #17]
 8001f42:	f88d 3013 	strb.w	r3, [sp, #19]
 8001f46:	e314      	b.n	8002572 <PMB_Emulator_Run+0x1ada>
 8001f48:	f8b2 21ba 	ldrh.w	r2, [r2, #442]	; 0x1ba
 8001f4c:	f8b3 31bc 	ldrh.w	r3, [r3, #444]	; 0x1bc
 8001f50:	f88d 2010 	strb.w	r2, [sp, #16]
 8001f54:	f88d 3012 	strb.w	r3, [sp, #18]
 8001f58:	0a12      	lsrs	r2, r2, #8
 8001f5a:	0a1b      	lsrs	r3, r3, #8
 8001f5c:	f88d 2011 	strb.w	r2, [sp, #17]
 8001f60:	f88d 3013 	strb.w	r3, [sp, #19]
 8001f64:	e305      	b.n	8002572 <PMB_Emulator_Run+0x1ada>
 8001f66:	f8b2 31c2 	ldrh.w	r3, [r2, #450]	; 0x1c2
 8001f6a:	f88d 3010 	strb.w	r3, [sp, #16]
 8001f6e:	0a1b      	lsrs	r3, r3, #8
 8001f70:	f88d 3011 	strb.w	r3, [sp, #17]
 8001f74:	f8b2 31c4 	ldrh.w	r3, [r2, #452]	; 0x1c4
 8001f78:	f88d 3012 	strb.w	r3, [sp, #18]
 8001f7c:	0a1b      	lsrs	r3, r3, #8
 8001f7e:	f88d 3013 	strb.w	r3, [sp, #19]
 8001f82:	f8b2 31c6 	ldrh.w	r3, [r2, #454]	; 0x1c6
 8001f86:	f88d 3014 	strb.w	r3, [sp, #20]
 8001f8a:	0a1b      	lsrs	r3, r3, #8
 8001f8c:	f88d 3015 	strb.w	r3, [sp, #21]
 8001f90:	e2ef      	b.n	8002572 <PMB_Emulator_Run+0x1ada>
 8001f92:	f8b2 21c8 	ldrh.w	r2, [r2, #456]	; 0x1c8
 8001f96:	f88d 2010 	strb.w	r2, [sp, #16]
 8001f9a:	0a12      	lsrs	r2, r2, #8
 8001f9c:	f88d 2011 	strb.w	r2, [sp, #17]
 8001fa0:	f8b3 21ca 	ldrh.w	r2, [r3, #458]	; 0x1ca
 8001fa4:	f8b3 31cc 	ldrh.w	r3, [r3, #460]	; 0x1cc
 8001fa8:	f88d 2012 	strb.w	r2, [sp, #18]
 8001fac:	f88d 3014 	strb.w	r3, [sp, #20]
 8001fb0:	0a12      	lsrs	r2, r2, #8
 8001fb2:	0a1b      	lsrs	r3, r3, #8
 8001fb4:	f88d 2013 	strb.w	r2, [sp, #19]
 8001fb8:	f88d 3015 	strb.w	r3, [sp, #21]
 8001fbc:	e2d9      	b.n	8002572 <PMB_Emulator_Run+0x1ada>
 8001fbe:	f8b2 21ce 	ldrh.w	r2, [r2, #462]	; 0x1ce
 8001fc2:	f8b3 31d0 	ldrh.w	r3, [r3, #464]	; 0x1d0
 8001fc6:	f88d 2010 	strb.w	r2, [sp, #16]
 8001fca:	f88d 3012 	strb.w	r3, [sp, #18]
 8001fce:	0a12      	lsrs	r2, r2, #8
 8001fd0:	0a1b      	lsrs	r3, r3, #8
 8001fd2:	f88d 2011 	strb.w	r2, [sp, #17]
 8001fd6:	f88d 3013 	strb.w	r3, [sp, #19]
 8001fda:	e2ca      	b.n	8002572 <PMB_Emulator_Run+0x1ada>
 8001fdc:	f8b2 21d2 	ldrh.w	r2, [r2, #466]	; 0x1d2
 8001fe0:	f8b3 31d4 	ldrh.w	r3, [r3, #468]	; 0x1d4
 8001fe4:	f88d 2010 	strb.w	r2, [sp, #16]
 8001fe8:	f88d 3012 	strb.w	r3, [sp, #18]
 8001fec:	0a12      	lsrs	r2, r2, #8
 8001fee:	0a1b      	lsrs	r3, r3, #8
 8001ff0:	f88d 2011 	strb.w	r2, [sp, #17]
 8001ff4:	f88d 3013 	strb.w	r3, [sp, #19]
 8001ff8:	e2bb      	b.n	8002572 <PMB_Emulator_Run+0x1ada>
 8001ffa:	f8b2 31da 	ldrh.w	r3, [r2, #474]	; 0x1da
 8001ffe:	f88d 3010 	strb.w	r3, [sp, #16]
 8002002:	0a1b      	lsrs	r3, r3, #8
 8002004:	f88d 3011 	strb.w	r3, [sp, #17]
 8002008:	f8b2 31dc 	ldrh.w	r3, [r2, #476]	; 0x1dc
 800200c:	f88d 3012 	strb.w	r3, [sp, #18]
 8002010:	0a1b      	lsrs	r3, r3, #8
 8002012:	f88d 3013 	strb.w	r3, [sp, #19]
 8002016:	e2ac      	b.n	8002572 <PMB_Emulator_Run+0x1ada>
 8002018:	f8b2 21de 	ldrh.w	r2, [r2, #478]	; 0x1de
 800201c:	f8b3 31e0 	ldrh.w	r3, [r3, #480]	; 0x1e0
 8002020:	f88d 2010 	strb.w	r2, [sp, #16]
 8002024:	f88d 3012 	strb.w	r3, [sp, #18]
 8002028:	0a12      	lsrs	r2, r2, #8
 800202a:	0a1b      	lsrs	r3, r3, #8
 800202c:	f88d 2011 	strb.w	r2, [sp, #17]
 8002030:	f88d 3013 	strb.w	r3, [sp, #19]
 8002034:	e29d      	b.n	8002572 <PMB_Emulator_Run+0x1ada>
 8002036:	f8b2 21e2 	ldrh.w	r2, [r2, #482]	; 0x1e2
 800203a:	f8b3 31e4 	ldrh.w	r3, [r3, #484]	; 0x1e4
 800203e:	f88d 2010 	strb.w	r2, [sp, #16]
 8002042:	f88d 3012 	strb.w	r3, [sp, #18]
 8002046:	0a12      	lsrs	r2, r2, #8
 8002048:	0a1b      	lsrs	r3, r3, #8
 800204a:	f88d 2011 	strb.w	r2, [sp, #17]
 800204e:	f88d 3013 	strb.w	r3, [sp, #19]
 8002052:	e28e      	b.n	8002572 <PMB_Emulator_Run+0x1ada>
 8002054:	f8b2 21e6 	ldrh.w	r2, [r2, #486]	; 0x1e6
 8002058:	f8b3 31e8 	ldrh.w	r3, [r3, #488]	; 0x1e8
 800205c:	f88d 2010 	strb.w	r2, [sp, #16]
 8002060:	f88d 3012 	strb.w	r3, [sp, #18]
 8002064:	0a12      	lsrs	r2, r2, #8
 8002066:	0a1b      	lsrs	r3, r3, #8
 8002068:	f88d 2011 	strb.w	r2, [sp, #17]
 800206c:	f88d 3013 	strb.w	r3, [sp, #19]
 8002070:	e27f      	b.n	8002572 <PMB_Emulator_Run+0x1ada>
 8002072:	f8b2 31ee 	ldrh.w	r3, [r2, #494]	; 0x1ee
 8002076:	f88d 3010 	strb.w	r3, [sp, #16]
 800207a:	0a1b      	lsrs	r3, r3, #8
 800207c:	f88d 3011 	strb.w	r3, [sp, #17]
 8002080:	f8b2 31f0 	ldrh.w	r3, [r2, #496]	; 0x1f0
 8002084:	f88d 3012 	strb.w	r3, [sp, #18]
 8002088:	0a1b      	lsrs	r3, r3, #8
 800208a:	f88d 3013 	strb.w	r3, [sp, #19]
 800208e:	f8b2 31f2 	ldrh.w	r3, [r2, #498]	; 0x1f2
 8002092:	f88d 3014 	strb.w	r3, [sp, #20]
 8002096:	0a1b      	lsrs	r3, r3, #8
 8002098:	f88d 3015 	strb.w	r3, [sp, #21]
 800209c:	e269      	b.n	8002572 <PMB_Emulator_Run+0x1ada>
 800209e:	f8b2 21f4 	ldrh.w	r2, [r2, #500]	; 0x1f4
 80020a2:	f88d 2010 	strb.w	r2, [sp, #16]
 80020a6:	0a12      	lsrs	r2, r2, #8
 80020a8:	f88d 2011 	strb.w	r2, [sp, #17]
 80020ac:	f8b3 21f6 	ldrh.w	r2, [r3, #502]	; 0x1f6
 80020b0:	f8b3 31f8 	ldrh.w	r3, [r3, #504]	; 0x1f8
 80020b4:	f88d 2012 	strb.w	r2, [sp, #18]
 80020b8:	f88d 3014 	strb.w	r3, [sp, #20]
 80020bc:	0a12      	lsrs	r2, r2, #8
 80020be:	0a1b      	lsrs	r3, r3, #8
 80020c0:	f88d 2013 	strb.w	r2, [sp, #19]
 80020c4:	f88d 3015 	strb.w	r3, [sp, #21]
 80020c8:	e253      	b.n	8002572 <PMB_Emulator_Run+0x1ada>
 80020ca:	f8b2 21fa 	ldrh.w	r2, [r2, #506]	; 0x1fa
 80020ce:	f8b3 31fc 	ldrh.w	r3, [r3, #508]	; 0x1fc
 80020d2:	f88d 2010 	strb.w	r2, [sp, #16]
 80020d6:	f88d 3012 	strb.w	r3, [sp, #18]
 80020da:	0a12      	lsrs	r2, r2, #8
 80020dc:	0a1b      	lsrs	r3, r3, #8
 80020de:	f88d 2011 	strb.w	r2, [sp, #17]
 80020e2:	f88d 3013 	strb.w	r3, [sp, #19]
 80020e6:	e244      	b.n	8002572 <PMB_Emulator_Run+0x1ada>
 80020e8:	f8b2 21fe 	ldrh.w	r2, [r2, #510]	; 0x1fe
 80020ec:	f8b3 3200 	ldrh.w	r3, [r3, #512]	; 0x200
 80020f0:	f88d 2010 	strb.w	r2, [sp, #16]
 80020f4:	f88d 3012 	strb.w	r3, [sp, #18]
 80020f8:	0a12      	lsrs	r2, r2, #8
 80020fa:	0a1b      	lsrs	r3, r3, #8
 80020fc:	f88d 2011 	strb.w	r2, [sp, #17]
 8002100:	f88d 3013 	strb.w	r3, [sp, #19]
 8002104:	e235      	b.n	8002572 <PMB_Emulator_Run+0x1ada>
 8002106:	f8b2 3206 	ldrh.w	r3, [r2, #518]	; 0x206
 800210a:	f88d 3010 	strb.w	r3, [sp, #16]
 800210e:	0a1b      	lsrs	r3, r3, #8
 8002110:	f88d 3011 	strb.w	r3, [sp, #17]
 8002114:	f8b2 3208 	ldrh.w	r3, [r2, #520]	; 0x208
 8002118:	f88d 3012 	strb.w	r3, [sp, #18]
 800211c:	0a1b      	lsrs	r3, r3, #8
 800211e:	f88d 3013 	strb.w	r3, [sp, #19]
 8002122:	e226      	b.n	8002572 <PMB_Emulator_Run+0x1ada>
 8002124:	f8b2 220e 	ldrh.w	r2, [r2, #526]	; 0x20e
 8002128:	f88d 2010 	strb.w	r2, [sp, #16]
 800212c:	0a12      	lsrs	r2, r2, #8
 800212e:	f88d 2011 	strb.w	r2, [sp, #17]
 8002132:	f8b3 2210 	ldrh.w	r2, [r3, #528]	; 0x210
 8002136:	f8b3 3212 	ldrh.w	r3, [r3, #530]	; 0x212
 800213a:	f88d 2012 	strb.w	r2, [sp, #18]
 800213e:	f88d 3014 	strb.w	r3, [sp, #20]
 8002142:	0a12      	lsrs	r2, r2, #8
 8002144:	0a1b      	lsrs	r3, r3, #8
 8002146:	f88d 2013 	strb.w	r2, [sp, #19]
 800214a:	f88d 3015 	strb.w	r3, [sp, #21]
 800214e:	e210      	b.n	8002572 <PMB_Emulator_Run+0x1ada>
 8002150:	f8b2 3214 	ldrh.w	r3, [r2, #532]	; 0x214
 8002154:	f88d 3010 	strb.w	r3, [sp, #16]
 8002158:	0a1b      	lsrs	r3, r3, #8
 800215a:	f88d 3011 	strb.w	r3, [sp, #17]
 800215e:	e208      	b.n	8002572 <PMB_Emulator_Run+0x1ada>
 8002160:	f892 321c 	ldrb.w	r3, [r2, #540]	; 0x21c
 8002164:	f88d 3010 	strb.w	r3, [sp, #16]
 8002168:	e203      	b.n	8002572 <PMB_Emulator_Run+0x1ada>
 800216a:	f892 221d 	ldrb.w	r2, [r2, #541]	; 0x21d
 800216e:	f88d 2010 	strb.w	r2, [sp, #16]
 8002172:	f893 221e 	ldrb.w	r2, [r3, #542]	; 0x21e
 8002176:	f893 321f 	ldrb.w	r3, [r3, #543]	; 0x21f
 800217a:	f88d 2011 	strb.w	r2, [sp, #17]
 800217e:	f88d 3012 	strb.w	r3, [sp, #18]
 8002182:	e1f6      	b.n	8002572 <PMB_Emulator_Run+0x1ada>
 8002184:	f892 2220 	ldrb.w	r2, [r2, #544]	; 0x220
 8002188:	f88d 2010 	strb.w	r2, [sp, #16]
 800218c:	f893 2221 	ldrb.w	r2, [r3, #545]	; 0x221
 8002190:	f88d 2011 	strb.w	r2, [sp, #17]
 8002194:	f893 2222 	ldrb.w	r2, [r3, #546]	; 0x222
 8002198:	f893 3223 	ldrb.w	r3, [r3, #547]	; 0x223
 800219c:	f88d 2012 	strb.w	r2, [sp, #18]
 80021a0:	f88d 3013 	strb.w	r3, [sp, #19]
 80021a4:	e1e5      	b.n	8002572 <PMB_Emulator_Run+0x1ada>
 80021a6:	f8b2 2224 	ldrh.w	r2, [r2, #548]	; 0x224
 80021aa:	f88d 2010 	strb.w	r2, [sp, #16]
 80021ae:	0a12      	lsrs	r2, r2, #8
 80021b0:	f88d 2011 	strb.w	r2, [sp, #17]
 80021b4:	f8b3 2226 	ldrh.w	r2, [r3, #550]	; 0x226
 80021b8:	f8b3 3228 	ldrh.w	r3, [r3, #552]	; 0x228
 80021bc:	f88d 2012 	strb.w	r2, [sp, #18]
 80021c0:	f88d 3014 	strb.w	r3, [sp, #20]
 80021c4:	0a12      	lsrs	r2, r2, #8
 80021c6:	0a1b      	lsrs	r3, r3, #8
 80021c8:	f88d 2013 	strb.w	r2, [sp, #19]
 80021cc:	f88d 3015 	strb.w	r3, [sp, #21]
 80021d0:	e1cf      	b.n	8002572 <PMB_Emulator_Run+0x1ada>
 80021d2:	f8b2 3230 	ldrh.w	r3, [r2, #560]	; 0x230
 80021d6:	f88d 3010 	strb.w	r3, [sp, #16]
 80021da:	0a1b      	lsrs	r3, r3, #8
 80021dc:	f88d 3011 	strb.w	r3, [sp, #17]
 80021e0:	f8b2 3232 	ldrh.w	r3, [r2, #562]	; 0x232
 80021e4:	f88d 3012 	strb.w	r3, [sp, #18]
 80021e8:	0a1b      	lsrs	r3, r3, #8
 80021ea:	f88d 3013 	strb.w	r3, [sp, #19]
 80021ee:	f8b2 3234 	ldrh.w	r3, [r2, #564]	; 0x234
 80021f2:	f88d 3014 	strb.w	r3, [sp, #20]
 80021f6:	0a1b      	lsrs	r3, r3, #8
 80021f8:	f88d 3015 	strb.w	r3, [sp, #21]
 80021fc:	e1b9      	b.n	8002572 <PMB_Emulator_Run+0x1ada>
 80021fe:	f8b2 2236 	ldrh.w	r2, [r2, #566]	; 0x236
 8002202:	f88d 2010 	strb.w	r2, [sp, #16]
 8002206:	0a12      	lsrs	r2, r2, #8
 8002208:	f88d 2011 	strb.w	r2, [sp, #17]
 800220c:	f8b3 2238 	ldrh.w	r2, [r3, #568]	; 0x238
 8002210:	f8b3 323a 	ldrh.w	r3, [r3, #570]	; 0x23a
 8002214:	f88d 2012 	strb.w	r2, [sp, #18]
 8002218:	f88d 3014 	strb.w	r3, [sp, #20]
 800221c:	0a12      	lsrs	r2, r2, #8
 800221e:	0a1b      	lsrs	r3, r3, #8
 8002220:	f88d 2013 	strb.w	r2, [sp, #19]
 8002224:	f88d 3015 	strb.w	r3, [sp, #21]
 8002228:	e1a3      	b.n	8002572 <PMB_Emulator_Run+0x1ada>
 800222a:	f8b2 223c 	ldrh.w	r2, [r2, #572]	; 0x23c
 800222e:	f88d 2010 	strb.w	r2, [sp, #16]
 8002232:	0a12      	lsrs	r2, r2, #8
 8002234:	f88d 2011 	strb.w	r2, [sp, #17]
 8002238:	f8b3 223e 	ldrh.w	r2, [r3, #574]	; 0x23e
 800223c:	f8b3 3240 	ldrh.w	r3, [r3, #576]	; 0x240
 8002240:	f88d 2012 	strb.w	r2, [sp, #18]
 8002244:	f88d 3014 	strb.w	r3, [sp, #20]
 8002248:	0a12      	lsrs	r2, r2, #8
 800224a:	0a1b      	lsrs	r3, r3, #8
 800224c:	f88d 2013 	strb.w	r2, [sp, #19]
 8002250:	f88d 3015 	strb.w	r3, [sp, #21]
 8002254:	e18d      	b.n	8002572 <PMB_Emulator_Run+0x1ada>
 8002256:	f8b2 2242 	ldrh.w	r2, [r2, #578]	; 0x242
 800225a:	f8b3 3244 	ldrh.w	r3, [r3, #580]	; 0x244
 800225e:	f88d 2010 	strb.w	r2, [sp, #16]
 8002262:	f88d 3012 	strb.w	r3, [sp, #18]
 8002266:	0a12      	lsrs	r2, r2, #8
 8002268:	0a1b      	lsrs	r3, r3, #8
 800226a:	f88d 2011 	strb.w	r2, [sp, #17]
 800226e:	f88d 3013 	strb.w	r3, [sp, #19]
 8002272:	e17e      	b.n	8002572 <PMB_Emulator_Run+0x1ada>
 8002274:	f8b2 324a 	ldrh.w	r3, [r2, #586]	; 0x24a
 8002278:	f88d 3010 	strb.w	r3, [sp, #16]
 800227c:	0a1b      	lsrs	r3, r3, #8
 800227e:	f88d 3011 	strb.w	r3, [sp, #17]
 8002282:	f8b2 324c 	ldrh.w	r3, [r2, #588]	; 0x24c
 8002286:	f88d 3012 	strb.w	r3, [sp, #18]
 800228a:	0a1b      	lsrs	r3, r3, #8
 800228c:	f88d 3013 	strb.w	r3, [sp, #19]
 8002290:	e16f      	b.n	8002572 <PMB_Emulator_Run+0x1ada>
 8002292:	f8b2 224e 	ldrh.w	r2, [r2, #590]	; 0x24e
 8002296:	f8b3 3250 	ldrh.w	r3, [r3, #592]	; 0x250
 800229a:	f88d 2010 	strb.w	r2, [sp, #16]
 800229e:	f88d 3012 	strb.w	r3, [sp, #18]
 80022a2:	0a12      	lsrs	r2, r2, #8
 80022a4:	0a1b      	lsrs	r3, r3, #8
 80022a6:	f88d 2011 	strb.w	r2, [sp, #17]
 80022aa:	f88d 3013 	strb.w	r3, [sp, #19]
 80022ae:	e160      	b.n	8002572 <PMB_Emulator_Run+0x1ada>
 80022b0:	f8b2 2252 	ldrh.w	r2, [r2, #594]	; 0x252
 80022b4:	f8b3 3254 	ldrh.w	r3, [r3, #596]	; 0x254
 80022b8:	f88d 2010 	strb.w	r2, [sp, #16]
 80022bc:	f88d 3012 	strb.w	r3, [sp, #18]
 80022c0:	0a12      	lsrs	r2, r2, #8
 80022c2:	0a1b      	lsrs	r3, r3, #8
 80022c4:	f88d 2011 	strb.w	r2, [sp, #17]
 80022c8:	f88d 3013 	strb.w	r3, [sp, #19]
 80022cc:	e151      	b.n	8002572 <PMB_Emulator_Run+0x1ada>
 80022ce:	f8b2 2256 	ldrh.w	r2, [r2, #598]	; 0x256
 80022d2:	f88d 2010 	strb.w	r2, [sp, #16]
 80022d6:	0a12      	lsrs	r2, r2, #8
 80022d8:	f88d 2011 	strb.w	r2, [sp, #17]
 80022dc:	f8b3 2258 	ldrh.w	r2, [r3, #600]	; 0x258
 80022e0:	f8b3 325a 	ldrh.w	r3, [r3, #602]	; 0x25a
 80022e4:	f88d 2012 	strb.w	r2, [sp, #18]
 80022e8:	f88d 3014 	strb.w	r3, [sp, #20]
 80022ec:	0a12      	lsrs	r2, r2, #8
 80022ee:	0a1b      	lsrs	r3, r3, #8
 80022f0:	f88d 2013 	strb.w	r2, [sp, #19]
 80022f4:	f88d 3015 	strb.w	r3, [sp, #21]
 80022f8:	e13b      	b.n	8002572 <PMB_Emulator_Run+0x1ada>
 80022fa:	f8b2 3262 	ldrh.w	r3, [r2, #610]	; 0x262
 80022fe:	f88d 3010 	strb.w	r3, [sp, #16]
 8002302:	0a1b      	lsrs	r3, r3, #8
 8002304:	f88d 3011 	strb.w	r3, [sp, #17]
 8002308:	f8b2 3264 	ldrh.w	r3, [r2, #612]	; 0x264
 800230c:	f88d 3012 	strb.w	r3, [sp, #18]
 8002310:	0a1b      	lsrs	r3, r3, #8
 8002312:	f88d 3013 	strb.w	r3, [sp, #19]
 8002316:	e12c      	b.n	8002572 <PMB_Emulator_Run+0x1ada>
 8002318:	f8b2 2266 	ldrh.w	r2, [r2, #614]	; 0x266
 800231c:	f8b3 3268 	ldrh.w	r3, [r3, #616]	; 0x268
 8002320:	f88d 2010 	strb.w	r2, [sp, #16]
 8002324:	f88d 3012 	strb.w	r3, [sp, #18]
 8002328:	0a12      	lsrs	r2, r2, #8
 800232a:	0a1b      	lsrs	r3, r3, #8
 800232c:	f88d 2011 	strb.w	r2, [sp, #17]
 8002330:	f88d 3013 	strb.w	r3, [sp, #19]
 8002334:	e11d      	b.n	8002572 <PMB_Emulator_Run+0x1ada>
 8002336:	f8b2 226a 	ldrh.w	r2, [r2, #618]	; 0x26a
 800233a:	f8b3 326c 	ldrh.w	r3, [r3, #620]	; 0x26c
 800233e:	f88d 2010 	strb.w	r2, [sp, #16]
 8002342:	f88d 3012 	strb.w	r3, [sp, #18]
 8002346:	0a12      	lsrs	r2, r2, #8
 8002348:	0a1b      	lsrs	r3, r3, #8
 800234a:	f88d 2011 	strb.w	r2, [sp, #17]
 800234e:	f88d 3013 	strb.w	r3, [sp, #19]
 8002352:	e10e      	b.n	8002572 <PMB_Emulator_Run+0x1ada>
 8002354:	f8b2 226e 	ldrh.w	r2, [r2, #622]	; 0x26e
 8002358:	f8b3 3270 	ldrh.w	r3, [r3, #624]	; 0x270
 800235c:	f88d 2010 	strb.w	r2, [sp, #16]
 8002360:	f88d 3012 	strb.w	r3, [sp, #18]
 8002364:	0a12      	lsrs	r2, r2, #8
 8002366:	0a1b      	lsrs	r3, r3, #8
 8002368:	f88d 2011 	strb.w	r2, [sp, #17]
 800236c:	f88d 3013 	strb.w	r3, [sp, #19]
 8002370:	e0ff      	b.n	8002572 <PMB_Emulator_Run+0x1ada>
 8002372:	f8b2 3276 	ldrh.w	r3, [r2, #630]	; 0x276
 8002376:	f88d 3010 	strb.w	r3, [sp, #16]
 800237a:	0a1b      	lsrs	r3, r3, #8
 800237c:	f88d 3011 	strb.w	r3, [sp, #17]
 8002380:	f8b2 3278 	ldrh.w	r3, [r2, #632]	; 0x278
 8002384:	f88d 3012 	strb.w	r3, [sp, #18]
 8002388:	0a1b      	lsrs	r3, r3, #8
 800238a:	f88d 3013 	strb.w	r3, [sp, #19]
 800238e:	e0f0      	b.n	8002572 <PMB_Emulator_Run+0x1ada>
 8002390:	f8b2 227a 	ldrh.w	r2, [r2, #634]	; 0x27a
 8002394:	f8b3 327c 	ldrh.w	r3, [r3, #636]	; 0x27c
 8002398:	f88d 2010 	strb.w	r2, [sp, #16]
 800239c:	f88d 3012 	strb.w	r3, [sp, #18]
 80023a0:	0a12      	lsrs	r2, r2, #8
 80023a2:	0a1b      	lsrs	r3, r3, #8
 80023a4:	f88d 2011 	strb.w	r2, [sp, #17]
 80023a8:	f88d 3013 	strb.w	r3, [sp, #19]
 80023ac:	e0e1      	b.n	8002572 <PMB_Emulator_Run+0x1ada>
 80023ae:	f8b2 227e 	ldrh.w	r2, [r2, #638]	; 0x27e
 80023b2:	f8b3 3280 	ldrh.w	r3, [r3, #640]	; 0x280
 80023b6:	f88d 2010 	strb.w	r2, [sp, #16]
 80023ba:	f88d 3012 	strb.w	r3, [sp, #18]
 80023be:	0a12      	lsrs	r2, r2, #8
 80023c0:	0a1b      	lsrs	r3, r3, #8
 80023c2:	f88d 2011 	strb.w	r2, [sp, #17]
 80023c6:	f88d 3013 	strb.w	r3, [sp, #19]
 80023ca:	e0d2      	b.n	8002572 <PMB_Emulator_Run+0x1ada>
 80023cc:	f8b2 2282 	ldrh.w	r2, [r2, #642]	; 0x282
 80023d0:	f88d 2010 	strb.w	r2, [sp, #16]
 80023d4:	0a12      	lsrs	r2, r2, #8
 80023d6:	f88d 2011 	strb.w	r2, [sp, #17]
 80023da:	f8b3 2284 	ldrh.w	r2, [r3, #644]	; 0x284
 80023de:	f8b3 3286 	ldrh.w	r3, [r3, #646]	; 0x286
 80023e2:	f88d 2012 	strb.w	r2, [sp, #18]
 80023e6:	f88d 3014 	strb.w	r3, [sp, #20]
 80023ea:	0a12      	lsrs	r2, r2, #8
 80023ec:	0a1b      	lsrs	r3, r3, #8
 80023ee:	f88d 2013 	strb.w	r2, [sp, #19]
 80023f2:	f88d 3015 	strb.w	r3, [sp, #21]
 80023f6:	e0bc      	b.n	8002572 <PMB_Emulator_Run+0x1ada>
 80023f8:	f8b2 328e 	ldrh.w	r3, [r2, #654]	; 0x28e
 80023fc:	f88d 3010 	strb.w	r3, [sp, #16]
 8002400:	0a1b      	lsrs	r3, r3, #8
 8002402:	f88d 3011 	strb.w	r3, [sp, #17]
 8002406:	f8b2 3290 	ldrh.w	r3, [r2, #656]	; 0x290
 800240a:	f88d 3012 	strb.w	r3, [sp, #18]
 800240e:	0a1b      	lsrs	r3, r3, #8
 8002410:	f88d 3013 	strb.w	r3, [sp, #19]
 8002414:	e0ad      	b.n	8002572 <PMB_Emulator_Run+0x1ada>
 8002416:	f8b2 2292 	ldrh.w	r2, [r2, #658]	; 0x292
 800241a:	f8b3 3294 	ldrh.w	r3, [r3, #660]	; 0x294
 800241e:	f88d 2010 	strb.w	r2, [sp, #16]
 8002422:	f88d 3012 	strb.w	r3, [sp, #18]
 8002426:	0a12      	lsrs	r2, r2, #8
 8002428:	0a1b      	lsrs	r3, r3, #8
 800242a:	f88d 2011 	strb.w	r2, [sp, #17]
 800242e:	f88d 3013 	strb.w	r3, [sp, #19]
 8002432:	e09e      	b.n	8002572 <PMB_Emulator_Run+0x1ada>
 8002434:	f8b2 2296 	ldrh.w	r2, [r2, #662]	; 0x296
 8002438:	f8b3 3298 	ldrh.w	r3, [r3, #664]	; 0x298
 800243c:	f88d 2010 	strb.w	r2, [sp, #16]
 8002440:	f88d 3012 	strb.w	r3, [sp, #18]
 8002444:	0a12      	lsrs	r2, r2, #8
 8002446:	0a1b      	lsrs	r3, r3, #8
 8002448:	f88d 2011 	strb.w	r2, [sp, #17]
 800244c:	f88d 3013 	strb.w	r3, [sp, #19]
 8002450:	e08f      	b.n	8002572 <PMB_Emulator_Run+0x1ada>
 8002452:	f8b2 229a 	ldrh.w	r2, [r2, #666]	; 0x29a
 8002456:	f8b3 329c 	ldrh.w	r3, [r3, #668]	; 0x29c
 800245a:	f88d 2010 	strb.w	r2, [sp, #16]
 800245e:	f88d 3012 	strb.w	r3, [sp, #18]
 8002462:	0a12      	lsrs	r2, r2, #8
 8002464:	0a1b      	lsrs	r3, r3, #8
 8002466:	f88d 2011 	strb.w	r2, [sp, #17]
 800246a:	f88d 3013 	strb.w	r3, [sp, #19]
 800246e:	e080      	b.n	8002572 <PMB_Emulator_Run+0x1ada>
 8002470:	f8b2 32a2 	ldrh.w	r3, [r2, #674]	; 0x2a2
 8002474:	f88d 3010 	strb.w	r3, [sp, #16]
 8002478:	0a1b      	lsrs	r3, r3, #8
 800247a:	f88d 3011 	strb.w	r3, [sp, #17]
 800247e:	f8b2 32a4 	ldrh.w	r3, [r2, #676]	; 0x2a4
 8002482:	f88d 3012 	strb.w	r3, [sp, #18]
 8002486:	0a1b      	lsrs	r3, r3, #8
 8002488:	f88d 3013 	strb.w	r3, [sp, #19]
 800248c:	f8b2 32a6 	ldrh.w	r3, [r2, #678]	; 0x2a6
 8002490:	f88d 3014 	strb.w	r3, [sp, #20]
 8002494:	0a1b      	lsrs	r3, r3, #8
 8002496:	f88d 3015 	strb.w	r3, [sp, #21]
 800249a:	e06a      	b.n	8002572 <PMB_Emulator_Run+0x1ada>
 800249c:	f8b2 22a8 	ldrh.w	r2, [r2, #680]	; 0x2a8
 80024a0:	f8b3 32aa 	ldrh.w	r3, [r3, #682]	; 0x2aa
 80024a4:	f88d 2012 	strb.w	r2, [sp, #18]
 80024a8:	f88d 3014 	strb.w	r3, [sp, #20]
 80024ac:	0a12      	lsrs	r2, r2, #8
 80024ae:	0a1b      	lsrs	r3, r3, #8
 80024b0:	f88d 2013 	strb.w	r2, [sp, #19]
 80024b4:	f88d 3015 	strb.w	r3, [sp, #21]
 80024b8:	e05b      	b.n	8002572 <PMB_Emulator_Run+0x1ada>
 80024ba:	f8b2 22ac 	ldrh.w	r2, [r2, #684]	; 0x2ac
 80024be:	f88d 2010 	strb.w	r2, [sp, #16]
 80024c2:	0a12      	lsrs	r2, r2, #8
 80024c4:	f88d 2011 	strb.w	r2, [sp, #17]
 80024c8:	f8b3 22ae 	ldrh.w	r2, [r3, #686]	; 0x2ae
 80024cc:	f8b3 32b0 	ldrh.w	r3, [r3, #688]	; 0x2b0
 80024d0:	f88d 2012 	strb.w	r2, [sp, #18]
 80024d4:	f88d 3014 	strb.w	r3, [sp, #20]
 80024d8:	0a12      	lsrs	r2, r2, #8
 80024da:	0a1b      	lsrs	r3, r3, #8
 80024dc:	f88d 2013 	strb.w	r2, [sp, #19]
 80024e0:	f88d 3015 	strb.w	r3, [sp, #21]
 80024e4:	e045      	b.n	8002572 <PMB_Emulator_Run+0x1ada>
 80024e6:	f8b2 22b2 	ldrh.w	r2, [r2, #690]	; 0x2b2
 80024ea:	f88d 2010 	strb.w	r2, [sp, #16]
 80024ee:	0a12      	lsrs	r2, r2, #8
 80024f0:	f88d 2011 	strb.w	r2, [sp, #17]
 80024f4:	f8b3 22b4 	ldrh.w	r2, [r3, #692]	; 0x2b4
 80024f8:	f8b3 32b6 	ldrh.w	r3, [r3, #694]	; 0x2b6
 80024fc:	f88d 2012 	strb.w	r2, [sp, #18]
 8002500:	f88d 3014 	strb.w	r3, [sp, #20]
 8002504:	0a12      	lsrs	r2, r2, #8
 8002506:	0a1b      	lsrs	r3, r3, #8
 8002508:	f88d 2013 	strb.w	r2, [sp, #19]
 800250c:	f88d 3015 	strb.w	r3, [sp, #21]
 8002510:	e02f      	b.n	8002572 <PMB_Emulator_Run+0x1ada>
 8002512:	f502 722f 	add.w	r2, r2, #700	; 0x2bc
 8002516:	e892 0003 	ldmia.w	r2, {r0, r1}
 800251a:	9004      	str	r0, [sp, #16]
 800251c:	f8ad 1014 	strh.w	r1, [sp, #20]
 8002520:	e027      	b.n	8002572 <PMB_Emulator_Run+0x1ada>
 8002522:	f892 22c2 	ldrb.w	r2, [r2, #706]	; 0x2c2
 8002526:	f88d 2010 	strb.w	r2, [sp, #16]
 800252a:	f893 22c3 	ldrb.w	r2, [r3, #707]	; 0x2c3
 800252e:	f893 32c4 	ldrb.w	r3, [r3, #708]	; 0x2c4
 8002532:	f88d 2011 	strb.w	r2, [sp, #17]
 8002536:	f88d 3012 	strb.w	r3, [sp, #18]
 800253a:	e01a      	b.n	8002572 <PMB_Emulator_Run+0x1ada>
 800253c:	f892 22cb 	ldrb.w	r2, [r2, #715]	; 0x2cb
 8002540:	f88d 2010 	strb.w	r2, [sp, #16]
 8002544:	f893 22cc 	ldrb.w	r2, [r3, #716]	; 0x2cc
 8002548:	f893 32cd 	ldrb.w	r3, [r3, #717]	; 0x2cd
 800254c:	f88d 2011 	strb.w	r2, [sp, #17]
 8002550:	f88d 3012 	strb.w	r3, [sp, #18]
 8002554:	e00d      	b.n	8002572 <PMB_Emulator_Run+0x1ada>
 8002556:	f8b2 22ce 	ldrh.w	r2, [r2, #718]	; 0x2ce
 800255a:	f8b3 32d0 	ldrh.w	r3, [r3, #720]	; 0x2d0
 800255e:	f88d 2010 	strb.w	r2, [sp, #16]
 8002562:	f88d 3012 	strb.w	r3, [sp, #18]
 8002566:	0a12      	lsrs	r2, r2, #8
 8002568:	0a1b      	lsrs	r3, r3, #8
 800256a:	f88d 2011 	strb.w	r2, [sp, #17]
 800256e:	f88d 3013 	strb.w	r3, [sp, #19]
 8002572:	4bdb      	ldr	r3, [pc, #876]	; (80028e0 <PMB_Emulator_Run+0x1e48>)
 8002574:	689b      	ldr	r3, [r3, #8]
 8002576:	681d      	ldr	r5, [r3, #0]
 8002578:	79eb      	ldrb	r3, [r5, #7]
 800257a:	f043 0320 	orr.w	r3, r3, #32
 800257e:	71eb      	strb	r3, [r5, #7]
 8002580:	9a01      	ldr	r2, [sp, #4]
 8002582:	ea4f 230b 	mov.w	r3, fp, lsl #8
 8002586:	ea43 6382 	orr.w	r3, r3, r2, lsl #26
 800258a:	f043 03c0 	orr.w	r3, r3, #192	; 0xc0
 800258e:	ea43 4404 	orr.w	r4, r3, r4, lsl #16
 8002592:	686b      	ldr	r3, [r5, #4]
 8002594:	68aa      	ldr	r2, [r5, #8]
 8002596:	f364 031c 	bfi	r3, r4, #0, #29
 800259a:	606b      	str	r3, [r5, #4]
 800259c:	f06f 4360 	mvn.w	r3, #3758096384	; 0xe0000000
 80025a0:	f363 021c 	bfi	r2, r3, #0, #29
 80025a4:	60aa      	str	r2, [r5, #8]
 80025a6:	0e12      	lsrs	r2, r2, #24
 80025a8:	f042 0220 	orr.w	r2, r2, #32
 80025ac:	72ea      	strb	r2, [r5, #11]
 80025ae:	2308      	movs	r3, #8
 80025b0:	732b      	strb	r3, [r5, #12]
 80025b2:	f89d 3012 	ldrb.w	r3, [sp, #18]
 80025b6:	f89d 2011 	ldrb.w	r2, [sp, #17]
 80025ba:	041b      	lsls	r3, r3, #16
 80025bc:	ea43 2302 	orr.w	r3, r3, r2, lsl #8
 80025c0:	f89d 2010 	ldrb.w	r2, [sp, #16]
 80025c4:	4313      	orrs	r3, r2
 80025c6:	f89d 2013 	ldrb.w	r2, [sp, #19]
 80025ca:	ea43 6302 	orr.w	r3, r3, r2, lsl #24
 80025ce:	612b      	str	r3, [r5, #16]
 80025d0:	f89d 2014 	ldrb.w	r2, [sp, #20]
 80025d4:	f89d 3015 	ldrb.w	r3, [sp, #21]
 80025d8:	ea42 2203 	orr.w	r2, r2, r3, lsl #8
 80025dc:	ea42 4307 	orr.w	r3, r2, r7, lsl #16
 80025e0:	ea43 6306 	orr.w	r3, r3, r6, lsl #24
 80025e4:	616b      	str	r3, [r5, #20]
 80025e6:	4628      	mov	r0, r5
 80025e8:	f002 fbf2 	bl	8004dd0 <XMC_CAN_MO_Config>
 80025ec:	682b      	ldr	r3, [r5, #0]
 80025ee:	f04f 7280 	mov.w	r2, #16777216	; 0x1000000
 80025f2:	61da      	str	r2, [r3, #28]
 80025f4:	f000 beb4 	b.w	8003360 <PMB_Emulator_Run+0x28c8>
 80025f8:	f5b4 7ffd 	cmp.w	r4, #506	; 0x1fa
 80025fc:	f000 86a3 	beq.w	8003346 <PMB_Emulator_Run+0x28ae>
 8002600:	f1a4 0830 	sub.w	r8, r4, #48	; 0x30
 8002604:	f1b8 0f1a 	cmp.w	r8, #26
 8002608:	d806      	bhi.n	8002618 <PMB_Emulator_Run+0x1b80>
 800260a:	f8df 82d8 	ldr.w	r8, [pc, #728]	; 80028e4 <PMB_Emulator_Run+0x1e4c>
 800260e:	f898 82d2 	ldrb.w	r8, [r8, #722]	; 0x2d2
 8002612:	f3c8 0840 	ubfx	r8, r8, #1, #1
 8002616:	e050      	b.n	80026ba <PMB_Emulator_Run+0x1c22>
 8002618:	f1a4 0850 	sub.w	r8, r4, #80	; 0x50
 800261c:	f1b8 0f1a 	cmp.w	r8, #26
 8002620:	d806      	bhi.n	8002630 <PMB_Emulator_Run+0x1b98>
 8002622:	f8df 82c0 	ldr.w	r8, [pc, #704]	; 80028e4 <PMB_Emulator_Run+0x1e4c>
 8002626:	f898 82d2 	ldrb.w	r8, [r8, #722]	; 0x2d2
 800262a:	f3c8 0880 	ubfx	r8, r8, #2, #1
 800262e:	e044      	b.n	80026ba <PMB_Emulator_Run+0x1c22>
 8002630:	f1a4 08b0 	sub.w	r8, r4, #176	; 0xb0
 8002634:	f1b8 0f1f 	cmp.w	r8, #31
 8002638:	f63e aa83 	bhi.w	8000b42 <PMB_Emulator_Run+0xaa>
 800263c:	f8df 82a4 	ldr.w	r8, [pc, #676]	; 80028e4 <PMB_Emulator_Run+0x1e4c>
 8002640:	f898 82d2 	ldrb.w	r8, [r8, #722]	; 0x2d2
 8002644:	f008 0801 	and.w	r8, r8, #1
 8002648:	e037      	b.n	80026ba <PMB_Emulator_Run+0x1c22>
 800264a:	2c1f      	cmp	r4, #31
 800264c:	d107      	bne.n	800265e <PMB_Emulator_Run+0x1bc6>
 800264e:	4ba5      	ldr	r3, [pc, #660]	; (80028e4 <PMB_Emulator_Run+0x1e4c>)
 8002650:	f893 32d3 	ldrb.w	r3, [r3, #723]	; 0x2d3
 8002654:	07de      	lsls	r6, r3, #31
 8002656:	f100 8336 	bmi.w	8002cc6 <PMB_Emulator_Run+0x222e>
 800265a:	f7fe ba7c 	b.w	8000b56 <PMB_Emulator_Run+0xbe>
 800265e:	2c20      	cmp	r4, #32
 8002660:	d107      	bne.n	8002672 <PMB_Emulator_Run+0x1bda>
 8002662:	4ba0      	ldr	r3, [pc, #640]	; (80028e4 <PMB_Emulator_Run+0x1e4c>)
 8002664:	f893 32d4 	ldrb.w	r3, [r3, #724]	; 0x2d4
 8002668:	0758      	lsls	r0, r3, #29
 800266a:	f040 8331 	bne.w	8002cd0 <PMB_Emulator_Run+0x2238>
 800266e:	f7fe ba72 	b.w	8000b56 <PMB_Emulator_Run+0xbe>
 8002672:	2c21      	cmp	r4, #33	; 0x21
 8002674:	d107      	bne.n	8002686 <PMB_Emulator_Run+0x1bee>
 8002676:	4b9b      	ldr	r3, [pc, #620]	; (80028e4 <PMB_Emulator_Run+0x1e4c>)
 8002678:	f893 32d5 	ldrb.w	r3, [r3, #725]	; 0x2d5
 800267c:	0719      	lsls	r1, r3, #28
 800267e:	f040 8330 	bne.w	8002ce2 <PMB_Emulator_Run+0x224a>
 8002682:	f7fe ba68 	b.w	8000b56 <PMB_Emulator_Run+0xbe>
 8002686:	2c23      	cmp	r4, #35	; 0x23
 8002688:	d107      	bne.n	800269a <PMB_Emulator_Run+0x1c02>
 800268a:	4b96      	ldr	r3, [pc, #600]	; (80028e4 <PMB_Emulator_Run+0x1e4c>)
 800268c:	f893 32d6 	ldrb.w	r3, [r3, #726]	; 0x2d6
 8002690:	075b      	lsls	r3, r3, #29
 8002692:	f040 8331 	bne.w	8002cf8 <PMB_Emulator_Run+0x2260>
 8002696:	f7fe ba5e 	b.w	8000b56 <PMB_Emulator_Run+0xbe>
 800269a:	f1a4 08a8 	sub.w	r8, r4, #168	; 0xa8
 800269e:	f1b8 0f02 	cmp.w	r8, #2
 80026a2:	d90e      	bls.n	80026c2 <PMB_Emulator_Run+0x1c2a>
 80026a4:	f240 38f7 	movw	r8, #1015	; 0x3f7
 80026a8:	ea0a 0808 	and.w	r8, sl, r8
 80026ac:	f1a8 08d0 	sub.w	r8, r8, #208	; 0xd0
 80026b0:	f1b8 0f01 	cmp.w	r8, #1
 80026b4:	f63e aa4f 	bhi.w	8000b56 <PMB_Emulator_Run+0xbe>
 80026b8:	e003      	b.n	80026c2 <PMB_Emulator_Run+0x1c2a>
 80026ba:	f1b8 0f00 	cmp.w	r8, #0
 80026be:	f43e aa4a 	beq.w	8000b56 <PMB_Emulator_Run+0xbe>
 80026c2:	2c62      	cmp	r4, #98	; 0x62
 80026c4:	f000 849d 	beq.w	8003002 <PMB_Emulator_Run+0x256a>
 80026c8:	f200 8163 	bhi.w	8002992 <PMB_Emulator_Run+0x1efa>
 80026cc:	2c44      	cmp	r4, #68	; 0x44
 80026ce:	4f85      	ldr	r7, [pc, #532]	; (80028e4 <PMB_Emulator_Run+0x1e4c>)
 80026d0:	f000 83bf 	beq.w	8002e52 <PMB_Emulator_Run+0x23ba>
 80026d4:	f200 80a5 	bhi.w	8002822 <PMB_Emulator_Run+0x1d8a>
 80026d8:	2c37      	cmp	r4, #55	; 0x37
 80026da:	f000 8351 	beq.w	8002d80 <PMB_Emulator_Run+0x22e8>
 80026de:	d850      	bhi.n	8002782 <PMB_Emulator_Run+0x1cea>
 80026e0:	2c31      	cmp	r4, #49	; 0x31
 80026e2:	f000 8312 	beq.w	8002d0a <PMB_Emulator_Run+0x2272>
 80026e6:	d821      	bhi.n	800272c <PMB_Emulator_Run+0x1c94>
 80026e8:	2c21      	cmp	r4, #33	; 0x21
 80026ea:	f000 82fa 	beq.w	8002ce2 <PMB_Emulator_Run+0x224a>
 80026ee:	d807      	bhi.n	8002700 <PMB_Emulator_Run+0x1c68>
 80026f0:	2c1f      	cmp	r4, #31
 80026f2:	f000 82e8 	beq.w	8002cc6 <PMB_Emulator_Run+0x222e>
 80026f6:	2c20      	cmp	r4, #32
 80026f8:	f000 82ea 	beq.w	8002cd0 <PMB_Emulator_Run+0x2238>
 80026fc:	f7fe ba2b 	b.w	8000b56 <PMB_Emulator_Run+0xbe>
 8002700:	2c23      	cmp	r4, #35	; 0x23
 8002702:	f000 82f9 	beq.w	8002cf8 <PMB_Emulator_Run+0x2260>
 8002706:	2c30      	cmp	r4, #48	; 0x30
 8002708:	f47e aa25 	bne.w	8000b56 <PMB_Emulator_Run+0xbe>
 800270c:	b2db      	uxtb	r3, r3
 800270e:	b2c9      	uxtb	r1, r1
 8002710:	ea45 2303 	orr.w	r3, r5, r3, lsl #8
 8002714:	ea42 2200 	orr.w	r2, r2, r0, lsl #8
 8002718:	ea46 2101 	orr.w	r1, r6, r1, lsl #8
 800271c:	f8a7 3094 	strh.w	r3, [r7, #148]	; 0x94
 8002720:	f8a7 2096 	strh.w	r2, [r7, #150]	; 0x96
 8002724:	f8a7 1098 	strh.w	r1, [r7, #152]	; 0x98
 8002728:	f7fe ba15 	b.w	8000b56 <PMB_Emulator_Run+0xbe>
 800272c:	2c34      	cmp	r4, #52	; 0x34
 800272e:	f000 830c 	beq.w	8002d4a <PMB_Emulator_Run+0x22b2>
 8002732:	d815      	bhi.n	8002760 <PMB_Emulator_Run+0x1cc8>
 8002734:	2c32      	cmp	r4, #50	; 0x32
 8002736:	f000 82f8 	beq.w	8002d2a <PMB_Emulator_Run+0x2292>
 800273a:	2c33      	cmp	r4, #51	; 0x33
 800273c:	f47e aa0b 	bne.w	8000b56 <PMB_Emulator_Run+0xbe>
 8002740:	b2db      	uxtb	r3, r3
 8002742:	b2c9      	uxtb	r1, r1
 8002744:	ea45 2303 	orr.w	r3, r5, r3, lsl #8
 8002748:	ea42 2200 	orr.w	r2, r2, r0, lsl #8
 800274c:	ea46 2101 	orr.w	r1, r6, r1, lsl #8
 8002750:	f8a7 30a6 	strh.w	r3, [r7, #166]	; 0xa6
 8002754:	f8a7 20a8 	strh.w	r2, [r7, #168]	; 0xa8
 8002758:	f8a7 10aa 	strh.w	r1, [r7, #170]	; 0xaa
 800275c:	f7fe b9fb 	b.w	8000b56 <PMB_Emulator_Run+0xbe>
 8002760:	2c35      	cmp	r4, #53	; 0x35
 8002762:	f000 8302 	beq.w	8002d6a <PMB_Emulator_Run+0x22d2>
 8002766:	2c36      	cmp	r4, #54	; 0x36
 8002768:	f47e a9f5 	bne.w	8000b56 <PMB_Emulator_Run+0xbe>
 800276c:	b2db      	uxtb	r3, r3
 800276e:	ea45 2303 	orr.w	r3, r5, r3, lsl #8
 8002772:	ea42 2200 	orr.w	r2, r2, r0, lsl #8
 8002776:	f8a7 30b6 	strh.w	r3, [r7, #182]	; 0xb6
 800277a:	f8a7 20b8 	strh.w	r2, [r7, #184]	; 0xb8
 800277e:	f7fe b9ea 	b.w	8000b56 <PMB_Emulator_Run+0xbe>
 8002782:	2c3d      	cmp	r4, #61	; 0x3d
 8002784:	f000 8332 	beq.w	8002dec <PMB_Emulator_Run+0x2354>
 8002788:	d825      	bhi.n	80027d6 <PMB_Emulator_Run+0x1d3e>
 800278a:	2c3a      	cmp	r4, #58	; 0x3a
 800278c:	f000 830e 	beq.w	8002dac <PMB_Emulator_Run+0x2314>
 8002790:	d810      	bhi.n	80027b4 <PMB_Emulator_Run+0x1d1c>
 8002792:	2c38      	cmp	r4, #56	; 0x38
 8002794:	f000 82ff 	beq.w	8002d96 <PMB_Emulator_Run+0x22fe>
 8002798:	2c39      	cmp	r4, #57	; 0x39
 800279a:	f47e a9dc 	bne.w	8000b56 <PMB_Emulator_Run+0xbe>
 800279e:	b2db      	uxtb	r3, r3
 80027a0:	ea45 2303 	orr.w	r3, r5, r3, lsl #8
 80027a4:	ea42 2200 	orr.w	r2, r2, r0, lsl #8
 80027a8:	f8a7 30c2 	strh.w	r3, [r7, #194]	; 0xc2
 80027ac:	f8a7 20c4 	strh.w	r2, [r7, #196]	; 0xc4
 80027b0:	f7fe b9d1 	b.w	8000b56 <PMB_Emulator_Run+0xbe>
 80027b4:	2c3b      	cmp	r4, #59	; 0x3b
 80027b6:	f000 8309 	beq.w	8002dcc <PMB_Emulator_Run+0x2334>
 80027ba:	2c3c      	cmp	r4, #60	; 0x3c
 80027bc:	f47e a9cb 	bne.w	8000b56 <PMB_Emulator_Run+0xbe>
 80027c0:	b2db      	uxtb	r3, r3
 80027c2:	ea45 2303 	orr.w	r3, r5, r3, lsl #8
 80027c6:	ea42 2200 	orr.w	r2, r2, r0, lsl #8
 80027ca:	f8a7 30d2 	strh.w	r3, [r7, #210]	; 0xd2
 80027ce:	f8a7 20d4 	strh.w	r2, [r7, #212]	; 0xd4
 80027d2:	f7fe b9c0 	b.w	8000b56 <PMB_Emulator_Run+0xbe>
 80027d6:	2c40      	cmp	r4, #64	; 0x40
 80027d8:	f000 831e 	beq.w	8002e18 <PMB_Emulator_Run+0x2380>
 80027dc:	d810      	bhi.n	8002800 <PMB_Emulator_Run+0x1d68>
 80027de:	2c3e      	cmp	r4, #62	; 0x3e
 80027e0:	f000 830f 	beq.w	8002e02 <PMB_Emulator_Run+0x236a>
 80027e4:	2c3f      	cmp	r4, #63	; 0x3f
 80027e6:	f47e a9b6 	bne.w	8000b56 <PMB_Emulator_Run+0xbe>
 80027ea:	b2db      	uxtb	r3, r3
 80027ec:	ea45 2303 	orr.w	r3, r5, r3, lsl #8
 80027f0:	ea42 2200 	orr.w	r2, r2, r0, lsl #8
 80027f4:	f8a7 30de 	strh.w	r3, [r7, #222]	; 0xde
 80027f8:	f8a7 20e0 	strh.w	r2, [r7, #224]	; 0xe0
 80027fc:	f7fe b9ab 	b.w	8000b56 <PMB_Emulator_Run+0xbe>
 8002800:	2c42      	cmp	r4, #66	; 0x42
 8002802:	b2db      	uxtb	r3, r3
 8002804:	ea4f 2000 	mov.w	r0, r0, lsl #8
 8002808:	f000 8311 	beq.w	8002e2e <PMB_Emulator_Run+0x2396>
 800280c:	f200 8318 	bhi.w	8002e40 <PMB_Emulator_Run+0x23a8>
 8002810:	ea45 2303 	orr.w	r3, r5, r3, lsl #8
 8002814:	4310      	orrs	r0, r2
 8002816:	f8a7 30e6 	strh.w	r3, [r7, #230]	; 0xe6
 800281a:	f8a7 00e8 	strh.w	r0, [r7, #232]	; 0xe8
 800281e:	f7fe b99a 	b.w	8000b56 <PMB_Emulator_Run+0xbe>
 8002822:	2c55      	cmp	r4, #85	; 0x55
 8002824:	f000 8389 	beq.w	8002f3a <PMB_Emulator_Run+0x24a2>
 8002828:	d85e      	bhi.n	80028e8 <PMB_Emulator_Run+0x1e50>
 800282a:	2c4a      	cmp	r4, #74	; 0x4a
 800282c:	f000 834a 	beq.w	8002ec4 <PMB_Emulator_Run+0x242c>
 8002830:	d825      	bhi.n	800287e <PMB_Emulator_Run+0x1de6>
 8002832:	2c47      	cmp	r4, #71	; 0x47
 8002834:	f000 832d 	beq.w	8002e92 <PMB_Emulator_Run+0x23fa>
 8002838:	d810      	bhi.n	800285c <PMB_Emulator_Run+0x1dc4>
 800283a:	2c45      	cmp	r4, #69	; 0x45
 800283c:	f000 8319 	beq.w	8002e72 <PMB_Emulator_Run+0x23da>
 8002840:	2c46      	cmp	r4, #70	; 0x46
 8002842:	f47e a988 	bne.w	8000b56 <PMB_Emulator_Run+0xbe>
 8002846:	b2db      	uxtb	r3, r3
 8002848:	ea45 2303 	orr.w	r3, r5, r3, lsl #8
 800284c:	ea42 2200 	orr.w	r2, r2, r0, lsl #8
 8002850:	f8a7 30fe 	strh.w	r3, [r7, #254]	; 0xfe
 8002854:	f8a7 2100 	strh.w	r2, [r7, #256]	; 0x100
 8002858:	f7fe b97d 	b.w	8000b56 <PMB_Emulator_Run+0xbe>
 800285c:	2c48      	cmp	r4, #72	; 0x48
 800285e:	f000 8323 	beq.w	8002ea8 <PMB_Emulator_Run+0x2410>
 8002862:	2c49      	cmp	r4, #73	; 0x49
 8002864:	f47e a977 	bne.w	8000b56 <PMB_Emulator_Run+0xbe>
 8002868:	b2db      	uxtb	r3, r3
 800286a:	ea45 2303 	orr.w	r3, r5, r3, lsl #8
 800286e:	ea42 2200 	orr.w	r2, r2, r0, lsl #8
 8002872:	f8a7 310a 	strh.w	r3, [r7, #266]	; 0x10a
 8002876:	f8a7 210c 	strh.w	r2, [r7, #268]	; 0x10c
 800287a:	f7fe b96c 	b.w	8000b56 <PMB_Emulator_Run+0xbe>
 800287e:	2c52      	cmp	r4, #82	; 0x52
 8002880:	f000 833b 	beq.w	8002efa <PMB_Emulator_Run+0x2462>
 8002884:	d815      	bhi.n	80028b2 <PMB_Emulator_Run+0x1e1a>
 8002886:	2c50      	cmp	r4, #80	; 0x50
 8002888:	f000 8327 	beq.w	8002eda <PMB_Emulator_Run+0x2442>
 800288c:	2c51      	cmp	r4, #81	; 0x51
 800288e:	f47e a962 	bne.w	8000b56 <PMB_Emulator_Run+0xbe>
 8002892:	b2db      	uxtb	r3, r3
 8002894:	b2c9      	uxtb	r1, r1
 8002896:	ea45 2303 	orr.w	r3, r5, r3, lsl #8
 800289a:	ea42 2200 	orr.w	r2, r2, r0, lsl #8
 800289e:	ea46 2101 	orr.w	r1, r6, r1, lsl #8
 80028a2:	f8a7 3118 	strh.w	r3, [r7, #280]	; 0x118
 80028a6:	f8a7 211a 	strh.w	r2, [r7, #282]	; 0x11a
 80028aa:	f8a7 111c 	strh.w	r1, [r7, #284]	; 0x11c
 80028ae:	f7fe b952 	b.w	8000b56 <PMB_Emulator_Run+0xbe>
 80028b2:	2c53      	cmp	r4, #83	; 0x53
 80028b4:	f000 8331 	beq.w	8002f1a <PMB_Emulator_Run+0x2482>
 80028b8:	2c54      	cmp	r4, #84	; 0x54
 80028ba:	f47e a94c 	bne.w	8000b56 <PMB_Emulator_Run+0xbe>
 80028be:	b2db      	uxtb	r3, r3
 80028c0:	b2c9      	uxtb	r1, r1
 80028c2:	ea45 2303 	orr.w	r3, r5, r3, lsl #8
 80028c6:	ea42 2200 	orr.w	r2, r2, r0, lsl #8
 80028ca:	ea46 2101 	orr.w	r1, r6, r1, lsl #8
 80028ce:	f8a7 312a 	strh.w	r3, [r7, #298]	; 0x12a
 80028d2:	f8a7 212c 	strh.w	r2, [r7, #300]	; 0x12c
 80028d6:	f8a7 112e 	strh.w	r1, [r7, #302]	; 0x12e
 80028da:	f7fe b93c 	b.w	8000b56 <PMB_Emulator_Run+0xbe>
 80028de:	bf00      	nop
 80028e0:	1ffe8870 	.word	0x1ffe8870
 80028e4:	1ffe888c 	.word	0x1ffe888c
 80028e8:	2c5b      	cmp	r4, #91	; 0x5b
 80028ea:	f000 8352 	beq.w	8002f92 <PMB_Emulator_Run+0x24fa>
 80028ee:	d82a      	bhi.n	8002946 <PMB_Emulator_Run+0x1eae>
 80028f0:	2c58      	cmp	r4, #88	; 0x58
 80028f2:	f000 8338 	beq.w	8002f66 <PMB_Emulator_Run+0x24ce>
 80028f6:	d810      	bhi.n	800291a <PMB_Emulator_Run+0x1e82>
 80028f8:	2c56      	cmp	r4, #86	; 0x56
 80028fa:	f000 8329 	beq.w	8002f50 <PMB_Emulator_Run+0x24b8>
 80028fe:	2c57      	cmp	r4, #87	; 0x57
 8002900:	f47e a929 	bne.w	8000b56 <PMB_Emulator_Run+0xbe>
 8002904:	b2db      	uxtb	r3, r3
 8002906:	ea45 2303 	orr.w	r3, r5, r3, lsl #8
 800290a:	ea42 2200 	orr.w	r2, r2, r0, lsl #8
 800290e:	f8a7 3138 	strh.w	r3, [r7, #312]	; 0x138
 8002912:	f8a7 213a 	strh.w	r2, [r7, #314]	; 0x13a
 8002916:	f7fe b91e 	b.w	8000b56 <PMB_Emulator_Run+0xbe>
 800291a:	2c59      	cmp	r4, #89	; 0x59
 800291c:	f000 832e 	beq.w	8002f7c <PMB_Emulator_Run+0x24e4>
 8002920:	2c5a      	cmp	r4, #90	; 0x5a
 8002922:	f47e a918 	bne.w	8000b56 <PMB_Emulator_Run+0xbe>
 8002926:	b2db      	uxtb	r3, r3
 8002928:	b2c9      	uxtb	r1, r1
 800292a:	ea45 2303 	orr.w	r3, r5, r3, lsl #8
 800292e:	ea42 2200 	orr.w	r2, r2, r0, lsl #8
 8002932:	ea46 2101 	orr.w	r1, r6, r1, lsl #8
 8002936:	f8a7 3144 	strh.w	r3, [r7, #324]	; 0x144
 800293a:	f8a7 2146 	strh.w	r2, [r7, #326]	; 0x146
 800293e:	f8a7 1148 	strh.w	r1, [r7, #328]	; 0x148
 8002942:	f7fe b908 	b.w	8000b56 <PMB_Emulator_Run+0xbe>
 8002946:	2c5e      	cmp	r4, #94	; 0x5e
 8002948:	f000 833e 	beq.w	8002fc8 <PMB_Emulator_Run+0x2530>
 800294c:	d810      	bhi.n	8002970 <PMB_Emulator_Run+0x1ed8>
 800294e:	2c5c      	cmp	r4, #92	; 0x5c
 8002950:	f000 832f 	beq.w	8002fb2 <PMB_Emulator_Run+0x251a>
 8002954:	2c5d      	cmp	r4, #93	; 0x5d
 8002956:	f47e a8fe 	bne.w	8000b56 <PMB_Emulator_Run+0xbe>
 800295a:	b2db      	uxtb	r3, r3
 800295c:	ea45 2303 	orr.w	r3, r5, r3, lsl #8
 8002960:	ea42 2200 	orr.w	r2, r2, r0, lsl #8
 8002964:	f8a7 3154 	strh.w	r3, [r7, #340]	; 0x154
 8002968:	f8a7 2156 	strh.w	r2, [r7, #342]	; 0x156
 800296c:	f7fe b8f3 	b.w	8000b56 <PMB_Emulator_Run+0xbe>
 8002970:	2c60      	cmp	r4, #96	; 0x60
 8002972:	b2db      	uxtb	r3, r3
 8002974:	ea4f 2000 	mov.w	r0, r0, lsl #8
 8002978:	f000 8331 	beq.w	8002fde <PMB_Emulator_Run+0x2546>
 800297c:	f200 8338 	bhi.w	8002ff0 <PMB_Emulator_Run+0x2558>
 8002980:	ea45 2303 	orr.w	r3, r5, r3, lsl #8
 8002984:	4310      	orrs	r0, r2
 8002986:	f8a7 315c 	strh.w	r3, [r7, #348]	; 0x15c
 800298a:	f8a7 015e 	strh.w	r0, [r7, #350]	; 0x15e
 800298e:	f7fe b8e2 	b.w	8000b56 <PMB_Emulator_Run+0xbe>
 8002992:	2cbd      	cmp	r4, #189	; 0xbd
 8002994:	f000 83f5 	beq.w	8003182 <PMB_Emulator_Run+0x26ea>
 8002998:	f200 80c5 	bhi.w	8002b26 <PMB_Emulator_Run+0x208e>
 800299c:	2cb0      	cmp	r4, #176	; 0xb0
 800299e:	f8df e520 	ldr.w	lr, [pc, #1312]	; 8002ec0 <PMB_Emulator_Run+0x2428>
 80029a2:	f000 8376 	beq.w	8003092 <PMB_Emulator_Run+0x25fa>
 80029a6:	d864      	bhi.n	8002a72 <PMB_Emulator_Run+0x1fda>
 80029a8:	2c68      	cmp	r4, #104	; 0x68
 80029aa:	f000 835c 	beq.w	8003066 <PMB_Emulator_Run+0x25ce>
 80029ae:	d82a      	bhi.n	8002a06 <PMB_Emulator_Run+0x1f6e>
 80029b0:	2c65      	cmp	r4, #101	; 0x65
 80029b2:	f000 833d 	beq.w	8003030 <PMB_Emulator_Run+0x2598>
 80029b6:	d815      	bhi.n	80029e4 <PMB_Emulator_Run+0x1f4c>
 80029b8:	2c63      	cmp	r4, #99	; 0x63
 80029ba:	f000 832e 	beq.w	800301a <PMB_Emulator_Run+0x2582>
 80029be:	2c64      	cmp	r4, #100	; 0x64
 80029c0:	f47e a8c9 	bne.w	8000b56 <PMB_Emulator_Run+0xbe>
 80029c4:	b2db      	uxtb	r3, r3
 80029c6:	b2c9      	uxtb	r1, r1
 80029c8:	ea45 2303 	orr.w	r3, r5, r3, lsl #8
 80029cc:	ea42 2200 	orr.w	r2, r2, r0, lsl #8
 80029d0:	ea46 2101 	orr.w	r1, r6, r1, lsl #8
 80029d4:	f8ae 3170 	strh.w	r3, [lr, #368]	; 0x170
 80029d8:	f8ae 2172 	strh.w	r2, [lr, #370]	; 0x172
 80029dc:	f8ae 1174 	strh.w	r1, [lr, #372]	; 0x174
 80029e0:	f7fe b8b9 	b.w	8000b56 <PMB_Emulator_Run+0xbe>
 80029e4:	2c66      	cmp	r4, #102	; 0x66
 80029e6:	f000 8333 	beq.w	8003050 <PMB_Emulator_Run+0x25b8>
 80029ea:	2c67      	cmp	r4, #103	; 0x67
 80029ec:	f47e a8b3 	bne.w	8000b56 <PMB_Emulator_Run+0xbe>
 80029f0:	b2db      	uxtb	r3, r3
 80029f2:	ea45 2303 	orr.w	r3, r5, r3, lsl #8
 80029f6:	ea42 2200 	orr.w	r2, r2, r0, lsl #8
 80029fa:	f8ae 3180 	strh.w	r3, [lr, #384]	; 0x180
 80029fe:	f8ae 2182 	strh.w	r2, [lr, #386]	; 0x182
 8002a02:	f7fe b8a8 	b.w	8000b56 <PMB_Emulator_Run+0xbe>
 8002a06:	2ca8      	cmp	r4, #168	; 0xa8
 8002a08:	f000 8457 	beq.w	80032ba <PMB_Emulator_Run+0x2822>
 8002a0c:	d810      	bhi.n	8002a30 <PMB_Emulator_Run+0x1f98>
 8002a0e:	2c69      	cmp	r4, #105	; 0x69
 8002a10:	f000 8334 	beq.w	800307c <PMB_Emulator_Run+0x25e4>
 8002a14:	2c6a      	cmp	r4, #106	; 0x6a
 8002a16:	f47e a89e 	bne.w	8000b56 <PMB_Emulator_Run+0xbe>
 8002a1a:	b2db      	uxtb	r3, r3
 8002a1c:	ea45 2303 	orr.w	r3, r5, r3, lsl #8
 8002a20:	ea42 2200 	orr.w	r2, r2, r0, lsl #8
 8002a24:	f8ae 318c 	strh.w	r3, [lr, #396]	; 0x18c
 8002a28:	f8ae 218e 	strh.w	r2, [lr, #398]	; 0x18e
 8002a2c:	f7fe b893 	b.w	8000b56 <PMB_Emulator_Run+0xbe>
 8002a30:	2ca9      	cmp	r4, #169	; 0xa9
 8002a32:	f000 844b 	beq.w	80032cc <PMB_Emulator_Run+0x2834>
 8002a36:	2caa      	cmp	r4, #170	; 0xaa
 8002a38:	f47e a88d 	bne.w	8000b56 <PMB_Emulator_Run+0xbe>
 8002a3c:	f89e 2220 	ldrb.w	r2, [lr, #544]	; 0x220
 8002a40:	9900      	ldr	r1, [sp, #0]
 8002a42:	ea22 0701 	bic.w	r7, r2, r1
 8002a46:	f89e 2221 	ldrb.w	r2, [lr, #545]	; 0x221
 8002a4a:	f88e 7220 	strb.w	r7, [lr, #544]	; 0x220
 8002a4e:	ea22 0303 	bic.w	r3, r2, r3
 8002a52:	f88e 3221 	strb.w	r3, [lr, #545]	; 0x221
 8002a56:	f89e 2223 	ldrb.w	r2, [lr, #547]	; 0x223
 8002a5a:	f89e 3222 	ldrb.w	r3, [lr, #546]	; 0x222
 8002a5e:	ea22 0200 	bic.w	r2, r2, r0
 8002a62:	ea23 0c0c 	bic.w	ip, r3, ip
 8002a66:	f88e c222 	strb.w	ip, [lr, #546]	; 0x222
 8002a6a:	f88e 2223 	strb.w	r2, [lr, #547]	; 0x223
 8002a6e:	f7fe b872 	b.w	8000b56 <PMB_Emulator_Run+0xbe>
 8002a72:	2cb6      	cmp	r4, #182	; 0xb6
 8002a74:	f000 834d 	beq.w	8003112 <PMB_Emulator_Run+0x267a>
 8002a78:	d82a      	bhi.n	8002ad0 <PMB_Emulator_Run+0x2038>
 8002a7a:	2cb3      	cmp	r4, #179	; 0xb3
 8002a7c:	f000 8329 	beq.w	80030d2 <PMB_Emulator_Run+0x263a>
 8002a80:	d815      	bhi.n	8002aae <PMB_Emulator_Run+0x2016>
 8002a82:	2cb1      	cmp	r4, #177	; 0xb1
 8002a84:	f000 8315 	beq.w	80030b2 <PMB_Emulator_Run+0x261a>
 8002a88:	2cb2      	cmp	r4, #178	; 0xb2
 8002a8a:	f47e a864 	bne.w	8000b56 <PMB_Emulator_Run+0xbe>
 8002a8e:	b2db      	uxtb	r3, r3
 8002a90:	b2c9      	uxtb	r1, r1
 8002a92:	ea45 2303 	orr.w	r3, r5, r3, lsl #8
 8002a96:	ea42 2200 	orr.w	r2, r2, r0, lsl #8
 8002a9a:	ea46 2101 	orr.w	r1, r6, r1, lsl #8
 8002a9e:	f8ae 3230 	strh.w	r3, [lr, #560]	; 0x230
 8002aa2:	f8ae 2232 	strh.w	r2, [lr, #562]	; 0x232
 8002aa6:	f8ae 1234 	strh.w	r1, [lr, #564]	; 0x234
 8002aaa:	f7fe b854 	b.w	8000b56 <PMB_Emulator_Run+0xbe>
 8002aae:	2cb4      	cmp	r4, #180	; 0xb4
 8002ab0:	f000 831f 	beq.w	80030f2 <PMB_Emulator_Run+0x265a>
 8002ab4:	2cb5      	cmp	r4, #181	; 0xb5
 8002ab6:	f47e a84e 	bne.w	8000b56 <PMB_Emulator_Run+0xbe>
 8002aba:	b2db      	uxtb	r3, r3
 8002abc:	ea45 2303 	orr.w	r3, r5, r3, lsl #8
 8002ac0:	ea42 2200 	orr.w	r2, r2, r0, lsl #8
 8002ac4:	f8ae 3242 	strh.w	r3, [lr, #578]	; 0x242
 8002ac8:	f8ae 2244 	strh.w	r2, [lr, #580]	; 0x244
 8002acc:	f7fe b843 	b.w	8000b56 <PMB_Emulator_Run+0xbe>
 8002ad0:	2cb9      	cmp	r4, #185	; 0xb9
 8002ad2:	f000 8334 	beq.w	800313e <PMB_Emulator_Run+0x26a6>
 8002ad6:	d810      	bhi.n	8002afa <PMB_Emulator_Run+0x2062>
 8002ad8:	2cb7      	cmp	r4, #183	; 0xb7
 8002ada:	f000 8325 	beq.w	8003128 <PMB_Emulator_Run+0x2690>
 8002ade:	2cb8      	cmp	r4, #184	; 0xb8
 8002ae0:	f47e a839 	bne.w	8000b56 <PMB_Emulator_Run+0xbe>
 8002ae4:	b2db      	uxtb	r3, r3
 8002ae6:	ea45 2303 	orr.w	r3, r5, r3, lsl #8
 8002aea:	ea42 2200 	orr.w	r2, r2, r0, lsl #8
 8002aee:	f8ae 324e 	strh.w	r3, [lr, #590]	; 0x24e
 8002af2:	f8ae 2250 	strh.w	r2, [lr, #592]	; 0x250
 8002af6:	f7fe b82e 	b.w	8000b56 <PMB_Emulator_Run+0xbe>
 8002afa:	2cbb      	cmp	r4, #187	; 0xbb
 8002afc:	b2db      	uxtb	r3, r3
 8002afe:	ea4f 2000 	mov.w	r0, r0, lsl #8
 8002b02:	f000 8327 	beq.w	8003154 <PMB_Emulator_Run+0x26bc>
 8002b06:	f200 8333 	bhi.w	8003170 <PMB_Emulator_Run+0x26d8>
 8002b0a:	b2c9      	uxtb	r1, r1
 8002b0c:	ea45 2303 	orr.w	r3, r5, r3, lsl #8
 8002b10:	4310      	orrs	r0, r2
 8002b12:	ea46 2101 	orr.w	r1, r6, r1, lsl #8
 8002b16:	f8ae 3256 	strh.w	r3, [lr, #598]	; 0x256
 8002b1a:	f8ae 0258 	strh.w	r0, [lr, #600]	; 0x258
 8002b1e:	f8ae 125a 	strh.w	r1, [lr, #602]	; 0x25a
 8002b22:	f7fe b818 	b.w	8000b56 <PMB_Emulator_Run+0xbe>
 8002b26:	2cc9      	cmp	r4, #201	; 0xc9
 8002b28:	f000 8389 	beq.w	800323e <PMB_Emulator_Run+0x27a6>
 8002b2c:	d855      	bhi.n	8002bda <PMB_Emulator_Run+0x2142>
 8002b2e:	2cc3      	cmp	r4, #195	; 0xc3
 8002b30:	4fe3      	ldr	r7, [pc, #908]	; (8002ec0 <PMB_Emulator_Run+0x2428>)
 8002b32:	f000 8353 	beq.w	80031dc <PMB_Emulator_Run+0x2744>
 8002b36:	d825      	bhi.n	8002b84 <PMB_Emulator_Run+0x20ec>
 8002b38:	2cc0      	cmp	r4, #192	; 0xc0
 8002b3a:	f000 8339 	beq.w	80031b0 <PMB_Emulator_Run+0x2718>
 8002b3e:	d810      	bhi.n	8002b62 <PMB_Emulator_Run+0x20ca>
 8002b40:	2cbe      	cmp	r4, #190	; 0xbe
 8002b42:	f000 832a 	beq.w	800319a <PMB_Emulator_Run+0x2702>
 8002b46:	2cbf      	cmp	r4, #191	; 0xbf
 8002b48:	f47e a805 	bne.w	8000b56 <PMB_Emulator_Run+0xbe>
 8002b4c:	b2db      	uxtb	r3, r3
 8002b4e:	ea45 2303 	orr.w	r3, r5, r3, lsl #8
 8002b52:	ea42 2200 	orr.w	r2, r2, r0, lsl #8
 8002b56:	f8a7 326e 	strh.w	r3, [r7, #622]	; 0x26e
 8002b5a:	f8a7 2270 	strh.w	r2, [r7, #624]	; 0x270
 8002b5e:	f7fd bffa 	b.w	8000b56 <PMB_Emulator_Run+0xbe>
 8002b62:	2cc1      	cmp	r4, #193	; 0xc1
 8002b64:	f000 832f 	beq.w	80031c6 <PMB_Emulator_Run+0x272e>
 8002b68:	2cc2      	cmp	r4, #194	; 0xc2
 8002b6a:	f47d aff4 	bne.w	8000b56 <PMB_Emulator_Run+0xbe>
 8002b6e:	b2db      	uxtb	r3, r3
 8002b70:	ea45 2303 	orr.w	r3, r5, r3, lsl #8
 8002b74:	ea42 2200 	orr.w	r2, r2, r0, lsl #8
 8002b78:	f8a7 327a 	strh.w	r3, [r7, #634]	; 0x27a
 8002b7c:	f8a7 227c 	strh.w	r2, [r7, #636]	; 0x27c
 8002b80:	f7fd bfe9 	b.w	8000b56 <PMB_Emulator_Run+0xbe>
 8002b84:	2cc6      	cmp	r4, #198	; 0xc6
 8002b86:	f000 8344 	beq.w	8003212 <PMB_Emulator_Run+0x277a>
 8002b8a:	d815      	bhi.n	8002bb8 <PMB_Emulator_Run+0x2120>
 8002b8c:	2cc4      	cmp	r4, #196	; 0xc4
 8002b8e:	f000 8330 	beq.w	80031f2 <PMB_Emulator_Run+0x275a>
 8002b92:	2cc5      	cmp	r4, #197	; 0xc5
 8002b94:	f47d afdf 	bne.w	8000b56 <PMB_Emulator_Run+0xbe>
 8002b98:	b2db      	uxtb	r3, r3
 8002b9a:	b2c9      	uxtb	r1, r1
 8002b9c:	ea45 2303 	orr.w	r3, r5, r3, lsl #8
 8002ba0:	ea42 2200 	orr.w	r2, r2, r0, lsl #8
 8002ba4:	ea46 2101 	orr.w	r1, r6, r1, lsl #8
 8002ba8:	f8a7 3288 	strh.w	r3, [r7, #648]	; 0x288
 8002bac:	f8a7 228a 	strh.w	r2, [r7, #650]	; 0x28a
 8002bb0:	f8a7 128c 	strh.w	r1, [r7, #652]	; 0x28c
 8002bb4:	f7fd bfcf 	b.w	8000b56 <PMB_Emulator_Run+0xbe>
 8002bb8:	2cc7      	cmp	r4, #199	; 0xc7
 8002bba:	f000 8335 	beq.w	8003228 <PMB_Emulator_Run+0x2790>
 8002bbe:	2cc8      	cmp	r4, #200	; 0xc8
 8002bc0:	f47d afc9 	bne.w	8000b56 <PMB_Emulator_Run+0xbe>
 8002bc4:	b2db      	uxtb	r3, r3
 8002bc6:	ea45 2303 	orr.w	r3, r5, r3, lsl #8
 8002bca:	ea42 2200 	orr.w	r2, r2, r0, lsl #8
 8002bce:	f8a7 3296 	strh.w	r3, [r7, #662]	; 0x296
 8002bd2:	f8a7 2298 	strh.w	r2, [r7, #664]	; 0x298
 8002bd6:	f7fd bfbe 	b.w	8000b56 <PMB_Emulator_Run+0xbe>
 8002bda:	2ccf      	cmp	r4, #207	; 0xcf
 8002bdc:	f000 8361 	beq.w	80032a2 <PMB_Emulator_Run+0x280a>
 8002be0:	d830      	bhi.n	8002c44 <PMB_Emulator_Run+0x21ac>
 8002be2:	2ccc      	cmp	r4, #204	; 0xcc
 8002be4:	4fb6      	ldr	r7, [pc, #728]	; (8002ec0 <PMB_Emulator_Run+0x2428>)
 8002be6:	f000 8341 	beq.w	800326c <PMB_Emulator_Run+0x27d4>
 8002bea:	d815      	bhi.n	8002c18 <PMB_Emulator_Run+0x2180>
 8002bec:	2cca      	cmp	r4, #202	; 0xca
 8002bee:	f000 8332 	beq.w	8003256 <PMB_Emulator_Run+0x27be>
 8002bf2:	2ccb      	cmp	r4, #203	; 0xcb
 8002bf4:	f47d afaf 	bne.w	8000b56 <PMB_Emulator_Run+0xbe>
 8002bf8:	b2db      	uxtb	r3, r3
 8002bfa:	b2c9      	uxtb	r1, r1
 8002bfc:	ea45 2303 	orr.w	r3, r5, r3, lsl #8
 8002c00:	ea42 2200 	orr.w	r2, r2, r0, lsl #8
 8002c04:	ea46 2101 	orr.w	r1, r6, r1, lsl #8
 8002c08:	f8a7 32a2 	strh.w	r3, [r7, #674]	; 0x2a2
 8002c0c:	f8a7 22a4 	strh.w	r2, [r7, #676]	; 0x2a4
 8002c10:	f8a7 12a6 	strh.w	r1, [r7, #678]	; 0x2a6
 8002c14:	f7fd bf9f 	b.w	8000b56 <PMB_Emulator_Run+0xbe>
 8002c18:	2ccd      	cmp	r4, #205	; 0xcd
 8002c1a:	f000 8332 	beq.w	8003282 <PMB_Emulator_Run+0x27ea>
 8002c1e:	2cce      	cmp	r4, #206	; 0xce
 8002c20:	f47d af99 	bne.w	8000b56 <PMB_Emulator_Run+0xbe>
 8002c24:	b2db      	uxtb	r3, r3
 8002c26:	b2c9      	uxtb	r1, r1
 8002c28:	ea45 2303 	orr.w	r3, r5, r3, lsl #8
 8002c2c:	ea42 2200 	orr.w	r2, r2, r0, lsl #8
 8002c30:	ea46 2101 	orr.w	r1, r6, r1, lsl #8
 8002c34:	f8a7 32b2 	strh.w	r3, [r7, #690]	; 0x2b2
 8002c38:	f8a7 22b4 	strh.w	r2, [r7, #692]	; 0x2b4
 8002c3c:	f8a7 12b6 	strh.w	r1, [r7, #694]	; 0x2b6
 8002c40:	f7fd bf89 	b.w	8000b56 <PMB_Emulator_Run+0xbe>
 8002c44:	2cd8      	cmp	r4, #216	; 0xd8
 8002c46:	f000 8364 	beq.w	8003312 <PMB_Emulator_Run+0x287a>
 8002c4a:	d81b      	bhi.n	8002c84 <PMB_Emulator_Run+0x21ec>
 8002c4c:	2cd0      	cmp	r4, #208	; 0xd0
 8002c4e:	f000 8352 	beq.w	80032f6 <PMB_Emulator_Run+0x285e>
 8002c52:	2cd1      	cmp	r4, #209	; 0xd1
 8002c54:	f47d af7f 	bne.w	8000b56 <PMB_Emulator_Run+0xbe>
 8002c58:	4a99      	ldr	r2, [pc, #612]	; (8002ec0 <PMB_Emulator_Run+0x2428>)
 8002c5a:	9800      	ldr	r0, [sp, #0]
 8002c5c:	f892 12c2 	ldrb.w	r1, [r2, #706]	; 0x2c2
 8002c60:	ea21 0700 	bic.w	r7, r1, r0
 8002c64:	f892 12c3 	ldrb.w	r1, [r2, #707]	; 0x2c3
 8002c68:	f882 72c2 	strb.w	r7, [r2, #706]	; 0x2c2
 8002c6c:	ea21 0303 	bic.w	r3, r1, r3
 8002c70:	f882 32c3 	strb.w	r3, [r2, #707]	; 0x2c3
 8002c74:	f892 32c4 	ldrb.w	r3, [r2, #708]	; 0x2c4
 8002c78:	ea23 0c0c 	bic.w	ip, r3, ip
 8002c7c:	f882 c2c4 	strb.w	ip, [r2, #708]	; 0x2c4
 8002c80:	f7fd bf69 	b.w	8000b56 <PMB_Emulator_Run+0xbe>
 8002c84:	f5b4 7ffc 	cmp.w	r4, #504	; 0x1f8
 8002c88:	f000 8351 	beq.w	800332e <PMB_Emulator_Run+0x2896>
 8002c8c:	f5b4 7ffd 	cmp.w	r4, #506	; 0x1fa
 8002c90:	f000 8359 	beq.w	8003346 <PMB_Emulator_Run+0x28ae>
 8002c94:	2cd9      	cmp	r4, #217	; 0xd9
 8002c96:	f47d af5e 	bne.w	8000b56 <PMB_Emulator_Run+0xbe>
 8002c9a:	4a89      	ldr	r2, [pc, #548]	; (8002ec0 <PMB_Emulator_Run+0x2428>)
 8002c9c:	9800      	ldr	r0, [sp, #0]
 8002c9e:	f892 12cb 	ldrb.w	r1, [r2, #715]	; 0x2cb
 8002ca2:	ea21 0700 	bic.w	r7, r1, r0
 8002ca6:	f892 12cc 	ldrb.w	r1, [r2, #716]	; 0x2cc
 8002caa:	f882 72cb 	strb.w	r7, [r2, #715]	; 0x2cb
 8002cae:	ea21 0303 	bic.w	r3, r1, r3
 8002cb2:	f882 32cc 	strb.w	r3, [r2, #716]	; 0x2cc
 8002cb6:	f892 32cd 	ldrb.w	r3, [r2, #717]	; 0x2cd
 8002cba:	ea23 0c0c 	bic.w	ip, r3, ip
 8002cbe:	f882 c2cd 	strb.w	ip, [r2, #717]	; 0x2cd
 8002cc2:	f7fd bf48 	b.w	8000b56 <PMB_Emulator_Run+0xbe>
 8002cc6:	4b7e      	ldr	r3, [pc, #504]	; (8002ec0 <PMB_Emulator_Run+0x2428>)
 8002cc8:	f883 5088 	strb.w	r5, [r3, #136]	; 0x88
 8002ccc:	f7fd bf43 	b.w	8000b56 <PMB_Emulator_Run+0xbe>
 8002cd0:	4b7b      	ldr	r3, [pc, #492]	; (8002ec0 <PMB_Emulator_Run+0x2428>)
 8002cd2:	f883 5089 	strb.w	r5, [r3, #137]	; 0x89
 8002cd6:	f883 e08a 	strb.w	lr, [r3, #138]	; 0x8a
 8002cda:	f883 208b 	strb.w	r2, [r3, #139]	; 0x8b
 8002cde:	f7fd bf3a 	b.w	8000b56 <PMB_Emulator_Run+0xbe>
 8002ce2:	4b77      	ldr	r3, [pc, #476]	; (8002ec0 <PMB_Emulator_Run+0x2428>)
 8002ce4:	f883 508c 	strb.w	r5, [r3, #140]	; 0x8c
 8002ce8:	f883 e08d 	strb.w	lr, [r3, #141]	; 0x8d
 8002cec:	f883 208e 	strb.w	r2, [r3, #142]	; 0x8e
 8002cf0:	f883 908f 	strb.w	r9, [r3, #143]	; 0x8f
 8002cf4:	f7fd bf2f 	b.w	8000b56 <PMB_Emulator_Run+0xbe>
 8002cf8:	4b71      	ldr	r3, [pc, #452]	; (8002ec0 <PMB_Emulator_Run+0x2428>)
 8002cfa:	f883 5091 	strb.w	r5, [r3, #145]	; 0x91
 8002cfe:	f883 e092 	strb.w	lr, [r3, #146]	; 0x92
 8002d02:	f883 2093 	strb.w	r2, [r3, #147]	; 0x93
 8002d06:	f7fd bf26 	b.w	8000b56 <PMB_Emulator_Run+0xbe>
 8002d0a:	b2db      	uxtb	r3, r3
 8002d0c:	b2c9      	uxtb	r1, r1
 8002d0e:	ea45 2303 	orr.w	r3, r5, r3, lsl #8
 8002d12:	ea42 2200 	orr.w	r2, r2, r0, lsl #8
 8002d16:	ea46 2101 	orr.w	r1, r6, r1, lsl #8
 8002d1a:	f8a7 309a 	strh.w	r3, [r7, #154]	; 0x9a
 8002d1e:	f8a7 209c 	strh.w	r2, [r7, #156]	; 0x9c
 8002d22:	f8a7 109e 	strh.w	r1, [r7, #158]	; 0x9e
 8002d26:	f7fd bf16 	b.w	8000b56 <PMB_Emulator_Run+0xbe>
 8002d2a:	b2db      	uxtb	r3, r3
 8002d2c:	b2c9      	uxtb	r1, r1
 8002d2e:	ea45 2303 	orr.w	r3, r5, r3, lsl #8
 8002d32:	ea42 2200 	orr.w	r2, r2, r0, lsl #8
 8002d36:	ea46 2101 	orr.w	r1, r6, r1, lsl #8
 8002d3a:	f8a7 30a0 	strh.w	r3, [r7, #160]	; 0xa0
 8002d3e:	f8a7 20a2 	strh.w	r2, [r7, #162]	; 0xa2
 8002d42:	f8a7 10a4 	strh.w	r1, [r7, #164]	; 0xa4
 8002d46:	f7fd bf06 	b.w	8000b56 <PMB_Emulator_Run+0xbe>
 8002d4a:	b2db      	uxtb	r3, r3
 8002d4c:	b2c9      	uxtb	r1, r1
 8002d4e:	ea45 2303 	orr.w	r3, r5, r3, lsl #8
 8002d52:	ea42 2200 	orr.w	r2, r2, r0, lsl #8
 8002d56:	ea46 2101 	orr.w	r1, r6, r1, lsl #8
 8002d5a:	f8a7 30ac 	strh.w	r3, [r7, #172]	; 0xac
 8002d5e:	f8a7 20ae 	strh.w	r2, [r7, #174]	; 0xae
 8002d62:	f8a7 10b0 	strh.w	r1, [r7, #176]	; 0xb0
 8002d66:	f7fd bef6 	b.w	8000b56 <PMB_Emulator_Run+0xbe>
 8002d6a:	b2db      	uxtb	r3, r3
 8002d6c:	ea45 2303 	orr.w	r3, r5, r3, lsl #8
 8002d70:	ea42 2200 	orr.w	r2, r2, r0, lsl #8
 8002d74:	f8a7 30b2 	strh.w	r3, [r7, #178]	; 0xb2
 8002d78:	f8a7 20b4 	strh.w	r2, [r7, #180]	; 0xb4
 8002d7c:	f7fd beeb 	b.w	8000b56 <PMB_Emulator_Run+0xbe>
 8002d80:	b2db      	uxtb	r3, r3
 8002d82:	ea45 2303 	orr.w	r3, r5, r3, lsl #8
 8002d86:	ea42 2200 	orr.w	r2, r2, r0, lsl #8
 8002d8a:	f8a7 30ba 	strh.w	r3, [r7, #186]	; 0xba
 8002d8e:	f8a7 20bc 	strh.w	r2, [r7, #188]	; 0xbc
 8002d92:	f7fd bee0 	b.w	8000b56 <PMB_Emulator_Run+0xbe>
 8002d96:	b2db      	uxtb	r3, r3
 8002d98:	ea45 2303 	orr.w	r3, r5, r3, lsl #8
 8002d9c:	ea42 2200 	orr.w	r2, r2, r0, lsl #8
 8002da0:	f8a7 30be 	strh.w	r3, [r7, #190]	; 0xbe
 8002da4:	f8a7 20c0 	strh.w	r2, [r7, #192]	; 0xc0
 8002da8:	f7fd bed5 	b.w	8000b56 <PMB_Emulator_Run+0xbe>
 8002dac:	b2db      	uxtb	r3, r3
 8002dae:	b2c9      	uxtb	r1, r1
 8002db0:	ea45 2303 	orr.w	r3, r5, r3, lsl #8
 8002db4:	ea42 2200 	orr.w	r2, r2, r0, lsl #8
 8002db8:	ea46 2101 	orr.w	r1, r6, r1, lsl #8
 8002dbc:	f8a7 30c6 	strh.w	r3, [r7, #198]	; 0xc6
 8002dc0:	f8a7 20c8 	strh.w	r2, [r7, #200]	; 0xc8
 8002dc4:	f8a7 10ca 	strh.w	r1, [r7, #202]	; 0xca
 8002dc8:	f7fd bec5 	b.w	8000b56 <PMB_Emulator_Run+0xbe>
 8002dcc:	b2db      	uxtb	r3, r3
 8002dce:	b2c9      	uxtb	r1, r1
 8002dd0:	ea45 2303 	orr.w	r3, r5, r3, lsl #8
 8002dd4:	ea42 2200 	orr.w	r2, r2, r0, lsl #8
 8002dd8:	ea46 2101 	orr.w	r1, r6, r1, lsl #8
 8002ddc:	f8a7 30cc 	strh.w	r3, [r7, #204]	; 0xcc
 8002de0:	f8a7 20ce 	strh.w	r2, [r7, #206]	; 0xce
 8002de4:	f8a7 10d0 	strh.w	r1, [r7, #208]	; 0xd0
 8002de8:	f7fd beb5 	b.w	8000b56 <PMB_Emulator_Run+0xbe>
 8002dec:	b2db      	uxtb	r3, r3
 8002dee:	ea45 2303 	orr.w	r3, r5, r3, lsl #8
 8002df2:	ea42 2200 	orr.w	r2, r2, r0, lsl #8
 8002df6:	f8a7 30d6 	strh.w	r3, [r7, #214]	; 0xd6
 8002dfa:	f8a7 20d8 	strh.w	r2, [r7, #216]	; 0xd8
 8002dfe:	f7fd beaa 	b.w	8000b56 <PMB_Emulator_Run+0xbe>
 8002e02:	b2db      	uxtb	r3, r3
 8002e04:	ea45 2303 	orr.w	r3, r5, r3, lsl #8
 8002e08:	ea42 2200 	orr.w	r2, r2, r0, lsl #8
 8002e0c:	f8a7 30da 	strh.w	r3, [r7, #218]	; 0xda
 8002e10:	f8a7 20dc 	strh.w	r2, [r7, #220]	; 0xdc
 8002e14:	f7fd be9f 	b.w	8000b56 <PMB_Emulator_Run+0xbe>
 8002e18:	b2db      	uxtb	r3, r3
 8002e1a:	ea45 2303 	orr.w	r3, r5, r3, lsl #8
 8002e1e:	ea42 2200 	orr.w	r2, r2, r0, lsl #8
 8002e22:	f8a7 30e2 	strh.w	r3, [r7, #226]	; 0xe2
 8002e26:	f8a7 20e4 	strh.w	r2, [r7, #228]	; 0xe4
 8002e2a:	f7fd be94 	b.w	8000b56 <PMB_Emulator_Run+0xbe>
 8002e2e:	ea45 2303 	orr.w	r3, r5, r3, lsl #8
 8002e32:	4310      	orrs	r0, r2
 8002e34:	f8a7 30ea 	strh.w	r3, [r7, #234]	; 0xea
 8002e38:	f8a7 00ec 	strh.w	r0, [r7, #236]	; 0xec
 8002e3c:	f7fd be8b 	b.w	8000b56 <PMB_Emulator_Run+0xbe>
 8002e40:	ea45 2303 	orr.w	r3, r5, r3, lsl #8
 8002e44:	4310      	orrs	r0, r2
 8002e46:	f8a7 30ee 	strh.w	r3, [r7, #238]	; 0xee
 8002e4a:	f8a7 00f0 	strh.w	r0, [r7, #240]	; 0xf0
 8002e4e:	f7fd be82 	b.w	8000b56 <PMB_Emulator_Run+0xbe>
 8002e52:	b2db      	uxtb	r3, r3
 8002e54:	b2c9      	uxtb	r1, r1
 8002e56:	ea45 2303 	orr.w	r3, r5, r3, lsl #8
 8002e5a:	ea42 2200 	orr.w	r2, r2, r0, lsl #8
 8002e5e:	ea46 2101 	orr.w	r1, r6, r1, lsl #8
 8002e62:	f8a7 30f2 	strh.w	r3, [r7, #242]	; 0xf2
 8002e66:	f8a7 20f4 	strh.w	r2, [r7, #244]	; 0xf4
 8002e6a:	f8a7 10f6 	strh.w	r1, [r7, #246]	; 0xf6
 8002e6e:	f7fd be72 	b.w	8000b56 <PMB_Emulator_Run+0xbe>
 8002e72:	b2db      	uxtb	r3, r3
 8002e74:	b2c9      	uxtb	r1, r1
 8002e76:	ea45 2303 	orr.w	r3, r5, r3, lsl #8
 8002e7a:	ea42 2200 	orr.w	r2, r2, r0, lsl #8
 8002e7e:	ea46 2101 	orr.w	r1, r6, r1, lsl #8
 8002e82:	f8a7 30f8 	strh.w	r3, [r7, #248]	; 0xf8
 8002e86:	f8a7 20fa 	strh.w	r2, [r7, #250]	; 0xfa
 8002e8a:	f8a7 10fc 	strh.w	r1, [r7, #252]	; 0xfc
 8002e8e:	f7fd be62 	b.w	8000b56 <PMB_Emulator_Run+0xbe>
 8002e92:	b2db      	uxtb	r3, r3
 8002e94:	ea45 2303 	orr.w	r3, r5, r3, lsl #8
 8002e98:	ea42 2200 	orr.w	r2, r2, r0, lsl #8
 8002e9c:	f8a7 3102 	strh.w	r3, [r7, #258]	; 0x102
 8002ea0:	f8a7 2104 	strh.w	r2, [r7, #260]	; 0x104
 8002ea4:	f7fd be57 	b.w	8000b56 <PMB_Emulator_Run+0xbe>
 8002ea8:	b2db      	uxtb	r3, r3
 8002eaa:	ea45 2303 	orr.w	r3, r5, r3, lsl #8
 8002eae:	ea42 2200 	orr.w	r2, r2, r0, lsl #8
 8002eb2:	f8a7 3106 	strh.w	r3, [r7, #262]	; 0x106
 8002eb6:	f8a7 2108 	strh.w	r2, [r7, #264]	; 0x108
 8002eba:	f7fd be4c 	b.w	8000b56 <PMB_Emulator_Run+0xbe>
 8002ebe:	bf00      	nop
 8002ec0:	1ffe888c 	.word	0x1ffe888c
 8002ec4:	b2db      	uxtb	r3, r3
 8002ec6:	ea45 2303 	orr.w	r3, r5, r3, lsl #8
 8002eca:	ea42 2200 	orr.w	r2, r2, r0, lsl #8
 8002ece:	f8a7 310e 	strh.w	r3, [r7, #270]	; 0x10e
 8002ed2:	f8a7 2110 	strh.w	r2, [r7, #272]	; 0x110
 8002ed6:	f7fd be3e 	b.w	8000b56 <PMB_Emulator_Run+0xbe>
 8002eda:	b2db      	uxtb	r3, r3
 8002edc:	b2c9      	uxtb	r1, r1
 8002ede:	ea45 2303 	orr.w	r3, r5, r3, lsl #8
 8002ee2:	ea42 2200 	orr.w	r2, r2, r0, lsl #8
 8002ee6:	ea46 2101 	orr.w	r1, r6, r1, lsl #8
 8002eea:	f8a7 3112 	strh.w	r3, [r7, #274]	; 0x112
 8002eee:	f8a7 2114 	strh.w	r2, [r7, #276]	; 0x114
 8002ef2:	f8a7 1116 	strh.w	r1, [r7, #278]	; 0x116
 8002ef6:	f7fd be2e 	b.w	8000b56 <PMB_Emulator_Run+0xbe>
 8002efa:	b2db      	uxtb	r3, r3
 8002efc:	b2c9      	uxtb	r1, r1
 8002efe:	ea45 2303 	orr.w	r3, r5, r3, lsl #8
 8002f02:	ea42 2200 	orr.w	r2, r2, r0, lsl #8
 8002f06:	ea46 2101 	orr.w	r1, r6, r1, lsl #8
 8002f0a:	f8a7 311e 	strh.w	r3, [r7, #286]	; 0x11e
 8002f0e:	f8a7 2120 	strh.w	r2, [r7, #288]	; 0x120
 8002f12:	f8a7 1122 	strh.w	r1, [r7, #290]	; 0x122
 8002f16:	f7fd be1e 	b.w	8000b56 <PMB_Emulator_Run+0xbe>
 8002f1a:	b2db      	uxtb	r3, r3
 8002f1c:	b2c9      	uxtb	r1, r1
 8002f1e:	ea45 2303 	orr.w	r3, r5, r3, lsl #8
 8002f22:	ea42 2200 	orr.w	r2, r2, r0, lsl #8
 8002f26:	ea46 2101 	orr.w	r1, r6, r1, lsl #8
 8002f2a:	f8a7 3124 	strh.w	r3, [r7, #292]	; 0x124
 8002f2e:	f8a7 2126 	strh.w	r2, [r7, #294]	; 0x126
 8002f32:	f8a7 1128 	strh.w	r1, [r7, #296]	; 0x128
 8002f36:	f7fd be0e 	b.w	8000b56 <PMB_Emulator_Run+0xbe>
 8002f3a:	b2db      	uxtb	r3, r3
 8002f3c:	ea45 2303 	orr.w	r3, r5, r3, lsl #8
 8002f40:	ea42 2200 	orr.w	r2, r2, r0, lsl #8
 8002f44:	f8a7 3130 	strh.w	r3, [r7, #304]	; 0x130
 8002f48:	f8a7 2132 	strh.w	r2, [r7, #306]	; 0x132
 8002f4c:	f7fd be03 	b.w	8000b56 <PMB_Emulator_Run+0xbe>
 8002f50:	b2db      	uxtb	r3, r3
 8002f52:	ea45 2303 	orr.w	r3, r5, r3, lsl #8
 8002f56:	ea42 2200 	orr.w	r2, r2, r0, lsl #8
 8002f5a:	f8a7 3134 	strh.w	r3, [r7, #308]	; 0x134
 8002f5e:	f8a7 2136 	strh.w	r2, [r7, #310]	; 0x136
 8002f62:	f7fd bdf8 	b.w	8000b56 <PMB_Emulator_Run+0xbe>
 8002f66:	b2db      	uxtb	r3, r3
 8002f68:	ea45 2303 	orr.w	r3, r5, r3, lsl #8
 8002f6c:	ea42 2200 	orr.w	r2, r2, r0, lsl #8
 8002f70:	f8a7 313c 	strh.w	r3, [r7, #316]	; 0x13c
 8002f74:	f8a7 213e 	strh.w	r2, [r7, #318]	; 0x13e
 8002f78:	f7fd bded 	b.w	8000b56 <PMB_Emulator_Run+0xbe>
 8002f7c:	b2db      	uxtb	r3, r3
 8002f7e:	ea45 2303 	orr.w	r3, r5, r3, lsl #8
 8002f82:	ea42 2200 	orr.w	r2, r2, r0, lsl #8
 8002f86:	f8a7 3140 	strh.w	r3, [r7, #320]	; 0x140
 8002f8a:	f8a7 2142 	strh.w	r2, [r7, #322]	; 0x142
 8002f8e:	f7fd bde2 	b.w	8000b56 <PMB_Emulator_Run+0xbe>
 8002f92:	b2db      	uxtb	r3, r3
 8002f94:	b2c9      	uxtb	r1, r1
 8002f96:	ea45 2303 	orr.w	r3, r5, r3, lsl #8
 8002f9a:	ea42 2200 	orr.w	r2, r2, r0, lsl #8
 8002f9e:	ea46 2101 	orr.w	r1, r6, r1, lsl #8
 8002fa2:	f8a7 314a 	strh.w	r3, [r7, #330]	; 0x14a
 8002fa6:	f8a7 214c 	strh.w	r2, [r7, #332]	; 0x14c
 8002faa:	f8a7 114e 	strh.w	r1, [r7, #334]	; 0x14e
 8002fae:	f7fd bdd2 	b.w	8000b56 <PMB_Emulator_Run+0xbe>
 8002fb2:	b2db      	uxtb	r3, r3
 8002fb4:	ea45 2303 	orr.w	r3, r5, r3, lsl #8
 8002fb8:	ea42 2200 	orr.w	r2, r2, r0, lsl #8
 8002fbc:	f8a7 3150 	strh.w	r3, [r7, #336]	; 0x150
 8002fc0:	f8a7 2152 	strh.w	r2, [r7, #338]	; 0x152
 8002fc4:	f7fd bdc7 	b.w	8000b56 <PMB_Emulator_Run+0xbe>
 8002fc8:	b2db      	uxtb	r3, r3
 8002fca:	ea45 2303 	orr.w	r3, r5, r3, lsl #8
 8002fce:	ea42 2200 	orr.w	r2, r2, r0, lsl #8
 8002fd2:	f8a7 3158 	strh.w	r3, [r7, #344]	; 0x158
 8002fd6:	f8a7 215a 	strh.w	r2, [r7, #346]	; 0x15a
 8002fda:	f7fd bdbc 	b.w	8000b56 <PMB_Emulator_Run+0xbe>
 8002fde:	ea45 2303 	orr.w	r3, r5, r3, lsl #8
 8002fe2:	4310      	orrs	r0, r2
 8002fe4:	f8a7 3160 	strh.w	r3, [r7, #352]	; 0x160
 8002fe8:	f8a7 0162 	strh.w	r0, [r7, #354]	; 0x162
 8002fec:	f7fd bdb3 	b.w	8000b56 <PMB_Emulator_Run+0xbe>
 8002ff0:	ea45 2303 	orr.w	r3, r5, r3, lsl #8
 8002ff4:	4310      	orrs	r0, r2
 8002ff6:	f8a7 3164 	strh.w	r3, [r7, #356]	; 0x164
 8002ffa:	f8a7 0166 	strh.w	r0, [r7, #358]	; 0x166
 8002ffe:	f7fd bdaa 	b.w	8000b56 <PMB_Emulator_Run+0xbe>
 8003002:	49d9      	ldr	r1, [pc, #868]	; (8003368 <PMB_Emulator_Run+0x28d0>)
 8003004:	b2db      	uxtb	r3, r3
 8003006:	ea45 2303 	orr.w	r3, r5, r3, lsl #8
 800300a:	ea42 2200 	orr.w	r2, r2, r0, lsl #8
 800300e:	f8a1 3168 	strh.w	r3, [r1, #360]	; 0x168
 8003012:	f8a1 216a 	strh.w	r2, [r1, #362]	; 0x16a
 8003016:	f7fd bd9e 	b.w	8000b56 <PMB_Emulator_Run+0xbe>
 800301a:	b2db      	uxtb	r3, r3
 800301c:	ea45 2303 	orr.w	r3, r5, r3, lsl #8
 8003020:	ea42 2200 	orr.w	r2, r2, r0, lsl #8
 8003024:	f8ae 316c 	strh.w	r3, [lr, #364]	; 0x16c
 8003028:	f8ae 216e 	strh.w	r2, [lr, #366]	; 0x16e
 800302c:	f7fd bd93 	b.w	8000b56 <PMB_Emulator_Run+0xbe>
 8003030:	b2db      	uxtb	r3, r3
 8003032:	b2c9      	uxtb	r1, r1
 8003034:	ea45 2303 	orr.w	r3, r5, r3, lsl #8
 8003038:	ea42 2200 	orr.w	r2, r2, r0, lsl #8
 800303c:	ea46 2101 	orr.w	r1, r6, r1, lsl #8
 8003040:	f8ae 3176 	strh.w	r3, [lr, #374]	; 0x176
 8003044:	f8ae 2178 	strh.w	r2, [lr, #376]	; 0x178
 8003048:	f8ae 117a 	strh.w	r1, [lr, #378]	; 0x17a
 800304c:	f7fd bd83 	b.w	8000b56 <PMB_Emulator_Run+0xbe>
 8003050:	b2db      	uxtb	r3, r3
 8003052:	ea45 2303 	orr.w	r3, r5, r3, lsl #8
 8003056:	ea42 2200 	orr.w	r2, r2, r0, lsl #8
 800305a:	f8ae 317c 	strh.w	r3, [lr, #380]	; 0x17c
 800305e:	f8ae 217e 	strh.w	r2, [lr, #382]	; 0x17e
 8003062:	f7fd bd78 	b.w	8000b56 <PMB_Emulator_Run+0xbe>
 8003066:	b2db      	uxtb	r3, r3
 8003068:	ea45 2303 	orr.w	r3, r5, r3, lsl #8
 800306c:	ea42 2200 	orr.w	r2, r2, r0, lsl #8
 8003070:	f8ae 3184 	strh.w	r3, [lr, #388]	; 0x184
 8003074:	f8ae 2186 	strh.w	r2, [lr, #390]	; 0x186
 8003078:	f7fd bd6d 	b.w	8000b56 <PMB_Emulator_Run+0xbe>
 800307c:	b2db      	uxtb	r3, r3
 800307e:	ea45 2303 	orr.w	r3, r5, r3, lsl #8
 8003082:	ea42 2200 	orr.w	r2, r2, r0, lsl #8
 8003086:	f8ae 3188 	strh.w	r3, [lr, #392]	; 0x188
 800308a:	f8ae 218a 	strh.w	r2, [lr, #394]	; 0x18a
 800308e:	f7fd bd62 	b.w	8000b56 <PMB_Emulator_Run+0xbe>
 8003092:	b2db      	uxtb	r3, r3
 8003094:	b2c9      	uxtb	r1, r1
 8003096:	ea45 2303 	orr.w	r3, r5, r3, lsl #8
 800309a:	ea42 2200 	orr.w	r2, r2, r0, lsl #8
 800309e:	ea46 2101 	orr.w	r1, r6, r1, lsl #8
 80030a2:	f8ae 3224 	strh.w	r3, [lr, #548]	; 0x224
 80030a6:	f8ae 2226 	strh.w	r2, [lr, #550]	; 0x226
 80030aa:	f8ae 1228 	strh.w	r1, [lr, #552]	; 0x228
 80030ae:	f7fd bd52 	b.w	8000b56 <PMB_Emulator_Run+0xbe>
 80030b2:	b2db      	uxtb	r3, r3
 80030b4:	b2c9      	uxtb	r1, r1
 80030b6:	ea45 2303 	orr.w	r3, r5, r3, lsl #8
 80030ba:	ea42 2200 	orr.w	r2, r2, r0, lsl #8
 80030be:	ea46 2101 	orr.w	r1, r6, r1, lsl #8
 80030c2:	f8ae 322a 	strh.w	r3, [lr, #554]	; 0x22a
 80030c6:	f8ae 222c 	strh.w	r2, [lr, #556]	; 0x22c
 80030ca:	f8ae 122e 	strh.w	r1, [lr, #558]	; 0x22e
 80030ce:	f7fd bd42 	b.w	8000b56 <PMB_Emulator_Run+0xbe>
 80030d2:	b2db      	uxtb	r3, r3
 80030d4:	b2c9      	uxtb	r1, r1
 80030d6:	ea45 2303 	orr.w	r3, r5, r3, lsl #8
 80030da:	ea42 2200 	orr.w	r2, r2, r0, lsl #8
 80030de:	ea46 2101 	orr.w	r1, r6, r1, lsl #8
 80030e2:	f8ae 3236 	strh.w	r3, [lr, #566]	; 0x236
 80030e6:	f8ae 2238 	strh.w	r2, [lr, #568]	; 0x238
 80030ea:	f8ae 123a 	strh.w	r1, [lr, #570]	; 0x23a
 80030ee:	f7fd bd32 	b.w	8000b56 <PMB_Emulator_Run+0xbe>
 80030f2:	b2db      	uxtb	r3, r3
 80030f4:	b2c9      	uxtb	r1, r1
 80030f6:	ea45 2303 	orr.w	r3, r5, r3, lsl #8
 80030fa:	ea42 2200 	orr.w	r2, r2, r0, lsl #8
 80030fe:	ea46 2101 	orr.w	r1, r6, r1, lsl #8
 8003102:	f8ae 323c 	strh.w	r3, [lr, #572]	; 0x23c
 8003106:	f8ae 223e 	strh.w	r2, [lr, #574]	; 0x23e
 800310a:	f8ae 1240 	strh.w	r1, [lr, #576]	; 0x240
 800310e:	f7fd bd22 	b.w	8000b56 <PMB_Emulator_Run+0xbe>
 8003112:	b2db      	uxtb	r3, r3
 8003114:	ea45 2303 	orr.w	r3, r5, r3, lsl #8
 8003118:	ea42 2200 	orr.w	r2, r2, r0, lsl #8
 800311c:	f8ae 3246 	strh.w	r3, [lr, #582]	; 0x246
 8003120:	f8ae 2248 	strh.w	r2, [lr, #584]	; 0x248
 8003124:	f7fd bd17 	b.w	8000b56 <PMB_Emulator_Run+0xbe>
 8003128:	b2db      	uxtb	r3, r3
 800312a:	ea45 2303 	orr.w	r3, r5, r3, lsl #8
 800312e:	ea42 2200 	orr.w	r2, r2, r0, lsl #8
 8003132:	f8ae 324a 	strh.w	r3, [lr, #586]	; 0x24a
 8003136:	f8ae 224c 	strh.w	r2, [lr, #588]	; 0x24c
 800313a:	f7fd bd0c 	b.w	8000b56 <PMB_Emulator_Run+0xbe>
 800313e:	b2db      	uxtb	r3, r3
 8003140:	ea45 2303 	orr.w	r3, r5, r3, lsl #8
 8003144:	ea42 2200 	orr.w	r2, r2, r0, lsl #8
 8003148:	f8ae 3252 	strh.w	r3, [lr, #594]	; 0x252
 800314c:	f8ae 2254 	strh.w	r2, [lr, #596]	; 0x254
 8003150:	f7fd bd01 	b.w	8000b56 <PMB_Emulator_Run+0xbe>
 8003154:	b2c9      	uxtb	r1, r1
 8003156:	ea45 2303 	orr.w	r3, r5, r3, lsl #8
 800315a:	4310      	orrs	r0, r2
 800315c:	ea46 2101 	orr.w	r1, r6, r1, lsl #8
 8003160:	f8ae 325c 	strh.w	r3, [lr, #604]	; 0x25c
 8003164:	f8ae 025e 	strh.w	r0, [lr, #606]	; 0x25e
 8003168:	f8ae 1260 	strh.w	r1, [lr, #608]	; 0x260
 800316c:	f7fd bcf3 	b.w	8000b56 <PMB_Emulator_Run+0xbe>
 8003170:	ea45 2303 	orr.w	r3, r5, r3, lsl #8
 8003174:	4310      	orrs	r0, r2
 8003176:	f8ae 3262 	strh.w	r3, [lr, #610]	; 0x262
 800317a:	f8ae 0264 	strh.w	r0, [lr, #612]	; 0x264
 800317e:	f7fd bcea 	b.w	8000b56 <PMB_Emulator_Run+0xbe>
 8003182:	4979      	ldr	r1, [pc, #484]	; (8003368 <PMB_Emulator_Run+0x28d0>)
 8003184:	b2db      	uxtb	r3, r3
 8003186:	ea45 2303 	orr.w	r3, r5, r3, lsl #8
 800318a:	ea42 2200 	orr.w	r2, r2, r0, lsl #8
 800318e:	f8a1 3266 	strh.w	r3, [r1, #614]	; 0x266
 8003192:	f8a1 2268 	strh.w	r2, [r1, #616]	; 0x268
 8003196:	f7fd bcde 	b.w	8000b56 <PMB_Emulator_Run+0xbe>
 800319a:	b2db      	uxtb	r3, r3
 800319c:	ea45 2303 	orr.w	r3, r5, r3, lsl #8
 80031a0:	ea42 2200 	orr.w	r2, r2, r0, lsl #8
 80031a4:	f8a7 326a 	strh.w	r3, [r7, #618]	; 0x26a
 80031a8:	f8a7 226c 	strh.w	r2, [r7, #620]	; 0x26c
 80031ac:	f7fd bcd3 	b.w	8000b56 <PMB_Emulator_Run+0xbe>
 80031b0:	b2db      	uxtb	r3, r3
 80031b2:	ea45 2303 	orr.w	r3, r5, r3, lsl #8
 80031b6:	ea42 2200 	orr.w	r2, r2, r0, lsl #8
 80031ba:	f8a7 3272 	strh.w	r3, [r7, #626]	; 0x272
 80031be:	f8a7 2274 	strh.w	r2, [r7, #628]	; 0x274
 80031c2:	f7fd bcc8 	b.w	8000b56 <PMB_Emulator_Run+0xbe>
 80031c6:	b2db      	uxtb	r3, r3
 80031c8:	ea45 2303 	orr.w	r3, r5, r3, lsl #8
 80031cc:	ea42 2200 	orr.w	r2, r2, r0, lsl #8
 80031d0:	f8a7 3276 	strh.w	r3, [r7, #630]	; 0x276
 80031d4:	f8a7 2278 	strh.w	r2, [r7, #632]	; 0x278
 80031d8:	f7fd bcbd 	b.w	8000b56 <PMB_Emulator_Run+0xbe>
 80031dc:	b2db      	uxtb	r3, r3
 80031de:	ea45 2303 	orr.w	r3, r5, r3, lsl #8
 80031e2:	ea42 2200 	orr.w	r2, r2, r0, lsl #8
 80031e6:	f8a7 327e 	strh.w	r3, [r7, #638]	; 0x27e
 80031ea:	f8a7 2280 	strh.w	r2, [r7, #640]	; 0x280
 80031ee:	f7fd bcb2 	b.w	8000b56 <PMB_Emulator_Run+0xbe>
 80031f2:	b2db      	uxtb	r3, r3
 80031f4:	b2c9      	uxtb	r1, r1
 80031f6:	ea45 2303 	orr.w	r3, r5, r3, lsl #8
 80031fa:	ea42 2200 	orr.w	r2, r2, r0, lsl #8
 80031fe:	ea46 2101 	orr.w	r1, r6, r1, lsl #8
 8003202:	f8a7 3282 	strh.w	r3, [r7, #642]	; 0x282
 8003206:	f8a7 2284 	strh.w	r2, [r7, #644]	; 0x284
 800320a:	f8a7 1286 	strh.w	r1, [r7, #646]	; 0x286
 800320e:	f7fd bca2 	b.w	8000b56 <PMB_Emulator_Run+0xbe>
 8003212:	b2db      	uxtb	r3, r3
 8003214:	ea45 2303 	orr.w	r3, r5, r3, lsl #8
 8003218:	ea42 2200 	orr.w	r2, r2, r0, lsl #8
 800321c:	f8a7 328e 	strh.w	r3, [r7, #654]	; 0x28e
 8003220:	f8a7 2290 	strh.w	r2, [r7, #656]	; 0x290
 8003224:	f7fd bc97 	b.w	8000b56 <PMB_Emulator_Run+0xbe>
 8003228:	b2db      	uxtb	r3, r3
 800322a:	ea45 2303 	orr.w	r3, r5, r3, lsl #8
 800322e:	ea42 2200 	orr.w	r2, r2, r0, lsl #8
 8003232:	f8a7 3292 	strh.w	r3, [r7, #658]	; 0x292
 8003236:	f8a7 2294 	strh.w	r2, [r7, #660]	; 0x294
 800323a:	f7fd bc8c 	b.w	8000b56 <PMB_Emulator_Run+0xbe>
 800323e:	494a      	ldr	r1, [pc, #296]	; (8003368 <PMB_Emulator_Run+0x28d0>)
 8003240:	b2db      	uxtb	r3, r3
 8003242:	ea45 2303 	orr.w	r3, r5, r3, lsl #8
 8003246:	ea42 2200 	orr.w	r2, r2, r0, lsl #8
 800324a:	f8a1 329a 	strh.w	r3, [r1, #666]	; 0x29a
 800324e:	f8a1 229c 	strh.w	r2, [r1, #668]	; 0x29c
 8003252:	f7fd bc80 	b.w	8000b56 <PMB_Emulator_Run+0xbe>
 8003256:	b2db      	uxtb	r3, r3
 8003258:	ea45 2303 	orr.w	r3, r5, r3, lsl #8
 800325c:	ea42 2200 	orr.w	r2, r2, r0, lsl #8
 8003260:	f8a7 329e 	strh.w	r3, [r7, #670]	; 0x29e
 8003264:	f8a7 22a0 	strh.w	r2, [r7, #672]	; 0x2a0
 8003268:	f7fd bc75 	b.w	8000b56 <PMB_Emulator_Run+0xbe>
 800326c:	b2c9      	uxtb	r1, r1
 800326e:	ea42 2200 	orr.w	r2, r2, r0, lsl #8
 8003272:	ea46 2101 	orr.w	r1, r6, r1, lsl #8
 8003276:	f8a7 22a8 	strh.w	r2, [r7, #680]	; 0x2a8
 800327a:	f8a7 12aa 	strh.w	r1, [r7, #682]	; 0x2aa
 800327e:	f7fd bc6a 	b.w	8000b56 <PMB_Emulator_Run+0xbe>
 8003282:	b2db      	uxtb	r3, r3
 8003284:	b2c9      	uxtb	r1, r1
 8003286:	ea45 2303 	orr.w	r3, r5, r3, lsl #8
 800328a:	ea42 2200 	orr.w	r2, r2, r0, lsl #8
 800328e:	ea46 2101 	orr.w	r1, r6, r1, lsl #8
 8003292:	f8a7 32ac 	strh.w	r3, [r7, #684]	; 0x2ac
 8003296:	f8a7 22ae 	strh.w	r2, [r7, #686]	; 0x2ae
 800329a:	f8a7 12b0 	strh.w	r1, [r7, #688]	; 0x2b0
 800329e:	f7fd bc5a 	b.w	8000b56 <PMB_Emulator_Run+0xbe>
 80032a2:	4931      	ldr	r1, [pc, #196]	; (8003368 <PMB_Emulator_Run+0x28d0>)
 80032a4:	b2db      	uxtb	r3, r3
 80032a6:	ea45 2303 	orr.w	r3, r5, r3, lsl #8
 80032aa:	ea42 2200 	orr.w	r2, r2, r0, lsl #8
 80032ae:	f8a1 32b8 	strh.w	r3, [r1, #696]	; 0x2b8
 80032b2:	f8a1 22ba 	strh.w	r2, [r1, #698]	; 0x2ba
 80032b6:	f7fd bc4e 	b.w	8000b56 <PMB_Emulator_Run+0xbe>
 80032ba:	f89e 321c 	ldrb.w	r3, [lr, #540]	; 0x21c
 80032be:	9a00      	ldr	r2, [sp, #0]
 80032c0:	ea23 0702 	bic.w	r7, r3, r2
 80032c4:	f88e 721c 	strb.w	r7, [lr, #540]	; 0x21c
 80032c8:	f7fd bc45 	b.w	8000b56 <PMB_Emulator_Run+0xbe>
 80032cc:	f89e 221d 	ldrb.w	r2, [lr, #541]	; 0x21d
 80032d0:	9900      	ldr	r1, [sp, #0]
 80032d2:	ea22 0701 	bic.w	r7, r2, r1
 80032d6:	f89e 221e 	ldrb.w	r2, [lr, #542]	; 0x21e
 80032da:	f88e 721d 	strb.w	r7, [lr, #541]	; 0x21d
 80032de:	ea22 0303 	bic.w	r3, r2, r3
 80032e2:	f88e 321e 	strb.w	r3, [lr, #542]	; 0x21e
 80032e6:	f89e 321f 	ldrb.w	r3, [lr, #543]	; 0x21f
 80032ea:	ea23 0c0c 	bic.w	ip, r3, ip
 80032ee:	f88e c21f 	strb.w	ip, [lr, #543]	; 0x21f
 80032f2:	f7fd bc30 	b.w	8000b56 <PMB_Emulator_Run+0xbe>
 80032f6:	4a1d      	ldr	r2, [pc, #116]	; (800336c <PMB_Emulator_Run+0x28d4>)
 80032f8:	2300      	movs	r3, #0
 80032fa:	a902      	add	r1, sp, #8
 80032fc:	5cc8      	ldrb	r0, [r1, r3]
 80032fe:	f812 1f01 	ldrb.w	r1, [r2, #1]!
 8003302:	3301      	adds	r3, #1
 8003304:	ea21 0100 	bic.w	r1, r1, r0
 8003308:	2b06      	cmp	r3, #6
 800330a:	7011      	strb	r1, [r2, #0]
 800330c:	d1f5      	bne.n	80032fa <PMB_Emulator_Run+0x2862>
 800330e:	f7fd bc22 	b.w	8000b56 <PMB_Emulator_Run+0xbe>
 8003312:	4a17      	ldr	r2, [pc, #92]	; (8003370 <PMB_Emulator_Run+0x28d8>)
 8003314:	2300      	movs	r3, #0
 8003316:	a902      	add	r1, sp, #8
 8003318:	5cc8      	ldrb	r0, [r1, r3]
 800331a:	f812 1f01 	ldrb.w	r1, [r2, #1]!
 800331e:	3301      	adds	r3, #1
 8003320:	ea21 0100 	bic.w	r1, r1, r0
 8003324:	2b06      	cmp	r3, #6
 8003326:	7011      	strb	r1, [r2, #0]
 8003328:	d1f5      	bne.n	8003316 <PMB_Emulator_Run+0x287e>
 800332a:	f7fd bc14 	b.w	8000b56 <PMB_Emulator_Run+0xbe>
 800332e:	490e      	ldr	r1, [pc, #56]	; (8003368 <PMB_Emulator_Run+0x28d0>)
 8003330:	b2db      	uxtb	r3, r3
 8003332:	ea45 2303 	orr.w	r3, r5, r3, lsl #8
 8003336:	ea42 2200 	orr.w	r2, r2, r0, lsl #8
 800333a:	f8a1 32ce 	strh.w	r3, [r1, #718]	; 0x2ce
 800333e:	f8a1 22d0 	strh.w	r2, [r1, #720]	; 0x2d0
 8003342:	f7fd bc08 	b.w	8000b56 <PMB_Emulator_Run+0xbe>
 8003346:	4b08      	ldr	r3, [pc, #32]	; (8003368 <PMB_Emulator_Run+0x28d0>)
 8003348:	f883 52d2 	strb.w	r5, [r3, #722]	; 0x2d2
 800334c:	f883 e2d3 	strb.w	lr, [r3, #723]	; 0x2d3
 8003350:	f883 22d4 	strb.w	r2, [r3, #724]	; 0x2d4
 8003354:	f883 92d5 	strb.w	r9, [r3, #725]	; 0x2d5
 8003358:	f883 62d6 	strb.w	r6, [r3, #726]	; 0x2d6
 800335c:	f7fd bbfb 	b.w	8000b56 <PMB_Emulator_Run+0xbe>
 8003360:	b007      	add	sp, #28
 8003362:	e8bd 8ff0 	ldmia.w	sp!, {r4, r5, r6, r7, r8, r9, sl, fp, pc}
 8003366:	bf00      	nop
 8003368:	1ffe888c 	.word	0x1ffe888c
 800336c:	1ffe8b47 	.word	0x1ffe8b47
 8003370:	1ffe8b50 	.word	0x1ffe8b50

08003374 <PMB_GetRegs>:
 8003374:	4800      	ldr	r0, [pc, #0]	; (8003378 <PMB_GetRegs+0x4>)
 8003376:	4770      	bx	lr
 8003378:	1ffe888c 	.word	0x1ffe888c

0800337c <expect_00>:
 800337c:	880b      	ldrh	r3, [r1, #0]
 800337e:	7003      	strb	r3, [r0, #0]
 8003380:	f3c3 2303 	ubfx	r3, r3, #8, #4
 8003384:	7043      	strb	r3, [r0, #1]
 8003386:	884b      	ldrh	r3, [r1, #2]
 8003388:	7083      	strb	r3, [r0, #2]
 800338a:	f3c3 2303 	ubfx	r3, r3, #8, #4
 800338e:	70c3      	strb	r3, [r0, #3]
 8003390:	888b      	ldrh	r3, [r1, #4]
 8003392:	7103      	strb	r3, [r0, #4]
 8003394:	f3c3 2303 	ubfx	r3, r3, #8, #4
 8003398:	7143      	strb	r3, [r0, #5]
 800339a:	4770      	bx	lr

0800339c <expect_01>:
 800339c:	88cb      	ldrh	r3, [r1, #6]
 800339e:	7003      	strb	r3, [r0, #0]
 80033a0:	f3c3 2303 	ubfx	r3, r3, #8, #4
 80033a4:	7043      	strb	r3, [r0, #1]
 80033a6:	890b      	ldrh	r3, [r1, #8]
 80033a8:	7083      	strb	r3, [r0, #2]
 80033aa:	f3c3 2303 	ubfx	r3, r3, #8, #4
 80033ae:	70c3      	strb	r3, [r0, #3]
 80033b0:	894b      	ldrh	r3, [r1, #10]
 80033b2:	7103      	strb	r3, [r0, #4]
 80033b4:	f3c3 2303 	ubfx	r3, r3, #8, #4
 80033b8:	7143      	strb	r3, [r0, #5]
 80033ba:	4770      	bx	lr

080033bc <expect_02>:
 80033bc:	898b      	ldrh	r3, [r1, #12]
 80033be:	7003      	strb	r3, [r0, #0]
 80033c0:	f3c3 2303 	ubfx	r3, r3, #8, #4
 80033c4:	7043      	strb	r3, [r0, #1]
 80033c6:	89cb      	ldrh	r3, [r1, #14]
 80033c8:	7083      	strb	r3, [r0, #2]
 80033ca:	f3c3 2303 	ubfx	r3, r3, #8, #4
 80033ce:	70c3      	strb	r3, [r0, #3]
 80033d0:	8a0b      	ldrh	r3, [r1, #16]
 80033d2:	7103      	strb	r3, [r0, #4]
 80033d4:	f3c3 2303 	ubfx	r3, r3, #8, #4
 80033d8:	7143      	strb	r3, [r0, #5]
 80033da:	4770      	bx	lr

080033dc <expect_03>:
 80033dc:	8a4b      	ldrh	r3, [r1, #18]
 80033de:	7003      	strb	r3, [r0, #0]
 80033e0:	f3c3 2303 	ubfx	r3, r3, #8, #4
 80033e4:	7043      	strb	r3, [r0, #1]
 80033e6:	8a8b      	ldrh	r3, [r1, #20]
 80033e8:	7083      	strb	r3, [r0, #2]
 80033ea:	f3c3 2303 	ubfx	r3, r3, #8, #4
 80033ee:	70c3      	strb	r3, [r0, #3]
 80033f0:	8acb      	ldrh	r3, [r1, #22]
 80033f2:	7103      	strb	r3, [r0, #4]
 80033f4:	f3c3 2303 	ubfx	r3, r3, #8, #4
 80033f8:	7143      	strb	r3, [r0, #5]
 80033fa:	4770      	bx	lr

080033fc <expect_04>:
 80033fc:	8b0b      	ldrh	r3, [r1, #24]
 80033fe:	7003      	strb	r3, [r0, #0]
 8003400:	f3c3 2303 	ubfx	r3, r3, #8, #4
 8003404:	7043      	strb	r3, [r0, #1]
 8003406:	8b4b      	ldrh	r3, [r1, #26]
 8003408:	7083      	strb	r3, [r0, #2]
 800340a:	f3c3 2303 	ubfx	r3, r3, #8, #4
 800340e:	70c3      	strb	r3, [r0, #3]
 8003410:	8b8b      	ldrh	r3, [r1, #28]
 8003412:	7103      	strb	r3, [r0, #4]
 8003414:	f3c3 2303 	ubfx	r3, r3, #8, #4
 8003418:	7143      	strb	r3, [r0, #5]
 800341a:	4770      	bx	lr

0800341c <expect_05>:
 800341c:	8bcb      	ldrh	r3, [r1, #30]
 800341e:	7003      	strb	r3, [r0, #0]
 8003420:	f3c3 2303 	ubfx	r3, r3, #8, #4
 8003424:	7043      	strb	r3, [r0, #1]
 8003426:	8c0b      	ldrh	r3, [r1, #32]
 8003428:	7083      	strb	r3, [r0, #2]
 800342a:	f3c3 2303 	ubfx	r3, r3, #8, #4
 800342e:	70c3      	strb	r3, [r0, #3]
 8003430:	4770      	bx	lr

08003432 <expect_06>:
 8003432:	8c4b      	ldrh	r3, [r1, #34]	; 0x22
 8003434:	7003      	strb	r3, [r0, #0]
 8003436:	f3c3 2303 	ubfx	r3, r3, #8, #4
 800343a:	7043      	strb	r3, [r0, #1]
 800343c:	8c8b      	ldrh	r3, [r1, #36]	; 0x24
 800343e:	7083      	strb	r3, [r0, #2]
 8003440:	f3c3 2303 	ubfx	r3, r3, #8, #4
 8003444:	70c3      	strb	r3, [r0, #3]
 8003446:	4770      	bx	lr

08003448 <expect_07>:
 8003448:	8ccb      	ldrh	r3, [r1, #38]	; 0x26
 800344a:	7003      	strb	r3, [r0, #0]
 800344c:	f3c3 2303 	ubfx	r3, r3, #8, #4
 8003450:	7043      	strb	r3, [r0, #1]
 8003452:	8d0b      	ldrh	r3, [r1, #40]	; 0x28
 8003454:	7083      	strb	r3, [r0, #2]
 8003456:	f3c3 2303 	ubfx	r3, r3, #8, #4
 800345a:	70c3      	strb	r3, [r0, #3]
 800345c:	4770      	bx	lr

0800345e <expect_08>:
 800345e:	8d4b      	ldrh	r3, [r1, #42]	; 0x2a
 8003460:	7003      	strb	r3, [r0, #0]
 8003462:	f3c3 2303 	ubfx	r3, r3, #8, #4
 8003466:	7043      	strb	r3, [r0, #1]
 8003468:	8d8b      	ldrh	r3, [r1, #44]	; 0x2c
 800346a:	7083      	strb	r3, [r0, #2]
 800346c:	f3c3 2303 	ubfx	r3, r3, #8, #4
 8003470:	70c3      	strb	r3, [r0, #3]
 8003472:	4770      	bx	lr

08003474 <expect_09>:
 8003474:	8dcb      	ldrh	r3, [r1, #46]	; 0x2e
 8003476:	7003      	strb	r3, [r0, #0]
 8003478:	f3c3 2303 	ubfx	r3, r3, #8, #4
 800347c:	7043      	strb	r3, [r0, #1]
 800347e:	8e0b      	ldrh	r3, [r1, #48]	; 0x30
 8003480:	7083      	strb	r3, [r0, #2]
 8003482:	f3c3 2303 	ubfx	r3, r3, #8, #4
 8003486:	70c3      	strb	r3, [r0, #3]
 8003488:	4770      	bx	lr

0800348a <expect_0A>:
 800348a:	8e4b      	ldrh	r3, [r1, #50]	; 0x32
 800348c:	7003      	strb	r3, [r0, #0]
 800348e:	f3c3 2303 	ubfx	r3, r3, #8, #4
 8003492:	7043      	strb	r3, [r0, #1]
 8003494:	8e8b      	ldrh	r3, [r1, #52]	; 0x34
 8003496:	7083      	strb	r3, [r0, #2]
 8003498:	f3c3 2303 	ubfx	r3, r3, #8, #4
 800349c:	70c3      	strb	r3, [r0, #3]
 800349e:	8ecb      	ldrh	r3, [r1, #54]	; 0x36
 80034a0:	7103      	strb	r3, [r0, #4]
 80034a2:	f3c3 2303 	ubfx	r3, r3, #8, #4
 80034a6:	7143      	strb	r3, [r0, #5]
 80034a8:	4770      	bx	lr

080034aa <expect_0B>:
 80034aa:	8f0b      	ldrh	r3, [r1, #56]	; 0x38
 80034ac:	7003      	strb	r3, [r0, #0]
 80034ae:	f3c3 2303 	ubfx	r3, r3, #8, #4
 80034b2:	7043      	strb	r3, [r0, #1]
 80034b4:	8f4b      	ldrh	r3, [r1, #58]	; 0x3a
 80034b6:	7083      	strb	r3, [r0, #2]
 80034b8:	f3c3 2303 	ubfx	r3, r3, #8, #4
 80034bc:	70c3      	strb	r3, [r0, #3]
 80034be:	8f8b      	ldrh	r3, [r1, #60]	; 0x3c
 80034c0:	7103      	strb	r3, [r0, #4]
 80034c2:	f3c3 2303 	ubfx	r3, r3, #8, #4
 80034c6:	7143      	strb	r3, [r0, #5]
 80034c8:	4770      	bx	lr

080034ca <expect_0C>:
 80034ca:	8fcb      	ldrh	r3, [r1, #62]	; 0x3e
 80034cc:	7003      	strb	r3, [r0, #0]
 80034ce:	f3c3 2303 	ubfx	r3, r3, #8, #4
 80034d2:	7043      	strb	r3, [r0, #1]
 80034d4:	f8b1 3040 	ldrh.w	r3, [r1, #64]	; 0x40
 80034d8:	7083      	strb	r3, [r0, #2]
 80034da:	f3c3 2303 	ubfx	r3, r3, #8, #4
 80034de:	70c3      	strb	r3, [r0, #3]
 80034e0:	4770      	bx	lr

080034e2 <expect_0D>:
 80034e2:	f8b1 3042 	ldrh.w	r3, [r1, #66]	; 0x42
 80034e6:	7003      	strb	r3, [r0, #0]
 80034e8:	f3c3 2303 	ubfx	r3, r3, #8, #4
 80034ec:	7043      	strb	r3, [r0, #1]
 80034ee:	f8b1 3044 	ldrh.w	r3, [r1, #68]	; 0x44
 80034f2:	7083      	strb	r3, [r0, #2]
 80034f4:	f3c3 2303 	ubfx	r3, r3, #8, #4
 80034f8:	70c3      	strb	r3, [r0, #3]
 80034fa:	4770      	bx	lr

080034fc <expect_0E>:
 80034fc:	f8b1 3046 	ldrh.w	r3, [r1, #70]	; 0x46
 8003500:	7003      	strb	r3, [r0, #0]
 8003502:	f3c3 2303 	ubfx	r3, r3, #8, #4
 8003506:	7043      	strb	r3, [r0, #1]
 8003508:	f8b1 3048 	ldrh.w	r3, [r1, #72]	; 0x48
 800350c:	7083      	strb	r3, [r0, #2]
 800350e:	f3c3 2303 	ubfx	r3, r3, #8, #4
 8003512:	70c3      	strb	r3, [r0, #3]
 8003514:	4770      	bx	lr

08003516 <expect_0F>:
 8003516:	f8b1 304a 	ldrh.w	r3, [r1, #74]	; 0x4a
 800351a:	7003      	strb	r3, [r0, #0]
 800351c:	f3c3 2303 	ubfx	r3, r3, #8, #4
 8003520:	7043      	strb	r3, [r0, #1]
 8003522:	f8b1 304c 	ldrh.w	r3, [r1, #76]	; 0x4c
 8003526:	7083      	strb	r3, [r0, #2]
 8003528:	f3c3 2303 	ubfx	r3, r3, #8, #4
 800352c:	70c3      	strb	r3, [r0, #3]
 800352e:	4770      	bx	lr

08003530 <expect_10>:
 8003530:	f8b1 304e 	ldrh.w	r3, [r1, #78]	; 0x4e
 8003534:	7003      	strb	r3, [r0, #0]
 8003536:	f3c3 2303 	ubfx	r3, r3, #8, #4
 800353a:	7043      	strb	r3, [r0, #1]
 800353c:	f8b1 3050 	ldrh.w	r3, [r1, #80]	; 0x50
 8003540:	7083      	strb	r3, [r0, #2]
 8003542:	f3c3 2303 	ubfx	r3, r3, #8, #4
 8003546:	70c3      	strb	r3, [r0, #3]
 8003548:	4770      	bx	lr

0800354a <expect_11>:
 800354a:	f8b1 3052 	ldrh.w	r3, [r1, #82]	; 0x52
 800354e:	7003      	strb	r3, [r0, #0]
 8003550:	f3c3 2303 	ubfx	r3, r3, #8, #4
 8003554:	7043      	strb	r3, [r0, #1]
 8003556:	f8b1 3054 	ldrh.w	r3, [r1, #84]	; 0x54
 800355a:	7083      	strb	r3, [r0, #2]
 800355c:	f3c3 2303 	ubfx	r3, r3, #8, #4
 8003560:	70c3      	strb	r3, [r0, #3]
 8003562:	4770      	bx	lr

08003564 <expect_12>:
 8003564:	f8b1 3056 	ldrh.w	r3, [r1, #86]	; 0x56
 8003568:	7003      	strb	r3, [r0, #0]
 800356a:	f3c3 2303 	ubfx	r3, r3, #8, #4
 800356e:	7043      	strb	r3, [r0, #1]
 8003570:	f8b1 3058 	ldrh.w	r3, [r1, #88]	; 0x58
 8003574:	7083      	strb	r3, [r0, #2]
 8003576:	f3c3 2303 	ubfx	r3, r3, #8, #4
 800357a:	70c3      	strb	r3, [r0, #3]
 800357c:	4770      	bx	lr

0800357e <expect_13>:
 800357e:	f8b1 305a 	ldrh.w	r3, [r1, #90]	; 0x5a
 8003582:	7003      	strb	r3, [r0, #0]
 8003584:	f3c3 2303 	ubfx	r3, r3, #8, #4
 8003588:	7043      	strb	r3, [r0, #1]
 800358a:	f8b1 305c 	ldrh.w	r3, [r1, #92]	; 0x5c
 800358e:	7083      	strb	r3, [r0, #2]
 8003590:	f3c3 2303 	ubfx	r3, r3, #8, #4
 8003594:	70c3      	strb	r3, [r0, #3]
 8003596:	4770      	bx	lr

08003598 <expect_14>:
 8003598:	f8b1 305e 	ldrh.w	r3, [r1, #94]	; 0x5e
 800359c:	7003      	strb	r3, [r0, #0]
 800359e:	f3c3 2303 	ubfx	r3, r3, #8, #4
 80035a2:	7043      	strb	r3, [r0, #1]
 80035a4:	f8b1 3060 	ldrh.w	r3, [r1, #96]	; 0x60
 80035a8:	7083      	strb	r3, [r0, #2]
 80035aa:	f3c3 2303 	ubfx	r3, r3, #8, #4
 80035ae:	70c3      	strb	r3, [r0, #3]
 80035b0:	f8b1 3062 	ldrh.w	r3, [r1, #98]	; 0x62
 80035b4:	7103      	strb	r3, [r0, #4]
 80035b6:	f3c3 2303 	ubfx	r3, r3, #8, #4
 80035ba:	7143      	strb	r3, [r0, #5]
 80035bc:	4770      	bx	lr

080035be <expect_15>:
 80035be:	f8b1 3064 	ldrh.w	r3, [r1, #100]	; 0x64
 80035c2:	7003      	strb	r3, [r0, #0]
 80035c4:	f3c3 2303 	ubfx	r3, r3, #8, #4
 80035c8:	7043      	strb	r3, [r0, #1]
 80035ca:	f8b1 3066 	ldrh.w	r3, [r1, #102]	; 0x66
 80035ce:	7083      	strb	r3, [r0, #2]
 80035d0:	f3c3 2303 	ubfx	r3, r3, #8, #4
 80035d4:	70c3      	strb	r3, [r0, #3]
 80035d6:	f8b1 3068 	ldrh.w	r3, [r1, #104]	; 0x68
 80035da:	7103      	strb	r3, [r0, #4]
 80035dc:	f3c3 2303 	ubfx	r3, r3, #8, #4
 80035e0:	7143      	strb	r3, [r0, #5]
 80035e2:	4770      	bx	lr

080035e4 <expect_16>:
 80035e4:	f8b1 306a 	ldrh.w	r3, [r1, #106]	; 0x6a
 80035e8:	7003      	strb	r3, [r0, #0]
 80035ea:	f3c3 2303 	ubfx	r3, r3, #8, #4
 80035ee:	7043      	strb	r3, [r0, #1]
 80035f0:	f8b1 306c 	ldrh.w	r3, [r1, #108]	; 0x6c
 80035f4:	7083      	strb	r3, [r0, #2]
 80035f6:	f3c3 2303 	ubfx	r3, r3, #8, #4
 80035fa:	70c3      	strb	r3, [r0, #3]
 80035fc:	4770      	bx	lr

080035fe <expect_17>:
 80035fe:	f8b1 306e 	ldrh.w	r3, [r1, #110]	; 0x6e
 8003602:	7003      	strb	r3, [r0, #0]
 8003604:	f3c3 2303 	ubfx	r3, r3, #8, #4
 8003608:	7043      	strb	r3, [r0, #1]
 800360a:	f8b1 3070 	ldrh.w	r3, [r1, #112]	; 0x70
 800360e:	7083      	strb	r3, [r0, #2]
 8003610:	f3c3 2303 	ubfx	r3, r3, #8, #4
 8003614:	70c3      	strb	r3, [r0, #3]
 8003616:	4770      	bx	lr

08003618 <expect_18>:
 8003618:	f8b1 3072 	ldrh.w	r3, [r1, #114]	; 0x72
 800361c:	7003      	strb	r3, [r0, #0]
 800361e:	f3c3 2303 	ubfx	r3, r3, #8, #4
 8003622:	7043      	strb	r3, [r0, #1]
 8003624:	f8b1 3074 	ldrh.w	r3, [r1, #116]	; 0x74
 8003628:	7083      	strb	r3, [r0, #2]
 800362a:	f3c3 2303 	ubfx	r3, r3, #8, #4
 800362e:	70c3      	strb	r3, [r0, #3]
 8003630:	4770      	bx	lr

08003632 <expect_19>:
 8003632:	f8b1 3076 	ldrh.w	r3, [r1, #118]	; 0x76
 8003636:	7003      	strb	r3, [r0, #0]
 8003638:	f3c3 2303 	ubfx	r3, r3, #8, #4
 800363c:	7043      	strb	r3, [r0, #1]
 800363e:	f8b1 3078 	ldrh.w	r3, [r1, #120]	; 0x78
 8003642:	7083      	strb	r3, [r0, #2]
 8003644:	f3c3 2303 	ubfx	r3, r3, #8, #4
 8003648:	70c3      	strb	r3, [r0, #3]
 800364a:	4770      	bx	lr

0800364c <expect_1A>:
 800364c:	f8b1 307a 	ldrh.w	r3, [r1, #122]	; 0x7a
 8003650:	7003      	strb	r3, [r0, #0]
 8003652:	f3c3 2303 	ubfx	r3, r3, #8, #4
 8003656:	7043      	strb	r3, [r0, #1]
 8003658:	f8b1 307c 	ldrh.w	r3, [r1, #124]	; 0x7c
 800365c:	7083      	strb	r3, [r0, #2]
 800365e:	f3c3 2303 	ubfx	r3, r3, #8, #4
 8003662:	70c3      	strb	r3, [r0, #3]
 8003664:	4770      	bx	lr

08003666 <expect_1B>:
 8003666:	f891 307e 	ldrb.w	r3, [r1, #126]	; 0x7e
 800366a:	7003      	strb	r3, [r0, #0]
 800366c:	f891 307f 	ldrb.w	r3, [r1, #127]	; 0x7f
 8003670:	7043      	strb	r3, [r0, #1]
 8003672:	f891 3080 	ldrb.w	r3, [r1, #128]	; 0x80
 8003676:	7083      	strb	r3, [r0, #2]
 8003678:	4770      	bx	lr

0800367a <expect_1C>:
 800367a:	f891 3081 	ldrb.w	r3, [r1, #129]	; 0x81
 800367e:	7003      	strb	r3, [r0, #0]
 8003680:	f891 3082 	ldrb.w	r3, [r1, #130]	; 0x82
 8003684:	7043      	strb	r3, [r0, #1]
 8003686:	f891 3083 	ldrb.w	r3, [r1, #131]	; 0x83
 800368a:	7083      	strb	r3, [r0, #2]
 800368c:	4770      	bx	lr

0800368e <expect_1D>:
 800368e:	f891 3084 	ldrb.w	r3, [r1, #132]	; 0x84
 8003692:	7003      	strb	r3, [r0, #0]
 8003694:	f891 3085 	ldrb.w	r3, [r1, #133]	; 0x85
 8003698:	7043      	strb	r3, [r0, #1]
 800369a:	4770      	bx	lr

0800369c <expect_1E>:
 800369c:	f891 3086 	ldrb.w	r3, [r1, #134]	; 0x86
 80036a0:	7003      	strb	r3, [r0, #0]
 80036a2:	f891 3087 	ldrb.w	r3, [r1, #135]	; 0x87
 80036a6:	7043      	strb	r3, [r0, #1]
 80036a8:	4770      	bx	lr

080036aa <expect_1F>:
 80036aa:	f891 3088 	ldrb.w	r3, [r1, #136]	; 0x88
 80036ae:	7003      	strb	r3, [r0, #0]
 80036b0:	4770      	bx	lr

080036b2 <expect_20>:
 80036b2:	f891 3089 	ldrb.w	r3, [r1, #137]	; 0x89
 80036b6:	7003      	strb	r3, [r0, #0]
 80036b8:	f891 308a 	ldrb.w	r3, [r1, #138]	; 0x8a
 80036bc:	7043      	strb	r3, [r0, #1]
 80036be:	f891 308b 	ldrb.w	r3, [r1, #139]	; 0x8b
 80036c2:	7083      	strb	r3, [r0, #2]
 80036c4:	4770      	bx	lr

080036c6 <expect_21>:
 80036c6:	f891 308c 	ldrb.w	r3, [r1, #140]	; 0x8c
 80036ca:	7003      	strb	r3, [r0, #0]
 80036cc:	f891 308d 	ldrb.w	r3, [r1, #141]	; 0x8d
 80036d0:	7043      	strb	r3, [r0, #1]
 80036d2:	f891 308e 	ldrb.w	r3, [r1, #142]	; 0x8e
 80036d6:	7083      	strb	r3, [r0, #2]
 80036d8:	f891 308f 	ldrb.w	r3, [r1, #143]	; 0x8f
 80036dc:	70c3      	strb	r3, [r0, #3]
 80036de:	4770      	bx	lr

080036e0 <expect_22>:
 80036e0:	f891 3090 	ldrb.w	r3, [r1, #144]	; 0x90
 80036e4:	7003      	strb	r3, [r0, #0]
 80036e6:	4770      	bx	lr

080036e8 <expect_23>:
 80036e8:	f891 3091 	ldrb.w	r3, [r1, #145]	; 0x91
 80036ec:	7003      	strb	r3, [r0, #0]
 80036ee:	f891 3092 	ldrb.w	r3, [r1, #146]	; 0x92
 80036f2:	7043      	strb	r3, [r0, #1]
 80036f4:	f891 3093 	ldrb.w	r3, [r1, #147]	; 0x93
 80036f8:	7083      	strb	r3, [r0, #2]
 80036fa:	4770      	bx	lr

080036fc <expect_30>:
 80036fc:	f8b1 3094 	ldrh.w	r3, [r1, #148]	; 0x94
 8003700:	7003      	strb	r3, [r0, #0]
 8003702:	0a1b      	lsrs	r3, r3, #8
 8003704:	7043      	strb	r3, [r0, #1]
 8003706:	f8b1 3096 	ldrh.w	r3, [r1, #150]	; 0x96
 800370a:	7083      	strb	r3, [r0, #2]
 800370c:	0a1b      	lsrs	r3, r3, #8
 800370e:	70c3      	strb	r3, [r0, #3]
 8003710:	f8b1 3098 	ldrh.w	r3, [r1, #152]	; 0x98
 8003714:	7103      	strb	r3, [r0, #4]
 8003716:	0a1b      	lsrs	r3, r3, #8
 8003718:	7143      	strb	r3, [r0, #5]
 800371a:	4770      	bx	lr

0800371c <expect_31>:
 800371c:	f8b1 309a 	ldrh.w	r3, [r1, #154]	; 0x9a
 8003720:	7003      	strb	r3, [r0, #0]
 8003722:	0a1b      	lsrs	r3, r3, #8
 8003724:	7043      	strb	r3, [r0, #1]
 8003726:	f8b1 309c 	ldrh.w	r3, [r1, #156]	; 0x9c
 800372a:	7083      	strb	r3, [r0, #2]
 800372c:	0a1b      	lsrs	r3, r3, #8
 800372e:	70c3      	strb	r3, [r0, #3]
 8003730:	f8b1 309e 	ldrh.w	r3, [r1, #158]	; 0x9e
 8003734:	7103      	strb	r3, [r0, #4]
 8003736:	0a1b      	lsrs	r3, r3, #8
 8003738:	7143      	strb	r3, [r0, #5]
 800373a:	4770      	bx	lr

0800373c <expect_32>:
 800373c:	f8b1 30a0 	ldrh.w	r3, [r1, #160]	; 0xa0
 8003740:	7003      	strb	r3, [r0, #0]
 8003742:	0a1b      	lsrs	r3, r3, #8
 8003744:	7043      	strb	r3, [r0, #1]
 8003746:	f8b1 30a2 	ldrh.w	r3, [r1, #162]	; 0xa2
 800374a:	7083      	strb	r3, [r0, #2]
 800374c:	0a1b      	lsrs	r3, r3, #8
 800374e:	70c3      	strb	r3, [r0, #3]
 8003750:	f8b1 30a4 	ldrh.w	r3, [r1, #164]	; 0xa4
 8003754:	7103      	strb	r3, [r0, #4]
 8003756:	0a1b      	lsrs	r3, r3, #8
 8003758:	7143      	strb	r3, [r0, #5]
 800375a:	4770      	bx	lr

0800375c <expect_33>:
 800375c:	f8b1 30a6 	ldrh.w	r3, [r1, #166]	; 0xa6
 8003760:	7003      	strb	r3, [r0, #0]
 8003762:	0a1b      	lsrs	r3, r3, #8
 8003764:	7043      	strb	r3, [r0, #1]
 8003766:	f8b1 30a8 	ldrh.w	r3, [r1, #168]	; 0xa8
 800376a:	7083      	strb	r3, [r0, #2]
 800376c:	0a1b      	lsrs	r3, r3, #8
 800376e:	70c3      	strb	r3, [r0, #3]
 8003770:	f8b1 30aa 	ldrh.w	r3, [r1, #170]	; 0xaa
 8003774:	7103      	strb	r3, [r0, #4]
 8003776:	0a1b      	lsrs	r3, r3, #8
 8003778:	7143      	strb	r3, [r0, #5]
 800377a:	4770      	bx	lr

0800377c <expect_34>:
 800377c:	f8b1 30ac 	ldrh.w	r3, [r1, #172]	; 0xac
 8003780:	7003      	strb	r3, [r0, #0]
 8003782:	0a1b      	lsrs	r3, r3, #8
 8003784:	7043      	strb	r3, [r0, #1]
 8003786:	f8b1 30ae 	ldrh.w	r3, [r1, #174]	; 0xae
 800378a:	7083      	strb	r3, [r0, #2]
 800378c:	0a1b      	lsrs	r3, r3, #8
 800378e:	70c3      	strb	r3, [r0, #3]
 8003790:	f8b1 30b0 	ldrh.w	r3, [r1, #176]	; 0xb0
 8003794:	7103      	strb	r3, [r0, #4]
 8003796:	0a1b      	lsrs	r3, r3, #8
 8003798:	7143      	strb	r3, [r0, #5]
 800379a:	4770      	bx	lr

0800379c <expect_35>:
 800379c:	f8b1 30b2 	ldrh.w	r3, [r1, #178]	; 0xb2
 80037a0:	7003      	strb	r3, [r0, #0]
 80037a2:	0a1b      	lsrs	r3, r3, #8
 80037a4:	7043      	strb	r3, [r0, #1]
 80037a6:	f8b1 30b4 	ldrh.w	r3, [r1, #180]	; 0xb4
 80037aa:	7083      	strb	r3, [r0, #2]
 80037ac:	0a1b      	lsrs	r3, r3, #8
 80037ae:	70c3      	strb	r3, [r0, #3]
 80037b0:	4770      	bx	lr

080037b2 <expect_36>:
 80037b2:	f8b1 30b6 	ldrh.w	r3, [r1, #182]	; 0xb6
 80037b6:	7003      	strb	r3, [r0, #0]
 80037b8:	0a1b      	lsrs	r3, r3, #8
 80037ba:	7043      	strb	r3, [r0, #1]
 80037bc:	f8b1 30b8 	ldrh.w	r3, [r1, #184]	; 0xb8
 80037c0:	7083      	strb	r3, [r0, #2]
 80037c2:	0a1b      	lsrs	r3, r3, #8
 80037c4:	70c3      	strb	r3, [r0, #3]
 80037c6:	4770      	bx	lr

080037c8 <expect_37>:
 80037c8:	f8b1 30ba 	ldrh.w	r3, [r1, #186]	; 0xba
 80037cc:	7003      	strb	r3, [r0, #0]
 80037ce:	0a1b      	lsrs	r3, r3, #8
 80037d0:	7043      	strb	r3, [r0, #1]
 80037d2:	f8b1 30bc 	ldrh.w	r3, [r1, #188]	; 0xbc
 80037d6:	7083      	strb	r3, [r0, #2]
 80037d8:	0a1b      	lsrs	r3, r3, #8
 80037da:	70c3      	strb	r3, [r0, #3]
 80037dc:	4770      	bx	lr

080037de <expect_38>:
 80037de:	f8b1 30be 	ldrh.w	r3, [r1, #190]	; 0xbe
 80037e2:	7003      	strb	r3, [r0, #0]
 80037e4:	0a1b      	lsrs	r3, r3, #8
 80037e6:	7043      	strb	r3, [r0, #1]
 80037e8:	f8b1 30c0 	ldrh.w	r3, [r1, #192]	; 0xc0
 80037ec:	7083      	strb	r3, [r0, #2]
 80037ee:	0a1b      	lsrs	r3, r3, #8
 80037f0:	70c3      	strb	r3, [r0, #3]
 80037f2:	4770      	bx	lr

080037f4 <expect_39>:
 80037f4:	f8b1 30c2 	ldrh.w	r3, [r1, #194]	; 0xc2
 80037f8:	7003      	strb	r3, [r0, #0]
 80037fa:	0a1b      	lsrs	r3, r3, #8
 80037fc:	7043      	strb	r3, [r0, #1]
 80037fe:	f8b1 30c4 	ldrh.w	r3, [r1, #196]	; 0xc4
 8003802:	7083      	strb	r3, [r0, #2]
 8003804:	0a1b      	lsrs	r3, r3, #8
 8003806:	70c3      	strb	r3, [r0, #3]
 8003808:	4770      	bx	lr

0800380a <expect_3A>:
 800380a:	f8b1 30c6 	ldrh.w	r3, [r1, #198]	; 0xc6
 800380e:	7003      	strb	r3, [r0, #0]
 8003810:	0a1b      	lsrs	r3, r3, #8
 8003812:	7043      	strb	r3, [r0, #1]
 8003814:	f8b1 30c8 	ldrh.w	r3, [r1, #200]	; 0xc8
 8003818:	7083      	strb	r3, [r0, #2]
 800381a:	0a1b      	lsrs	r3, r3, #8
 800381c:	70c3      	strb	r3, [r0, #3]
 800381e:	f8b1 30ca 	ldrh.w	r3, [r1, #202]	; 0xca
 8003822:	7103      	strb	r3, [r0, #4]
 8003824:	0a1b      	lsrs	r3, r3, #8
 8003826:	7143      	strb	r3, [r0, #5]
 8003828:	4770      	bx	lr

0800382a <expect_3B>:
 800382a:	f8b1 30cc 	ldrh.w	r3, [r1, #204]	; 0xcc
 800382e:	7003      	strb	r3, [r0, #0]
 8003830:	0a1b      	lsrs	r3, r3, #8
 8003832:	7043      	strb	r3, [r0, #1]
 8003834:	f8b1 30ce 	ldrh.w	r3, [r1, #206]	; 0xce
 8003838:	7083      	strb	r3, [r0, #2]
 800383a:	0a1b      	lsrs	r3, r3, #8
 800383c:	70c3      	strb	r3, [r0, #3]
 800383e:	f8b1 30d0 	ldrh.w	r3, [r1, #208]	; 0xd0
 8003842:	7103      	strb	r3, [r0, #4]
 8003844:	0a1b      	lsrs	r3, r3, #8
 8003846:	7143      	strb	r3, [r0, #5]
 8003848:	4770      	bx	lr

0800384a <expect_3C>:
 800384a:	f8b1 30d2 	ldrh.w	r3, [r1, #210]	; 0xd2
 800384e:	7003      	strb	r3, [r0, #0]
 8003850:	0a1b      	lsrs	r3, r3, #8
 8003852:	7043      	strb	r3, [r0, #1]
 8003854:	f8b1 30d4 	ldrh.w	r3, [r1, #212]	; 0xd4
 8003858:	7083      	strb	r3, [r0, #2]
 800385a:	0a1b      	lsrs	r3, r3, #8
 800385c:	70c3      	strb	r3, [r0, #3]
 800385e:	4770      	bx	lr

08003860 <expect_3D>:
 8003860:	f8b1 30d6 	ldrh.w	r3, [r1, #214]	; 0xd6
 8003864:	7003      	strb	r3, [r0, #0]
 8003866:	0a1b      	lsrs	r3, r3, #8
 8003868:	7043      	strb	r3, [r0, #1]
 800386a:	f8b1 30d8 	ldrh.w	r3, [r1, #216]	; 0xd8
 800386e:	7083      	strb	r3, [r0, #2]
 8003870:	0a1b      	lsrs	r3, r3, #8
 8003872:	70c3      	strb	r3, [r0, #3]
 8003874:	4770      	bx	lr

08003876 <expect_3E>:
 8003876:	f8b1 30da 	ldrh.w	r3, [r1, #218]	; 0xda
 800387a:	7003      	strb	r3, [r0, #0]
 800387c:	0a1b      	lsrs	r3, r3, #8
 800387e:	7043      	strb	r3, [r0, #1]
 8003880:	f8b1 30dc 	ldrh.w	r3, [r1, #220]	; 0xdc
 8003884:	7083      	strb	r3, [r0, #2]
 8003886:	0a1b      	lsrs	r3, r3, #8
 8003888:	70c3      	strb	r3, [r0, #3]
 800388a:	4770      	bx	lr

0800388c <expect_3F>:
 800388c:	f8b1 30de 	ldrh.w	r3, [r1, #222]	; 0xde
 8003890:	7003      	strb	r3, [r0, #0]
 8003892:	0a1b      	lsrs	r3, r3, #8
 8003894:	7043      	strb	r3, [r0, #1]
 8003896:	f8b1 30e0 	ldrh.w	r3, [r1, #224]	; 0xe0
 800389a:	7083      	strb	r3, [r0, #2]
 800389c:	0a1b      	lsrs	r3, r3, #8
 800389e:	70c3      	strb	r3, [r0, #3]
 80038a0:	4770      	bx	lr

080038a2 <expect_40>:
 80038a2:	f8b1 30e2 	ldrh.w	r3, [r1, #226]	; 0xe2
 80038a6:	7003      	strb	r3, [r0, #0]
 80038a8:	0a1b      	lsrs	r3, r3, #8
 80038aa:	7043      	strb	r3, [r0, #1]
 80038ac:	f8b1 30e4 	ldrh.w	r3, [r1, #228]	; 0xe4
 80038b0:	7083      	strb	r3, [r0, #2]
 80038b2:	0a1b      	lsrs	r3, r3, #8
 80038b4:	70c3      	strb	r3, [r0, #3]
 80038b6:	4770      	bx	lr

080038b8 <expect_41>:
 80038b8:	f8b1 30e6 	ldrh.w	r3, [r1, #230]	; 0xe6
 80038bc:	7003      	strb	r3, [r0, #0]
 80038be:	0a1b      	lsrs	r3, r3, #8
 80038c0:	7043      	strb	r3, [r0, #1]
 80038c2:	f8b1 30e8 	ldrh.w	r3, [r1, #232]	; 0xe8
 80038c6:	7083      	strb	r3, [r0, #2]
 80038c8:	0a1b      	lsrs	r3, r3, #8
 80038ca:	70c3      	strb	r3, [r0, #3]
 80038cc:	4770      	bx	lr

080038ce <expect_42>:
 80038ce:	f8b1 30ea 	ldrh.w	r3, [r1, #234]	; 0xea
 80038d2:	7003      	strb	r3, [r0, #0]
 80038d4:	0a1b      	lsrs	r3, r3, #8
 80038d6:	7043      	strb	r3, [r0, #1]
 80038d8:	f8b1 30ec 	ldrh.w	r3, [r1, #236]	; 0xec
 80038dc:	7083      	strb	r3, [r0, #2]
 80038de:	0a1b      	lsrs	r3, r3, #8
 80038e0:	70c3      	strb	r3, [r0, #3]
 80038e2:	4770      	bx	lr

080038e4 <expect_43>:
 80038e4:	f8b1 30ee 	ldrh.w	r3, [r1, #238]	; 0xee
 80038e8:	7003      	strb	r3, [r0, #0]
 80038ea:	0a1b      	lsrs	r3, r3, #8
 80038ec:	7043      	strb	r3, [r0, #1]
 80038ee:	f8b1 30f0 	ldrh.w	r3, [r1, #240]	; 0xf0
 80038f2:	7083      	strb	r3, [r0, #2]
 80038f4:	0a1b      	lsrs	r3, r3, #8
 80038f6:	70c3      	strb	r3, [r0, #3]
 80038f8:	4770      	bx	lr

080038fa <expect_44>:
 80038fa:	f8b1 30f2 	ldrh.w	r3, [r1, #242]	; 0xf2
 80038fe:	7003      	strb	r3, [r0, #0]
 8003900:	0a1b      	lsrs	r3, r3, #8
 8003902:	7043      	strb	r3, [r0, #1]
 8003904:	f8b1 30f4 	ldrh.w	r3, [r1, #244]	; 0xf4
 8003908:	7083      	strb	r3, [r0, #2]
 800390a:	0a1b      	lsrs	r3, r3, #8
 800390c:	70c3      	strb	r3, [r0, #3]
 800390e:	f8b1 30f6 	ldrh.w	r3, [r1, #246]	; 0xf6
 8003912:	7103      	strb	r3, [r0, #4]
 8003914:	0a1b      	lsrs	r3, r3, #8
 8003916:	7143      	strb	r3, [r0, #5]
 8003918:	4770      	bx	lr

0800391a <expect_45>:
 800391a:	f8b1 30f8 	ldrh.w	r3, [r1, #248]	; 0xf8
 800391e:	7003      	strb	r3, [r0, #0]
 8003920:	0a1b      	lsrs	r3, r3, #8
 8003922:	7043      	strb	r3, [r0, #1]
 8003924:	f8b1 30fa 	ldrh.w	r3, [r1, #250]	; 0xfa
 8003928:	7083      	strb	r3, [r0, #2]
 800392a:	0a1b      	lsrs	r3, r3, #8
 800392c:	70c3      	strb	r3, [r0, #3]
 800392e:	f8b1 30fc 	ldrh.w	r3, [r1, #252]	; 0xfc
 8003932:	7103      	strb	r3, [r0, #4]
 8003934:	0a1b      	lsrs	r3, r3, #8
 8003936:	7143      	strb	r3, [r0, #5]
 8003938:	4770      	bx	lr

0800393a <expect_46>:
 800393a:	f8b1 30fe 	ldrh.w	r3, [r1, #254]	; 0xfe
 800393e:	7003      	strb	r3, [r0, #0]
 8003940:	0a1b      	lsrs	r3, r3, #8
 8003942:	7043      	strb	r3, [r0, #1]
 8003944:	f8b1 3100 	ldrh.w	r3, [r1, #256]	; 0x100
 8003948:	7083      	strb	r3, [r0, #2]
 800394a:	0a1b      	lsrs	r3, r3, #8
 800394c:	70c3      	strb	r3, [r0, #3]
 800394e:	4770      	bx	lr

08003950 <expect_47>:
 8003950:	f8b1 3102 	ldrh.w	r3, [r1, #258]	; 0x102
 8003954:	7003      	strb	r3, [r0, #0]
 8003956:	0a1b      	lsrs	r3, r3, #8
 8003958:	7043      	strb	r3, [r0, #1]
 800395a:	f8b1 3104 	ldrh.w	r3, [r1, #260]	; 0x104
 800395e:	7083      	strb	r3, [r0, #2]
 8003960:	0a1b      	lsrs	r3, r3, #8
 8003962:	70c3      	strb	r3, [r0, #3]
 8003964:	4770      	bx	lr

08003966 <expect_48>:
 8003966:	f8b1 3106 	ldrh.w	r3, [r1, #262]	; 0x106
 800396a:	7003      	strb	r3, [r0, #0]
 800396c:	0a1b      	lsrs	r3, r3, #8
 800396e:	7043      	strb	r3, [r0, #1]
 8003970:	f8b1 3108 	ldrh.w	r3, [r1, #264]	; 0x108
 8003974:	7083      	strb	r3, [r0, #2]
 8003976:	0a1b      	lsrs	r3, r3, #8
 8003978:	70c3      	strb	r3, [r0, #3]
 800397a:	4770      	bx	lr

0800397c <expect_49>:
 800397c:	f8b1 310a 	ldrh.w	r3, [r1, #266]	; 0x10a
 8003980:	7003      	strb	r3, [r0, #0]
 8003982:	0a1b      	lsrs	r3, r3, #8
 8003984:	7043      	strb	r3, [r0, #1]
 8003986:	f8b1 310c 	ldrh.w	r3, [r1, #268]	; 0x10c
 800398a:	7083      	strb	r3, [r0, #2]
 800398c:	0a1b      	lsrs	r3, r3, #8
 800398e:	70c3      	strb	r3, [r0, #3]
 8003990:	4770      	bx	lr

08003992 <expect_4A>:
 8003992:	f8b1 310e 	ldrh.w	r3, [r1, #270]	; 0x10e
 8003996:	7003      	strb	r3, [r0, #0]
 8003998:	0a1b      	lsrs	r3, r3, #8
 800399a:	7043      	strb	r3, [r0, #1]
 800399c:	f8b1 3110 	ldrh.w	r3, [r1, #272]	; 0x110
 80039a0:	7083      	strb	r3, [r0, #2]
 80039a2:	0a1b      	lsrs	r3, r3, #8
 80039a4:	70c3      	strb	r3, [r0, #3]
 80039a6:	4770      	bx	lr

080039a8 <expect_50>:
 80039a8:	f8b1 3112 	ldrh.w	r3, [r1, #274]	; 0x112
 80039ac:	7003      	strb	r3, [r0, #0]
 80039ae:	0a1b      	lsrs	r3, r3, #8
 80039b0:	7043      	strb	r3, [r0, #1]
 80039b2:	f8b1 3114 	ldrh.w	r3, [r1, #276]	; 0x114
 80039b6:	7083      	strb	r3, [r0, #2]
 80039b8:	0a1b      	lsrs	r3, r3, #8
 80039ba:	70c3      	strb	r3, [r0, #3]
 80039bc:	f8b1 3116 	ldrh.w	r3, [r1, #278]	; 0x116
 80039c0:	7103      	strb	r3, [r0, #4]
 80039c2:	0a1b      	lsrs	r3, r3, #8
 80039c4:	7143      	strb	r3, [r0, #5]
 80039c6:	4770      	bx	lr

080039c8 <expect_51>:
 80039c8:	f8b1 3118 	ldrh.w	r3, [r1, #280]	; 0x118
 80039cc:	7003      	strb	r3, [r0, #0]
 80039ce:	0a1b      	lsrs	r3, r3, #8
 80039d0:	7043      	strb	r3, [r0, #1]
 80039d2:	f8b1 311a 	ldrh.w	r3, [r1, #282]	; 0x11a
 80039d6:	7083      	strb	r3, [r0, #2]
 80039d8:	0a1b      	lsrs	r3, r3, #8
 80039da:	70c3      	strb	r3, [r0, #3]
 80039dc:	f8b1 311c 	ldrh.w	r3, [r1, #284]	; 0x11c
 80039e0:	7103      	strb	r3, [r0, #4]
 80039e2:	0a1b      	lsrs	r3, r3, #8
 80039e4:	7143      	strb	r3, [r0, #5]
 80039e6:	4770      	bx	lr

080039e8 <expect_52>:
 80039e8:	f8b1 311e 	ldrh.w	r3, [r1, #286]	; 0x11e
 80039ec:	7003      	strb	r3, [r0, #0]
 80039ee:	0a1b      	lsrs	r3, r3, #8
 80039f0:	7043      	strb	r3, [r0, #1]
 80039f2:	f8b1 3120 	ldrh.w	r3, [r1, #288]	; 0x120
 80039f6:	7083      	strb	r3, [r0, #2]
 80039f8:	0a1b      	lsrs	r3, r3, #8
 80039fa:	70c3      	strb	r3, [r0, #3]
 80039fc:	f8b1 3122 	ldrh.w	r3, [r1, #290]	; 0x122
 8003a00:	7103      	strb	r3, [r0, #4]
 8003a02:	0a1b      	lsrs	r3, r3, #8
 8003a04:	7143      	strb	r3, [r0, #5]
 8003a06:	4770      	bx	lr

08003a08 <expect_53>:
 8003a08:	f8b1 3124 	ldrh.w	r3, [r1, #292]	; 0x124
 8003a0c:	7003      	strb	r3, [r0, #0]
 8003a0e:	0a1b      	lsrs	r3, r3, #8
 8003a10:	7043      	strb	r3, [r0, #1]
 8003a12:	f8b1 3126 	ldrh.w	r3, [r1, #294]	; 0x126
 8003a16:	7083      	strb	r3, [r0, #2]
 8003a18:	0a1b      	lsrs	r3, r3, #8
 8003a1a:	70c3      	strb	r3, [r0, #3]
 8003a1c:	f8b1 3128 	ldrh.w	r3, [r1, #296]	; 0x128
 8003a20:	7103      	strb	r3, [r0, #4]
 8003a22:	0a1b      	lsrs	r3, r3, #8
 8003a24:	7143      	strb	r3, [r0, #5]
 8003a26:	4770      	bx	lr

08003a28 <expect_54>:
 8003a28:	f8b1 312a 	ldrh.w	r3, [r1, #298]	; 0x12a
 8003a2c:	7003      	strb	r3, [r0, #0]
 8003a2e:	0a1b      	lsrs	r3, r3, #8
 8003a30:	7043      	strb	r3, [r0, #1]
 8003a32:	f8b1 312c 	ldrh.w	r3, [r1, #300]	; 0x12c
 8003a36:	7083      	strb	r3, [r0, #2]
 8003a38:	0a1b      	lsrs	r3, r3, #8
 8003a3a:	70c3      	strb	r3, [r0, #3]
 8003a3c:	f8b1 312e 	ldrh.w	r3, [r1, #302]	; 0x12e
 8003a40:	7103      	strb	r3, [r0, #4]
 8003a42:	0a1b      	lsrs	r3, r3, #8
 8003a44:	7143      	strb	r3, [r0, #5]
 8003a46:	4770      	bx	lr

08003a48 <expect_55>:
 8003a48:	f8b1 3130 	ldrh.w	r3, [r1, #304]	; 0x130
 8003a4c:	7003      	strb	r3, [r0, #0]
 8003a4e:	0a1b      	lsrs	r3, r3, #8
 8003a50:	7043      	strb	r3, [r0, #1]
 8003a52:	f8b1 3132 	ldrh.w	r3, [r1, #306]	; 0x132
 8003a56:	7083      	strb	r3, [r0, #2]
 8003a58:	0a1b      	lsrs	r3, r3, #8
 8003a5a:	70c3      	strb	r3, [r0, #3]
 8003a5c:	4770      	bx	lr

08003a5e <expect_56>:
 8003a5e:	f8b1 3134 	ldrh.w	r3, [r1, #308]	; 0x134
 8003a62:	7003      	strb	r3, [r0, #0]
 8003a64:	0a1b      	lsrs	r3, r3, #8
 8003a66:	7043      	strb	r3, [r0, #1]
 8003a68:	f8b1 3136 	ldrh.w	r3, [r1, #310]	; 0x136
 8003a6c:	7083      	strb	r3, [r0, #2]
 8003a6e:	0a1b      	lsrs	r3, r3, #8
 8003a70:	70c3      	strb	r3, [r0, #3]
 8003a72:	4770      	bx	lr

08003a74 <expect_57>:
 8003a74:	f8b1 3138 	ldrh.w	r3, [r1, #312]	; 0x138
 8003a78:	7003      	strb	r3, [r0, #0]
 8003a7a:	0a1b      	lsrs	r3, r3, #8
 8003a7c:	7043      	strb	r3, [r0, #1]
 8003a7e:	f8b1 313a 	ldrh.w	r3, [r1, #314]	; 0x13a
 8003a82:	7083      	strb	r3, [r0, #2]
 8003a84:	0a1b      	lsrs	r3, r3, #8
 8003a86:	70c3      	strb	r3, [r0, #3]
 8003a88:	4770      	bx	lr

08003a8a <expect_58>:
 8003a8a:	f8b1 313c 	ldrh.w	r3, [r1, #316]	; 0x13c
 8003a8e:	7003      	strb	r3, [r0, #0]
 8003a90:	0a1b      	lsrs	r3, r3, #8
 8003a92:	7043      	strb	r3, [r0, #1]
 8003a94:	f8b1 313e 	ldrh.w	r3, [r1, #318]	; 0x13e
 8003a98:	7083      	strb	r3, [r0, #2]
 8003a9a:	0a1b      	lsrs	r3, r3, #8
 8003a9c:	70c3      	strb	r3, [r0, #3]
 8003a9e:	4770      	bx	lr

08003aa0 <expect_59>:
 8003aa0:	f8b1 3140 	ldrh.w	r3, [r1, #320]	; 0x140
 8003aa4:	7003      	strb	r3, [r0, #0]
 8003aa6:	0a1b      	lsrs	r3, r3, #8
 8003aa8:	7043      	strb	r3, [r0, #1]
 8003aaa:	f8b1 3142 	ldrh.w	r3, [r1, #322]	; 0x142
 8003aae:	7083      	strb	r3, [r0, #2]
 8003ab0:	0a1b      	lsrs	r3, r3, #8
 8003ab2:	70c3      	strb	r3, [r0, #3]
 8003ab4:	4770      	bx	lr

08003ab6 <expect_5A>:
 8003ab6:	f8b1 3144 	ldrh.w	r3, [r1, #324]	; 0x144
 8003aba:	7003      	strb	r3, [r0, #0]
 8003abc:	0a1b      	lsrs	r3, r3, #8
 8003abe:	7043      	strb	r3, [r0, #1]
 8003ac0:	f8b1 3146 	ldrh.w	r3, [r1, #326]	; 0x146
 8003ac4:	7083      	strb	r3, [r0, #2]
 8003ac6:	0a1b      	lsrs	r3, r3, #8
 8003ac8:	70c3      	strb	r3, [r0, #3]
 8003aca:	f8b1 3148 	ldrh.w	r3, [r1, #328]	; 0x148
 8003ace:	7103      	strb	r3, [r0, #4]
 8003ad0:	0a1b      	lsrs	r3, r3, #8
 8003ad2:	7143      	strb	r3, [r0, #5]
 8003ad4:	4770      	bx	lr

08003ad6 <expect_5B>:
 8003ad6:	f8b1 314a 	ldrh.w	r3, [r1, #330]	; 0x14a
 8003ada:	7003      	strb	r3, [r0, #0]
 8003adc:	0a1b      	lsrs	r3, r3, #8
 8003ade:	7043      	strb	r3, [r0, #1]
 8003ae0:	f8b1 314c 	ldrh.w	r3, [r1, #332]	; 0x14c
 8003ae4:	7083      	strb	r3, [r0, #2]
 8003ae6:	0a1b      	lsrs	r3, r3, #8
 8003ae8:	70c3      	strb	r3, [r0, #3]
 8003aea:	f8b1 314e 	ldrh.w	r3, [r1, #334]	; 0x14e
 8003aee:	7103      	strb	r3, [r0, #4]
 8003af0:	0a1b      	lsrs	r3, r3, #8
 8003af2:	7143      	strb	r3, [r0, #5]
 8003af4:	4770      	bx	lr

08003af6 <expect_5C>:
 8003af6:	f8b1 3150 	ldrh.w	r3, [r1, #336]	; 0x150
 8003afa:	7003      	strb	r3, [r0, #0]
 8003afc:	0a1b      	lsrs	r3, r3, #8
 8003afe:	7043      	strb	r3, [r0, #1]
 8003b00:	f8b1 3152 	ldrh.w	r3, [r1, #338]	; 0x152
 8003b04:	7083      	strb	r3, [r0, #2]
 8003b06:	0a1b      	lsrs	r3, r3, #8
 8003b08:	70c3      	strb	r3, [r0, #3]
 8003b0a:	4770      	bx	lr

08003b0c <expect_5D>:
 8003b0c:	f8b1 3154 	ldrh.w	r3, [r1, #340]	; 0x154
 8003b10:	7003      	strb	r3, [r0, #0]
 8003b12:	0a1b      	lsrs	r3, r3, #8
 8003b14:	7043      	strb	r3, [r0, #1]
 8003b16:	f8b1 3156 	ldrh.w	r3, [r1, #342]	; 0x156
 8003b1a:	7083      	strb	r3, [r0, #2]
 8003b1c:	0a1b      	lsrs	r3, r3, #8
 8003b1e:	70c3      	strb	r3, [r0, #3]
 8003b20:	4770      	bx	lr

08003b22 <expect_5E>:
 8003b22:	f8b1 3158 	ldrh.w	r3, [r1, #344]	; 0x158
 8003b26:	7003      	strb	r3, [r0, #0]
 8003b28:	0a1b      	lsrs	r3, r3, #8
 8003b2a:	7043      	strb	r3, [r0, #1]
 8003b2c:	f8b1 315a 	ldrh.w	r3, [r1, #346]	; 0x15a
 8003b30:	7083      	strb	r3, [r0, #2]
 8003b32:	0a1b      	lsrs	r3, r3, #8
 8003b34:	70c3      	strb	r3, [r0, #3]
 8003b36:	4770      	bx	lr

08003b38 <expect_5F>:
 8003b38:	f8b1 315c 	ldrh.w	r3, [r1, #348]	; 0x15c
 8003b3c:	7003      	strb	r3, [r0, #0]
 8003b3e:	0a1b      	lsrs	r3, r3, #8
 8003b40:	7043      	strb	r3, [r0, #1]
 8003b42:	f8b1 315e 	ldrh.w	r3, [r1, #350]	; 0x15e
 8003b46:	7083      	strb	r3, [r0, #2]
 8003b48:	0a1b      	lsrs	r3, r3, #8
 8003b4a:	70c3      	strb	r3, [r0, #3]
 8003b4c:	4770      	bx	lr

08003b4e <expect_60>:
 8003b4e:	f8b1 3160 	ldrh.w	r3, [r1, #352]	; 0x160
 8003b52:	7003      	strb	r3, [r0, #0]
 8003b54:	0a1b      	lsrs	r3, r3, #8
 8003b56:	7043      	strb	r3, [r0, #1]
 8003b58:	f8b1 3162 	ldrh.w	r3, [r1, #354]	; 0x162
 8003b5c:	7083      	strb	r3, [r0, #2]
 8003b5e:	0a1b      	lsrs	r3, r3, #8
 8003b60:	70c3      	strb	r3, [r0, #3]
 8003b62:	4770      	bx	lr

08003b64 <expect_61>:
 8003b64:	f8b1 3164 	ldrh.w	r3, [r1, #356]	; 0x164
 8003b68:	7003      	strb	r3, [r0, #0]
 8003b6a:	0a1b      	lsrs	r3, r3, #8
 8003b6c:	7043      	strb	r3, [r0, #1]
 8003b6e:	f8b1 3166 	ldrh.w	r3, [r1, #358]	; 0x166
 8003b72:	7083      	strb	r3, [r0, #2]
 8003b74:	0a1b      	lsrs	r3, r3, #8
 8003b76:	70c3      	strb	r3, [r0, #3]
 8003b78:	4770      	bx	lr

08003b7a <expect_62>:
 8003b7a:	f8b1 3168 	ldrh.w	r3, [r1, #360]	; 0x168
 8003b7e:	7003      	strb	r3, [r0, #0]
 8003b80:	0a1b      	lsrs	r3, r3, #8
 8003b82:	7043      	strb	r3, [r0, #1]
 8003b84:	f8b1 316a 	ldrh.w	r3, [r1, #362]	; 0x16a
 8003b88:	7083      	strb	r3, [r0, #2]
 8003b8a:	0a1b      	lsrs	r3, r3, #8
 8003b8c:	70c3      	strb	r3, [r0, #3]
 8003b8e:	4770      	bx	lr

08003b90 <expect_63>:
 8003b90:	f8b1 316c 	ldrh.w	r3, [r1, #364]	; 0x16c
 8003b94:	7003      	strb	r3, [r0, #0]
 8003b96:	0a1b      	lsrs	r3, r3, #8
 8003b98:	7043      	strb	r3, [r0, #1]
 8003b9a:	f8b1 316e 	ldrh.w	r3, [r1, #366]	; 0x16e
 8003b9e:	7083      	strb	r3, [r0, #2]
 8003ba0:	0a1b      	lsrs	r3, r3, #8
 8003ba2:	70c3      	strb	r3, [r0, #3]
 8003ba4:	4770      	bx	lr

08003ba6 <expect_64>:
 8003ba6:	f8b1 3170 	ldrh.w	r3, [r1, #368]	; 0x170
 8003baa:	7003      	strb	r3, [r0, #0]
 8003bac:	0a1b      	lsrs	r3, r3, #8
 8003bae:	7043      	strb	r3, [r0, #1]
 8003bb0:	f8b1 3172 	ldrh.w	r3, [r1, #370]	; 0x172
 8003bb4:	7083      	strb	r3, [r0, #2]
 8003bb6:	0a1b      	lsrs	r3, r3, #8
 8003bb8:	70c3      	strb	r3, [r0, #3]
 8003bba:	f8b1 3174 	ldrh.w	r3, [r1, #372]	; 0x174
 8003bbe:	7103      	strb	r3, [r0, #4]
 8003bc0:	0a1b      	lsrs	r3, r3, #8
 8003bc2:	7143      	strb	r3, [r0, #5]
 8003bc4:	4770      	bx	lr

08003bc6 <expect_65>:
 8003bc6:	f8b1 3176 	ldrh.w	r3, [r1, #374]	; 0x176
 8003bca:	7003      	strb	r3, [r0, #0]
 8003bcc:	0a1b      	lsrs	r3, r3, #8
 8003bce:	7043      	strb	r3, [r0, #1]
 8003bd0:	f8b1 3178 	ldrh.w	r3, [r1, #376]	; 0x178
 8003bd4:	7083      	strb	r3, [r0, #2]
 8003bd6:	0a1b      	lsrs	r3, r3, #8
 8003bd8:	70c3      	strb	r3, [r0, #3]
 8003bda:	f8b1 317a 	ldrh.w	r3, [r1, #378]	; 0x17a
 8003bde:	7103      	strb	r3, [r0, #4]
 8003be0:	0a1b      	lsrs	r3, r3, #8
 8003be2:	7143      	strb	r3, [r0, #5]
 8003be4:	4770      	bx	lr

08003be6 <expect_66>:
 8003be6:	f8b1 317c 	ldrh.w	r3, [r1, #380]	; 0x17c
 8003bea:	7003      	strb	r3, [r0, #0]
 8003bec:	0a1b      	lsrs	r3, r3, #8
 8003bee:	7043      	strb	r3, [r0, #1]
 8003bf0:	f8b1 317e 	ldrh.w	r3, [r1, #382]	; 0x17e
 8003bf4:	7083      	strb	r3, [r0, #2]
 8003bf6:	0a1b      	lsrs	r3, r3, #8
 8003bf8:	70c3      	strb	r3, [r0, #3]
 8003bfa:	4770      	bx	lr

08003bfc <expect_67>:
 8003bfc:	f8b1 3180 	ldrh.w	r3, [r1, #384]	; 0x180
 8003c00:	7003      	strb	r3, [r0, #0]
 8003c02:	0a1b      	lsrs	r3, r3, #8
 8003c04:	7043      	strb	r3, [r0, #1]
 8003c06:	f8b1 3182 	ldrh.w	r3, [r1, #386]	; 0x182
 8003c0a:	7083      	strb	r3, [r0, #2]
 8003c0c:	0a1b      	lsrs	r3, r3, #8
 8003c0e:	70c3      	strb	r3, [r0, #3]
 8003c10:	4770      	bx	lr

08003c12 <expect_68>:
 8003c12:	f8b1 3184 	ldrh.w	r3, [r1, #388]	; 0x184
 8003c16:	7003      	strb	r3, [r0, #0]
 8003c18:	0a1b      	lsrs	r3, r3, #8
 8003c1a:	7043      	strb	r3, [r0, #1]
 8003c1c:	f8b1 3186 	ldrh.w	r3, [r1, #390]	; 0x186
 8003c20:	7083      	strb	r3, [r0, #2]
 8003c22:	0a1b      	lsrs	r3, r3, #8
 8003c24:	70c3      	strb	r3, [r0, #3]
 8003c26:	4770      	bx	lr

08003c28 <expect_69>:
 8003c28:	f8b1 3188 	ldrh.w	r3, [r1, #392]	; 0x188
 8003c2c:	7003      	strb	r3, [r0, #0]
 8003c2e:	0a1b      	lsrs	r3, r3, #8
 8003c30:	7043      	strb	r3, [r0, #1]
 8003c32:	f8b1 318a 	ldrh.w	r3, [r1, #394]	; 0x18a
 8003c36:	7083      	strb	r3, [r0, #2]
 8003c38:	0a1b      	lsrs	r3, r3, #8
 8003c3a:	70c3      	strb	r3, [r0, #3]
 8003c3c:	4770      	bx	lr

08003c3e <expect_6A>:
 8003c3e:	f8b1 318c 	ldrh.w	r3, [r1, #396]	; 0x18c
 8003c42:	7003      	strb	r3, [r0, #0]
 8003c44:	0a1b      	lsrs	r3, r3, #8
 8003c46:	7043      	strb	r3, [r0, #1]
 8003c48:	f8b1 318e 	ldrh.w	r3, [r1, #398]	; 0x18e
 8003c4c:	7083      	strb	r3, [r0, #2]
 8003c4e:	0a1b      	lsrs	r3, r3, #8
 8003c50:	70c3      	strb	r3, [r0, #3]
 8003c52:	4770      	bx	lr

08003c54 <expect_70>:
 8003c54:	f8b1 3190 	ldrh.w	r3, [r1, #400]	; 0x190
 8003c58:	7003      	strb	r3, [r0, #0]
 8003c5a:	0a1b      	lsrs	r3, r3, #8
 8003c5c:	7043      	strb	r3, [r0, #1]
 8003c5e:	f8b1 3192 	ldrh.w	r3, [r1, #402]	; 0x192
 8003c62:	7083      	strb	r3, [r0, #2]
 8003c64:	0a1b      	lsrs	r3, r3, #8
 8003c66:	70c3      	strb	r3, [r0, #3]
 8003c68:	f8b1 3194 	ldrh.w	r3, [r1, #404]	; 0x194
 8003c6c:	7103      	strb	r3, [r0, #4]
 8003c6e:	0a1b      	lsrs	r3, r3, #8
 8003c70:	7143      	strb	r3, [r0, #5]
 8003c72:	4770      	bx	lr

08003c74 <expect_71>:
 8003c74:	f8b1 3196 	ldrh.w	r3, [r1, #406]	; 0x196
 8003c78:	7003      	strb	r3, [r0, #0]
 8003c7a:	0a1b      	lsrs	r3, r3, #8
 8003c7c:	7043      	strb	r3, [r0, #1]
 8003c7e:	f8b1 3198 	ldrh.w	r3, [r1, #408]	; 0x198
 8003c82:	7083      	strb	r3, [r0, #2]
 8003c84:	0a1b      	lsrs	r3, r3, #8
 8003c86:	70c3      	strb	r3, [r0, #3]
 8003c88:	f8b1 319a 	ldrh.w	r3, [r1, #410]	; 0x19a
 8003c8c:	7103      	strb	r3, [r0, #4]
 8003c8e:	0a1b      	lsrs	r3, r3, #8
 8003c90:	7143      	strb	r3, [r0, #5]
 8003c92:	4770      	bx	lr

08003c94 <expect_72>:
 8003c94:	f8b1 319c 	ldrh.w	r3, [r1, #412]	; 0x19c
 8003c98:	7003      	strb	r3, [r0, #0]
 8003c9a:	0a1b      	lsrs	r3, r3, #8
 8003c9c:	7043      	strb	r3, [r0, #1]
 8003c9e:	f8b1 319e 	ldrh.w	r3, [r1, #414]	; 0x19e
 8003ca2:	7083      	strb	r3, [r0, #2]
 8003ca4:	0a1b      	lsrs	r3, r3, #8
 8003ca6:	70c3      	strb	r3, [r0, #3]
 8003ca8:	f8b1 31a0 	ldrh.w	r3, [r1, #416]	; 0x1a0
 8003cac:	7103      	strb	r3, [r0, #4]
 8003cae:	0a1b      	lsrs	r3, r3, #8
 8003cb0:	7143      	strb	r3, [r0, #5]
 8003cb2:	4770      	bx	lr

08003cb4 <expect_73>:
 8003cb4:	f8b1 31a2 	ldrh.w	r3, [r1, #418]	; 0x1a2
 8003cb8:	7003      	strb	r3, [r0, #0]
 8003cba:	0a1b      	lsrs	r3, r3, #8
 8003cbc:	7043      	strb	r3, [r0, #1]
 8003cbe:	f8b1 31a4 	ldrh.w	r3, [r1, #420]	; 0x1a4
 8003cc2:	7083      	strb	r3, [r0, #2]
 8003cc4:	0a1b      	lsrs	r3, r3, #8
 8003cc6:	70c3      	strb	r3, [r0, #3]
 8003cc8:	f8b1 31a6 	ldrh.w	r3, [r1, #422]	; 0x1a6
 8003ccc:	7103      	strb	r3, [r0, #4]
 8003cce:	0a1b      	lsrs	r3, r3, #8
 8003cd0:	7143      	strb	r3, [r0, #5]
 8003cd2:	4770      	bx	lr

08003cd4 <expect_74>:
 8003cd4:	f8b1 31a8 	ldrh.w	r3, [r1, #424]	; 0x1a8
 8003cd8:	7003      	strb	r3, [r0, #0]
 8003cda:	0a1b      	lsrs	r3, r3, #8
 8003cdc:	7043      	strb	r3, [r0, #1]
 8003cde:	f8b1 31aa 	ldrh.w	r3, [r1, #426]	; 0x1aa
 8003ce2:	7083      	strb	r3, [r0, #2]
 8003ce4:	0a1b      	lsrs	r3, r3, #8
 8003ce6:	70c3      	strb	r3, [r0, #3]
 8003ce8:	f8b1 31ac 	ldrh.w	r3, [r1, #428]	; 0x1ac
 8003cec:	7103      	strb	r3, [r0, #4]
 8003cee:	0a1b      	lsrs	r3, r3, #8
 8003cf0:	7143      	strb	r3, [r0, #5]
 8003cf2:	4770      	bx	lr

08003cf4 <expect_75>:
 8003cf4:	f8b1 31ae 	ldrh.w	r3, [r1, #430]	; 0x1ae
 8003cf8:	7003      	strb	r3, [r0, #0]
 8003cfa:	0a1b      	lsrs	r3, r3, #8
 8003cfc:	7043      	strb	r3, [r0, #1]
 8003cfe:	f8b1 31b0 	ldrh.w	r3, [r1, #432]	; 0x1b0
 8003d02:	7083      	strb	r3, [r0, #2]
 8003d04:	0a1b      	lsrs	r3, r3, #8
 8003d06:	70c3      	strb	r3, [r0, #3]
 8003d08:	4770      	bx	lr

08003d0a <expect_76>:
 8003d0a:	f8b1 31b2 	ldrh.w	r3, [r1, #434]	; 0x1b2
 8003d0e:	7003      	strb	r3, [r0, #0]
 8003d10:	0a1b      	lsrs	r3, r3, #8
 8003d12:	7043      	strb	r3, [r0, #1]
 8003d14:	f8b1 31b4 	ldrh.w	r3, [r1, #436]	; 0x1b4
 8003d18:	7083      	strb	r3, [r0, #2]
 8003d1a:	0a1b      	lsrs	r3, r3, #8
 8003d1c:	70c3      	strb	r3, [r0, #3]
 8003d1e:	4770      	bx	lr

08003d20 <expect_77>:
 8003d20:	f8b1 31b6 	ldrh.w	r3, [r1, #438]	; 0x1b6
 8003d24:	7003      	strb	r3, [r0, #0]
 8003d26:	0a1b      	lsrs	r3, r3, #8
 8003d28:	7043      	strb	r3, [r0, #1]
 8003d2a:	f8b1 31b8 	ldrh.w	r3, [r1, #440]	; 0x1b8
 8003d2e:	7083      	strb	r3, [r0, #2]
 8003d30:	0a1b      	lsrs	r3, r3, #8
 8003d32:	70c3      	strb	r3, [r0, #3]
 8003d34:	4770      	bx	lr

08003d36 <expect_78>:
 8003d36:	f8b1 31ba 	ldrh.w	r3, [r1, #442]	; 0x1ba
 8003d3a:	7003      	strb	r3, [r0, #0]
 8003d3c:	0a1b      	lsrs	r3, r3, #8
 8003d3e:	7043      	strb	r3, [r0, #1]
 8003d40:	f8b1 31bc 	ldrh.w	r3, [r1, #444]	; 0x1bc
 8003d44:	7083      	strb	r3, [r0, #2]
 8003d46:	0a1b      	lsrs	r3, r3, #8
 8003d48:	70c3      	strb	r3, [r0, #3]
 8003d4a:	4770      	bx	lr

08003d4c <expect_79>:
 8003d4c:	f8b1 31be 	ldrh.w	r3, [r1, #446]	; 0x1be
 8003d50:	7003      	strb	r3, [r0, #0]
 8003d52:	0a1b      	lsrs	r3, r3, #8
 8003d54:	7043      	strb	r3, [r0, #1]
 8003d56:	f8b1 31c0 	ldrh.w	r3, [r1, #448]	; 0x1c0
 8003d5a:	7083      	strb	r3, [r0, #2]
 8003d5c:	0a1b      	lsrs	r3, r3, #8
 8003d5e:	70c3      	strb	r3, [r0, #3]
 8003d60:	4770      	bx	lr

08003d62 <expect_7A>:
 8003d62:	f8b1 31c2 	ldrh.w	r3, [r1, #450]	; 0x1c2
 8003d66:	7003      	strb	r3, [r0, #0]
 8003d68:	0a1b      	lsrs	r3, r3, #8
 8003d6a:	7043      	strb	r3, [r0, #1]
 8003d6c:	f8b1 31c4 	ldrh.w	r3, [r1, #452]	; 0x1c4
 8003d70:	7083      	strb	r3, [r0, #2]
 8003d72:	0a1b      	lsrs	r3, r3, #8
 8003d74:	70c3      	strb	r3, [r0, #3]
 8003d76:	f8b1 31c6 	ldrh.w	r3, [r1, #454]	; 0x1c6
 8003d7a:	7103      	strb	r3, [r0, #4]
 8003d7c:	0a1b      	lsrs	r3, r3, #8
 8003d7e:	7143      	strb	r3, [r0, #5]
 8003d80:	4770      	bx	lr

08003d82 <expect_7B>:
 8003d82:	f8b1 31c8 	ldrh.w	r3, [r1, #456]	; 0x1c8
 8003d86:	7003      	strb	r3, [r0, #0]
 8003d88:	0a1b      	lsrs	r3, r3, #8
 8003d8a:	7043      	strb	r3, [r0, #1]
 8003d8c:	f8b1 31ca 	ldrh.w	r3, [r1, #458]	; 0x1ca
 8003d90:	7083      	strb	r3, [r0, #2]
 8003d92:	0a1b      	lsrs	r3, r3, #8
 8003d94:	70c3      	strb	r3, [r0, #3]
 8003d96:	f8b1 31cc 	ldrh.w	r3, [r1, #460]	; 0x1cc
 8003d9a:	7103      	strb	r3, [r0, #4]
 8003d9c:	0a1b      	lsrs	r3, r3, #8
 8003d9e:	7143      	strb	r3, [r0, #5]
 8003da0:	4770      	bx	lr

08003da2 <expect_7C>:
 8003da2:	f8b1 31ce 	ldrh.w	r3, [r1, #462]	; 0x1ce
 8003da6:	7003      	strb	r3, [r0, #0]
 8003da8:	0a1b      	lsrs	r3, r3, #8
 8003daa:	7043      	strb	r3, [r0, #1]
 8003dac:	f8b1 31d0 	ldrh.w	r3, [r1, #464]	; 0x1d0
 8003db0:	7083      	strb	r3, [r0, #2]
 8003db2:	0a1b      	lsrs	r3, r3, #8
 8003db4:	70c3      	strb	r3, [r0, #3]
 8003db6:	4770      	bx	lr

08003db8 <expect_7D>:
 8003db8:	f8b1 31d2 	ldrh.w	r3, [r1, #466]	; 0x1d2
 8003dbc:	7003      	strb	r3, [r0, #0]
 8003dbe:	0a1b      	lsrs	r3, r3, #8
 8003dc0:	7043      	strb	r3, [r0, #1]
 8003dc2:	f8b1 31d4 	ldrh.w	r3, [r1, #468]	; 0x1d4
 8003dc6:	7083      	strb	r3, [r0, #2]
 8003dc8:	0a1b      	lsrs	r3, r3, #8
 8003dca:	70c3      	strb	r3, [r0, #3]
 8003dcc:	4770      	bx	lr

08003dce <expect_7E>:
 8003dce:	f8b1 31d6 	ldrh.w	r3, [r1, #470]	; 0x1d6
 8003dd2:	7003      	strb	r3, [r0, #0]
 8003dd4:	0a1b      	lsrs	r3, r3, #8
 8003dd6:	7043      	strb	r3, [r0, #1]
 8003dd8:	f8b1 31d8 	ldrh.w	r3, [r1, #472]	; 0x1d8
 8003ddc:	7083      	strb	r3, [r0, #2]
 8003dde:	0a1b      	lsrs	r3, r3, #8
 8003de0:	70c3      	strb	r3, [r0, #3]
 8003de2:	4770      	bx	lr

08003de4 <expect_7F>:
 8003de4:	f8b1 31da 	ldrh.w	r3, [r1, #474]	; 0x1da
 8003de8:	7003      	strb	r3, [r0, #0]
 8003dea:	0a1b      	lsrs	r3, r3, #8
 8003dec:	7043      	strb	r3, [r0, #1]
 8003dee:	f8b1 31dc 	ldrh.w	r3, [r1, #476]	; 0x1dc
 8003df2:	7083      	strb	r3, [r0, #2]
 8003df4:	0a1b      	lsrs	r3, r3, #8
 8003df6:	70c3      	strb	r3, [r0, #3]
 8003df8:	4770      	bx	lr

08003dfa <expect_80>:
 8003dfa:	f8b1 31de 	ldrh.w	r3, [r1, #478]	; 0x1de
 8003dfe:	7003      	strb	r3, [r0, #0]
 8003e00:	0a1b      	lsrs	r3, r3, #8
 8003e02:	7043      	strb	r3, [r0, #1]
 8003e04:	f8b1 31e0 	ldrh.w	r3, [r1, #480]	; 0x1e0
 8003e08:	7083      	strb	r3, [r0, #2]
 8003e0a:	0a1b      	lsrs	r3, r3, #8
 8003e0c:	70c3      	strb	r3, [r0, #3]
 8003e0e:	4770      	bx	lr

08003e10 <expect_81>:
 8003e10:	f8b1 31e2 	ldrh.w	r3, [r1, #482]	; 0x1e2
 8003e14:	7003      	strb	r3, [r0, #0]
 8003e16:	0a1b      	lsrs	r3, r3, #8
 8003e18:	7043      	strb	r3, [r0, #1]
 8003e1a:	f8b1 31e4 	ldrh.w	r3, [r1, #484]	; 0x1e4
 8003e1e:	7083      	strb	r3, [r0, #2]
 8003e20:	0a1b      	lsrs	r3, r3, #8
 8003e22:	70c3      	strb	r3, [r0, #3]
 8003e24:	4770      	bx	lr

08003e26 <expect_82>:
 8003e26:	f8b1 31e6 	ldrh.w	r3, [r1, #486]	; 0x1e6
 8003e2a:	7003      	strb	r3, [r0, #0]
 8003e2c:	0a1b      	lsrs	r3, r3, #8
 8003e2e:	7043      	strb	r3, [r0, #1]
 8003e30:	f8b1 31e8 	ldrh.w	r3, [r1, #488]	; 0x1e8
 8003e34:	7083      	strb	r3, [r0, #2]
 8003e36:	0a1b      	lsrs	r3, r3, #8
 8003e38:	70c3      	strb	r3, [r0, #3]
 8003e3a:	4770      	bx	lr

08003e3c <expect_83>:
 8003e3c:	f8b1 31ea 	ldrh.w	r3, [r1, #490]	; 0x1ea
 8003e40:	7003      	strb	r3, [r0, #0]
 8003e42:	0a1b      	lsrs	r3, r3, #8
 8003e44:	7043      	strb	r3, [r0, #1]
 8003e46:	f8b1 31ec 	ldrh.w	r3, [r1, #492]	; 0x1ec
 8003e4a:	7083      	strb	r3, [r0, #2]
 8003e4c:	0a1b      	lsrs	r3, r3, #8
 8003e4e:	70c3      	strb	r3, [r0, #3]
 8003e50:	4770      	bx	lr

08003e52 <expect_84>:
 8003e52:	f8b1 31ee 	ldrh.w	r3, [r1, #494]	; 0x1ee
 8003e56:	7003      	strb	r3, [r0, #0]
 8003e58:	0a1b      	lsrs	r3, r3, #8
 8003e5a:	7043      	strb	r3, [r0, #1]
 8003e5c:	f8b1 31f0 	ldrh.w	r3, [r1, #496]	; 0x1f0
 8003e60:	7083      	strb	r3, [r0, #2]
 8003e62:	0a1b      	lsrs	r3, r3, #8
 8003e64:	70c3      	strb	r3, [r0, #3]
 8003e66:	f8b1 31f2 	ldrh.w	r3, [r1, #498]	; 0x1f2
 8003e6a:	7103      	strb	r3, [r0, #4]
 8003e6c:	0a1b      	lsrs	r3, r3, #8
 8003e6e:	7143      	strb	r3, [r0, #5]
 8003e70:	4770      	bx	lr

08003e72 <expect_85>:
 8003e72:	f8b1 31f4 	ldrh.w	r3, [r1, #500]	; 0x1f4
 8003e76:	7003      	strb	r3, [r0, #0]
 8003e78:	0a1b      	lsrs	r3, r3, #8
 8003e7a:	7043      	strb	r3, [r0, #1]
 8003e7c:	f8b1 31f6 	ldrh.w	r3, [r1, #502]	; 0x1f6
 8003e80:	7083      	strb	r3, [r0, #2]
 8003e82:	0a1b      	lsrs	r3, r3, #8
 8003e84:	70c3      	strb	r3, [r0, #3]
 8003e86:	f8b1 31f8 	ldrh.w	r3, [r1, #504]	; 0x1f8
 8003e8a:	7103      	strb	r3, [r0, #4]
 8003e8c:	0a1b      	lsrs	r3, r3, #8
 8003e8e:	7143      	strb	r3, [r0, #5]
 8003e90:	4770      	bx	lr

08003e92 <expect_86>:
 8003e92:	f8b1 31fa 	ldrh.w	r3, [r1, #506]	; 0x1fa
 8003e96:	7003      	strb	r3, [r0, #0]
 8003e98:	0a1b      	lsrs	r3, r3, #8
 8003e9a:	7043      	strb	r3, [r0, #1]
 8003e9c:	f8b1 31fc 	ldrh.w	r3, [r1, #508]	; 0x1fc
 8003ea0:	7083      	strb	r3, [r0, #2]
 8003ea2:	0a1b      	lsrs	r3, r3, #8
 8003ea4:	70c3      	strb	r3, [r0, #3]
 8003ea6:	4770      	bx	lr

08003ea8 <expect_87>:
 8003ea8:	f8b1 31fe 	ldrh.w	r3, [r1, #510]	; 0x1fe
 8003eac:	7003      	strb	r3, [r0, #0]
 8003eae:	0a1b      	lsrs	r3, r3, #8
 8003eb0:	7043      	strb	r3, [r0, #1]
 8003eb2:	f8b1 3200 	ldrh.w	r3, [r1, #512]	; 0x200
 8003eb6:	7083      	strb	r3, [r0, #2]
 8003eb8:	0a1b      	lsrs	r3, r3, #8
 8003eba:	70c3      	strb	r3, [r0, #3]
 8003ebc:	4770      	bx	lr

08003ebe <expect_88>:
 8003ebe:	f8b1 3202 	ldrh.w	r3, [r1, #514]	; 0x202
 8003ec2:	7003      	strb	r3, [r0, #0]
 8003ec4:	0a1b      	lsrs	r3, r3, #8
 8003ec6:	7043      	strb	r3, [r0, #1]
 8003ec8:	f8b1 3204 	ldrh.w	r3, [r1, #516]	; 0x204
 8003ecc:	7083      	strb	r3, [r0, #2]
 8003ece:	0a1b      	lsrs	r3, r3, #8
 8003ed0:	70c3      	strb	r3, [r0, #3]
 8003ed2:	4770      	bx	lr

08003ed4 <expect_89>:
 8003ed4:	f8b1 3206 	ldrh.w	r3, [r1, #518]	; 0x206
 8003ed8:	7003      	strb	r3, [r0, #0]
 8003eda:	0a1b      	lsrs	r3, r3, #8
 8003edc:	7043      	strb	r3, [r0, #1]
 8003ede:	f8b1 3208 	ldrh.w	r3, [r1, #520]	; 0x208
 8003ee2:	7083      	strb	r3, [r0, #2]
 8003ee4:	0a1b      	lsrs	r3, r3, #8
 8003ee6:	70c3      	strb	r3, [r0, #3]
 8003ee8:	4770      	bx	lr

08003eea <expect_8A>:
 8003eea:	f8b1 320a 	ldrh.w	r3, [r1, #522]	; 0x20a
 8003eee:	7003      	strb	r3, [r0, #0]
 8003ef0:	0a1b      	lsrs	r3, r3, #8
 8003ef2:	7043      	strb	r3, [r0, #1]
 8003ef4:	f8b1 320c 	ldrh.w	r3, [r1, #524]	; 0x20c
 8003ef8:	7083      	strb	r3, [r0, #2]
 8003efa:	0a1b      	lsrs	r3, r3, #8
 8003efc:	70c3      	strb	r3, [r0, #3]
 8003efe:	4770      	bx	lr

08003f00 <expect_90>:
 8003f00:	f8b1 320e 	ldrh.w	r3, [r1, #526]	; 0x20e
 8003f04:	7003      	strb	r3, [r0, #0]
 8003f06:	0a1b      	lsrs	r3, r3, #8
 8003f08:	7043      	strb	r3, [r0, #1]
 8003f0a:	f8b1 3210 	ldrh.w	r3, [r1, #528]	; 0x210
 8003f0e:	7083      	strb	r3, [r0, #2]
 8003f10:	0a1b      	lsrs	r3, r3, #8
 8003f12:	70c3      	strb	r3, [r0, #3]
 8003f14:	f8b1 3212 	ldrh.w	r3, [r1, #530]	; 0x212
 8003f18:	7103      	strb	r3, [r0, #4]
 8003f1a:	0a1b      	lsrs	r3, r3, #8
 8003f1c:	7143      	strb	r3, [r0, #5]
 8003f1e:	4770      	bx	lr

08003f20 <expect_91>:
 8003f20:	f8b1 3214 	ldrh.w	r3, [r1, #532]	; 0x214
 8003f24:	7003      	strb	r3, [r0, #0]
 8003f26:	0a1b      	lsrs	r3, r3, #8
 8003f28:	7043      	strb	r3, [r0, #1]
 8003f2a:	4770      	bx	lr

08003f2c <expect_A0>:
 8003f2c:	f8d1 3218 	ldr.w	r3, [r1, #536]	; 0x218
 8003f30:	7003      	strb	r3, [r0, #0]
 8003f32:	f8d1 3218 	ldr.w	r3, [r1, #536]	; 0x218
 8003f36:	0a1b      	lsrs	r3, r3, #8
 8003f38:	7043      	strb	r3, [r0, #1]
 8003f3a:	f8b1 321a 	ldrh.w	r3, [r1, #538]	; 0x21a
 8003f3e:	7083      	strb	r3, [r0, #2]
 8003f40:	f891 321b 	ldrb.w	r3, [r1, #539]	; 0x21b
 8003f44:	70c3      	strb	r3, [r0, #3]
 8003f46:	4770      	bx	lr

08003f48 <expect_A8>:
 8003f48:	f891 321c 	ldrb.w	r3, [r1, #540]	; 0x21c
 8003f4c:	7003      	strb	r3, [r0, #0]
 8003f4e:	4770      	bx	lr

08003f50 <expect_A9>:
 8003f50:	f891 321d 	ldrb.w	r3, [r1, #541]	; 0x21d
 8003f54:	7003      	strb	r3, [r0, #0]
 8003f56:	f891 321e 	ldrb.w	r3, [r1, #542]	; 0x21e
 8003f5a:	7043      	strb	r3, [r0, #1]
 8003f5c:	f891 321f 	ldrb.w	r3, [r1, #543]	; 0x21f
 8003f60:	7083      	strb	r3, [r0, #2]
 8003f62:	4770      	bx	lr

08003f64 <expect_AA>:
 8003f64:	f891 3220 	ldrb.w	r3, [r1, #544]	; 0x220
 8003f68:	7003      	strb	r3, [r0, #0]
 8003f6a:	f891 3221 	ldrb.w	r3, [r1, #545]	; 0x221
 8003f6e:	7043      	strb	r3, [r0, #1]
 8003f70:	f891 3222 	ldrb.w	r3, [r1, #546]	; 0x222
 8003f74:	7083      	strb	r3, [r0, #2]
 8003f76:	f891 3223 	ldrb.w	r3, [r1, #547]	; 0x223
 8003f7a:	70c3      	strb	r3, [r0, #3]
 8003f7c:	4770      	bx	lr

08003f7e <expect_B0>:
 8003f7e:	f8b1 3224 	ldrh.w	r3, [r1, #548]	; 0x224
 8003f82:	7003      	strb	r3, [r0, #0]
 8003f84:	0a1b      	lsrs	r3, r3, #8
 8003f86:	7043      	strb	r3, [r0, #1]
 8003f88:	f8b1 3226 	ldrh.w	r3, [r1, #550]	; 0x226
 8003f8c:	7083      	strb	r3, [r0, #2]
 8003f8e:	0a1b      	lsrs	r3, r3, #8
 8003f90:	70c3      	strb	r3, [r0, #3]
 8003f92:	f8b1 3228 	ldrh.w	r3, [r1, #552]	; 0x228
 8003f96:	7103      	strb	r3, [r0, #4]
 8003f98:	0a1b      	lsrs	r3, r3, #8
 8003f9a:	7143      	strb	r3, [r0, #5]
 8003f9c:	4770      	bx	lr

08003f9e <expect_B1>:
 8003f9e:	f8b1 322a 	ldrh.w	r3, [r1, #554]	; 0x22a
 8003fa2:	7003      	strb	r3, [r0, #0]
 8003fa4:	0a1b      	lsrs	r3, r3, #8
 8003fa6:	7043      	strb	r3, [r0, #1]
 8003fa8:	f8b1 322c 	ldrh.w	r3, [r1, #556]	; 0x22c
 8003fac:	7083      	strb	r3, [r0, #2]
 8003fae:	0a1b      	lsrs	r3, r3, #8
 8003fb0:	70c3      	strb	r3, [r0, #3]
 8003fb2:	f8b1 322e 	ldrh.w	r3, [r1, #558]	; 0x22e
 8003fb6:	7103      	strb	r3, [r0, #4]
 8003fb8:	0a1b      	lsrs	r3, r3, #8
 8003fba:	7143      	strb	r3, [r0, #5]
 8003fbc:	4770      	bx	lr

08003fbe <expect_B2>:
 8003fbe:	f8b1 3230 	ldrh.w	r3, [r1, #560]	; 0x230
 8003fc2:	7003      	strb	r3, [r0, #0]
 8003fc4:	0a1b      	lsrs	r3, r3, #8
 8003fc6:	7043      	strb	r3, [r0, #1]
 8003fc8:	f8b1 3232 	ldrh.w	r3, [r1, #562]	; 0x232
 8003fcc:	7083      	strb	r3, [r0, #2]
 8003fce:	0a1b      	lsrs	r3, r3, #8
 8003fd0:	70c3      	strb	r3, [r0, #3]
 8003fd2:	f8b1 3234 	ldrh.w	r3, [r1, #564]	; 0x234
 8003fd6:	7103      	strb	r3, [r0, #4]
 8003fd8:	0a1b      	lsrs	r3, r3, #8
 8003fda:	7143      	strb	r3, [r0, #5]
 8003fdc:	4770      	bx	lr

08003fde <expect_B3>:
 8003fde:	f8b1 3236 	ldrh.w	r3, [r1, #566]	; 0x236
 8003fe2:	7003      	strb	r3, [r0, #0]
 8003fe4:	0a1b      	lsrs	r3, r3, #8
 8003fe6:	7043      	strb	r3, [r0, #1]
 8003fe8:	f8b1 3238 	ldrh.w	r3, [r1, #568]	; 0x238
 8003fec:	7083      	strb	r3, [r0, #2]
 8003fee:	0a1b      	lsrs	r3, r3, #8
 8003ff0:	70c3      	strb	r3, [r0, #3]
 8003ff2:	f8b1 323a 	ldrh.w	r3, [r1, #570]	; 0x23a
 8003ff6:	7103      	strb	r3, [r0, #4]
 8003ff8:	0a1b      	lsrs	r3, r3, #8
 8003ffa:	7143      	strb	r3, [r0, #5]
 8003ffc:	4770      	bx	lr

08003ffe <expect_B4>:
 8003ffe:	f8b1 323c 	ldrh.w	r3, [r1, #572]	; 0x23c
 8004002:	7003      	strb	r3, [r0, #0]
 8004004:	0a1b      	lsrs	r3, r3, #8
 8004006:	7043      	strb	r3, [r0, #1]
 8004008:	f8b1 323e 	ldrh.w	r3, [r1, #574]	; 0x23e
 800400c:	7083      	strb	r3, [r0, #2]
 800400e:	0a1b      	lsrs	r3, r3, #8
 8004010:	70c3      	strb	r3, [r0, #3]
 8004012:	f8b1 3240 	ldrh.w	r3, [r1, #576]	; 0x240
 8004016:	7103      	strb	r3, [r0, #4]
 8004018:	0a1b      	lsrs	r3, r3, #8
 800401a:	7143      	strb	r3, [r0, #5]
 800401c:	4770      	bx	lr

0800401e <expect_B5>:
 800401e:	f8b1 3242 	ldrh.w	r3, [r1, #578]	; 0x242
 8004022:	7003      	strb	r3, [r0, #0]
 8004024:	0a1b      	lsrs	r3, r3, #8
 8004026:	7043      	strb	r3, [r0, #1]
 8004028:	f8b1 3244 	ldrh.w	r3, [r1, #580]	; 0x244
 800402c:	7083      	strb	r3, [r0, #2]
 800402e:	0a1b      	lsrs	r3, r3, #8
 8004030:	70c3      	strb	r3, [r0, #3]
 8004032:	4770      	bx	lr

08004034 <expect_B6>:
 8004034:	f8b1 3246 	ldrh.w	r3, [r1, #582]	; 0x246
 8004038:	7003      	strb	r3, [r0, #0]
 800403a:	0a1b      	lsrs	r3, r3, #8
 800403c:	7043      	strb	r3, [r0, #1]
 800403e:	f8b1 3248 	ldrh.w	r3, [r1, #584]	; 0x248
 8004042:	7083      	strb	r3, [r0, #2]
 8004044:	0a1b      	lsrs	r3, r3, #8
 8004046:	70c3      	strb	r3, [r0, #3]
 8004048:	4770      	bx	lr

0800404a <expect_B7>:
 800404a:	f8b1 324a 	ldrh.w	r3, [r1, #586]	; 0x24a
 800404e:	7003      	strb	r3, [r0, #0]
 8004050:	0a1b      	lsrs	r3, r3, #8
 8004052:	7043      	strb	r3, [r0, #1]
 8004054:	f8b1 324c 	ldrh.w	r3, [r1, #588]	; 0x24c
 8004058:	7083      	strb	r3, [r0, #2]
 800405a:	0a1b      	lsrs	r3, r3, #8
 800405c:	70c3      	strb	r3, [r0, #3]
 800405e:	4770      	bx	lr

08004060 <expect_B8>:
 8004060:	f8b1 324e 	ldrh.w	r3, [r1, #590]	; 0x24e
 8004064:	7003      	strb	r3, [r0, #0]
 8004066:	0a1b      	lsrs	r3, r3, #8
 8004068:	7043      	strb	r3, [r0, #1]
 800406a:	f8b1 3250 	ldrh.w	r3, [r1, #592]	; 0x250
 800406e:	7083      	strb	r3, [r0, #2]
 8004070:	0a1b      	lsrs	r3, r3, #8
 8004072:	70c3      	strb	r3, [r0, #3]
 8004074:	4770      	bx	lr

08004076 <expect_B9>:
 8004076:	f8b1 3252 	ldrh.w	r3, [r1, #594]	; 0x252
 800407a:	7003      	strb	r3, [r0, #0]
 800407c:	0a1b      	lsrs	r3, r3, #8
 800407e:	7043      	strb	r3, [r0, #1]
 8004080:	f8b1 3254 	ldrh.w	r3, [r1, #596]	; 0x254
 8004084:	7083      	strb	r3, [r0, #2]
 8004086:	0a1b      	lsrs	r3, r3, #8
 8004088:	70c3      	strb	r3, [r0, #3]
 800408a:	4770      	bx	lr

0800408c <expect_BA>:
 800408c:	f8b1 3256 	ldrh.w	r3, [r1, #598]	; 0x256
 8004090:	7003      	strb	r3, [r0, #0]
 8004092:	0a1b      	lsrs	r3, r3, #8
 8004094:	7043      	strb	r3, [r0, #1]
 8004096:	f8b1 3258 	ldrh.w	r3, [r1, #600]	; 0x258
 800409a:	7083      	strb	r3, [r0, #2]
 800409c:	0a1b      	lsrs	r3, r3, #8
 800409e:	70c3      	strb	r3, [r0, #3]
 80040a0:	f8b1 325a 	ldrh.w	r3, [r1, #602]	; 0x25a
 80040a4:	7103      	strb	r3, [r0, #4]
 80040a6:	0a1b      	lsrs	r3, r3, #8
 80040a8:	7143      	strb	r3, [r0, #5]
 80040aa:	4770      	bx	lr

080040ac <expect_BB>:
 80040ac:	f8b1 325c 	ldrh.w	r3, [r1, #604]	; 0x25c
 80040b0:	7003      	strb	r3, [r0, #0]
 80040b2:	0a1b      	lsrs	r3, r3, #8
 80040b4:	7043      	strb	r3, [r0, #1]
 80040b6:	f8b1 325e 	ldrh.w	r3, [r1, #606]	; 0x25e
 80040ba:	7083      	strb	r3, [r0, #2]
 80040bc:	0a1b      	lsrs	r3, r3, #8
 80040be:	70c3      	strb	r3, [r0, #3]
 80040c0:	f8b1 3260 	ldrh.w	r3, [r1, #608]	; 0x260
 80040c4:	7103      	strb	r3, [r0, #4]
 80040c6:	0a1b      	lsrs	r3, r3, #8
 80040c8:	7143      	strb	r3, [r0, #5]
 80040ca:	4770      	bx	lr

080040cc <expect_BC>:
 80040cc:	f8b1 3262 	ldrh.w	r3, [r1, #610]	; 0x262
 80040d0:	7003      	strb	r3, [r0, #0]
 80040d2:	0a1b      	lsrs	r3, r3, #8
 80040d4:	7043      	strb	r3, [r0, #1]
 80040d6:	f8b1 3264 	ldrh.w	r3, [r1, #612]	; 0x264
 80040da:	7083      	strb	r3, [r0, #2]
 80040dc:	0a1b      	lsrs	r3, r3, #8
 80040de:	70c3      	strb	r3, [r0, #3]
 80040e0:	4770      	bx	lr

080040e2 <expect_BD>:
 80040e2:	f8b1 3266 	ldrh.w	r3, [r1, #614]	; 0x266
 80040e6:	7003      	strb	r3, [r0, #0]
 80040e8:	0a1b      	lsrs	r3, r3, #8
 80040ea:	7043      	strb	r3, [r0, #1]
 80040ec:	f8b1 3268 	ldrh.w	r3, [r1, #616]	; 0x268
 80040f0:	7083      	strb	r3, [r0, #2]
 80040f2:	0a1b      	lsrs	r3, r3, #8
 80040f4:	70c3      	strb	r3, [r0, #3]
 80040f6:	4770      	bx	lr

080040f8 <expect_BE>:
 80040f8:	f8b1 326a 	ldrh.w	r3, [r1, #618]	; 0x26a
 80040fc:	7003      	strb	r3, [r0, #0]
 80040fe:	0a1b      	lsrs	r3, r3, #8
 8004100:	7043      	strb	r3, [r0, #1]
 8004102:	f8b1 326c 	ldrh.w	r3, [r1, #620]	; 0x26c
 8004106:	7083      	strb	r3, [r0, #2]
 8004108:	0a1b      	lsrs	r3, r3, #8
 800410a:	70c3      	strb	r3, [r0, #3]
 800410c:	4770      	bx	lr

0800410e <expect_BF>:
 800410e:	f8b1 326e 	ldrh.w	r3, [r1, #622]	; 0x26e
 8004112:	7003      	strb	r3, [r0, #0]
 8004114:	0a1b      	lsrs	r3, r3, #8
 8004116:	7043      	strb	r3, [r0, #1]
 8004118:	f8b1 3270 	ldrh.w	r3, [r1, #624]	; 0x270
 800411c:	7083      	strb	r3, [r0, #2]
 800411e:	0a1b      	lsrs	r3, r3, #8
 8004120:	70c3      	strb	r3, [r0, #3]
 8004122:	4770      	bx	lr

08004124 <expect_C0>:
 8004124:	f8b1 3272 	ldrh.w	r3, [r1, #626]	; 0x272
 8004128:	7003      	strb	r3, [r0, #0]
 800412a:	0a1b      	lsrs	r3, r3, #8
 800412c:	7043      	strb	r3, [r0, #1]
 800412e:	f8b1 3274 	ldrh.w	r3, [r1, #628]	; 0x274
 8004132:	7083      	strb	r3, [r0, #2]
 8004134:	0a1b      	lsrs	r3, r3, #8
 8004136:	70c3      	strb	r3, [r0, #3]
 8004138:	4770      	bx	lr

0800413a <expect_C1>:
 800413a:	f8b1 3276 	ldrh.w	r3, [r1, #630]	; 0x276
 800413e:	7003      	strb	r3, [r0, #0]
 8004140:	0a1b      	lsrs	r3, r3, #8
 8004142:	7043      	strb	r3, [r0, #1]
 8004144:	f8b1 3278 	ldrh.w	r3, [r1, #632]	; 0x278
 8004148:	7083      	strb	r3, [r0, #2]
 800414a:	0a1b      	lsrs	r3, r3, #8
 800414c:	70c3      	strb	r3, [r0, #3]
 800414e:	4770      	bx	lr

08004150 <expect_C2>:
 8004150:	f8b1 327a 	ldrh.w	r3, [r1, #634]	; 0x27a
 8004154:	7003      	strb	r3, [r0, #0]
 8004156:	0a1b      	lsrs	r3, r3, #8
 8004158:	7043      	strb	r3, [r0, #1]
 800415a:	f8b1 327c 	ldrh.w	r3, [r1, #636]	; 0x27c
 800415e:	7083      	strb	r3, [r0, #2]
 8004160:	0a1b      	lsrs	r3, r3, #8
 8004162:	70c3      	strb	r3, [r0, #3]
 8004164:	4770      	bx	lr

08004166 <expect_C3>:
 8004166:	f8b1 327e 	ldrh.w	r3, [r1, #638]	; 0x27e
 800416a:	7003      	strb	r3, [r0, #0]
 800416c:	0a1b      	lsrs	r3, r3, #8
 800416e:	7043      	strb	r3, [r0, #1]
 8004170:	f8b1 3280 	ldrh.w	r3, [r1, #640]	; 0x280
 8004174:	7083      	strb	r3, [r0, #2]
 8004176:	0a1b      	lsrs	r3, r3, #8
 8004178:	70c3      	strb	r3, [r0, #3]
 800417a:	4770      	bx	lr

0800417c <expect_C4>:
 800417c:	f8b1 3282 	ldrh.w	r3, [r1, #642]	; 0x282
 8004180:	7003      	strb	r3, [r0, #0]
 8004182:	0a1b      	lsrs	r3, r3, #8
 8004184:	7043      	strb	r3, [r0, #1]
 8004186:	f8b1 3284 	ldrh.w	r3, [r1, #644]	; 0x284
 800418a:	7083      	strb	r3, [r0, #2]
 800418c:	0a1b      	lsrs	r3, r3, #8
 800418e:	70c3      	strb	r3, [r0, #3]
 8004190:	f8b1 3286 	ldrh.w	r3, [r1, #646]	; 0x286
 8004194:	7103      	strb	r3, [r0, #4]
 8004196:	0a1b      	lsrs	r3, r3, #8
 8004198:	7143      	strb	r3, [r0, #5]
 800419a:	4770      	bx	lr

0800419c <expect_C5>:
 800419c:	f8b1 3288 	ldrh.w	r3, [r1, #648]	; 0x288
 80041a0:	7003      	strb	r3, [r0, #0]
 80041a2:	0a1b      	lsrs	r3, r3, #8
 80041a4:	7043      	strb	r3, [r0, #1]
 80041a6:	f8b1 328a 	ldrh.w	r3, [r1, #650]	; 0x28a
 80041aa:	7083      	strb	r3, [r0, #2]
 80041ac:	0a1b      	lsrs	r3, r3, #8
 80041ae:	70c3      	strb	r3, [r0, #3]
 80041b0:	f8b1 328c 	ldrh.w	r3, [r1, #652]	; 0x28c
 80041b4:	7103      	strb	r3, [r0, #4]
 80041b6:	0a1b      	lsrs	r3, r3, #8
 80041b8:	7143      	strb	r3, [r0, #5]
 80041ba:	4770      	bx	lr

080041bc <expect_C6>:
 80041bc:	f8b1 328e 	ldrh.w	r3, [r1, #654]	; 0x28e
 80041c0:	7003      	strb	r3, [r0, #0]
 80041c2:	0a1b      	lsrs	r3, r3, #8
 80041c4:	7043      	strb	r3, [r0, #1]
 80041c6:	f8b1 3290 	ldrh.w	r3, [r1, #656]	; 0x290
 80041ca:	7083      	strb	r3, [r0, #2]
 80041cc:	0a1b      	lsrs	r3, r3, #8
 80041ce:	70c3      	strb	r3, [r0, #3]
 80041d0:	4770      	bx	lr

080041d2 <expect_C7>:
 80041d2:	f8b1 3292 	ldrh.w	r3, [r1, #658]	; 0x292
 80041d6:	7003      	strb	r3, [r0, #0]
 80041d8:	0a1b      	lsrs	r3, r3, #8
 80041da:	7043      	strb	r3, [r0, #1]
 80041dc:	f8b1 3294 	ldrh.w	r3, [r1, #660]	; 0x294
 80041e0:	7083      	strb	r3, [r0, #2]
 80041e2:	0a1b      	lsrs	r3, r3, #8
 80041e4:	70c3      	strb	r3, [r0, #3]
 80041e6:	4770      	bx	lr

080041e8 <expect_C8>:
 80041e8:	f8b1 3296 	ldrh.w	r3, [r1, #662]	; 0x296
 80041ec:	7003      	strb	r3, [r0, #0]
 80041ee:	0a1b      	lsrs	r3, r3, #8
 80041f0:	7043      	strb	r3, [r0, #1]
 80041f2:	f8b1 3298 	ldrh.w	r3, [r1, #664]	; 0x298
 80041f6:	7083      	strb	r3, [r0, #2]
 80041f8:	0a1b      	lsrs	r3, r3, #8
 80041fa:	70c3      	strb	r3, [r0, #3]
 80041fc:	4770      	bx	lr

080041fe <expect_C9>:
 80041fe:	f8b1 329a 	ldrh.w	r3, [r1, #666]	; 0x29a
 8004202:	7003      	strb	r3, [r0, #0]
 8004204:	0a1b      	lsrs	r3, r3, #8
 8004206:	7043      	strb	r3, [r0, #1]
 8004208:	f8b1 329c 	ldrh.w	r3, [r1, #668]	; 0x29c
 800420c:	7083      	strb	r3, [r0, #2]
 800420e:	0a1b      	lsrs	r3, r3, #8
 8004210:	70c3      	strb	r3, [r0, #3]
 8004212:	4770      	bx	lr

08004214 <expect_CA>:
 8004214:	f8b1 329e 	ldrh.w	r3, [r1, #670]	; 0x29e
 8004218:	7003      	strb	r3, [r0, #0]
 800421a:	0a1b      	lsrs	r3, r3, #8
 800421c:	7043      	strb	r3, [r0, #1]
 800421e:	f8b1 32a0 	ldrh.w	r3, [r1, #672]	; 0x2a0
 8004222:	7083      	strb	r3, [r0, #2]
 8004224:	0a1b      	lsrs	r3, r3, #8
 8004226:	70c3      	strb	r3, [r0, #3]
 8004228:	4770      	bx	lr

0800422a <expect_CB>:
 800422a:	f8b1 32a2 	ldrh.w	r3, [r1, #674]	; 0x2a2
 800422e:	7003      	strb	r3, [r0, #0]
 8004230:	0a1b      	lsrs	r3, r3, #8
 8004232:	7043      	strb	r3, [r0, #1]
 8004234:	f8b1 32a4 	ldrh.w	r3, [r1, #676]	; 0x2a4
 8004238:	7083      	strb	r3, [r0, #2]
 800423a:	0a1b      	lsrs	r3, r3, #8
 800423c:	70c3      	strb	r3, [r0, #3]
 800423e:	f8b1 32a6 	ldrh.w	r3, [r1, #678]	; 0x2a6
 8004242:	7103      	strb	r3, [r0, #4]
 8004244:	0a1b      	lsrs	r3, r3, #8
 8004246:	7143      	strb	r3, [r0, #5]
 8004248:	4770      	bx	lr

0800424a <expect_CC>:
 800424a:	f8b1 32a8 	ldrh.w	r3, [r1, #680]	; 0x2a8
 800424e:	7083      	strb	r3, [r0, #2]
 8004250:	0a1b      	lsrs	r3, r3, #8
 8004252:	70c3      	strb	r3, [r0, #3]
 8004254:	f8b1 32aa 	ldrh.w	r3, [r1, #682]	; 0x2aa
 8004258:	7103      	strb	r3, [r0, #4]
 800425a:	0a1b      	lsrs	r3, r3, #8
 800425c:	7143      	strb	r3, [r0, #5]
 800425e:	4770      	bx	lr

08004260 <expect_CD>:
 8004260:	f8b1 32ac 	ldrh.w	r3, [r1, #684]	; 0x2ac
 8004264:	7003      	strb	r3, [r0, #0]
 8004266:	0a1b      	lsrs	r3, r3, #8
 8004268:	7043      	strb	r3, [r0, #1]
 800426a:	f8b1 32ae 	ldrh.w	r3, [r1, #686]	; 0x2ae
 800426e:	7083      	strb	r3, [r0, #2]
 8004270:	0a1b      	lsrs	r3, r3, #8
 8004272:	70c3      	strb	r3, [r0, #3]
 8004274:	f8b1 32b0 	ldrh.w	r3, [r1, #688]	; 0x2b0
 8004278:	7103      	strb	r3, [r0, #4]
 800427a:	0a1b      	lsrs	r3, r3, #8
 800427c:	7143      	strb	r3, [r0, #5]
 800427e:	4770      	bx	lr

08004280 <expect_CE>:
 8004280:	f8b1 32b2 	ldrh.w	r3, [r1, #690]	; 0x2b2
 8004284:	7003      	strb	r3, [r0, #0]
 8004286:	0a1b      	lsrs	r3, r3, #8
 8004288:	7043      	strb	r3, [r0, #1]
 800428a:	f8b1 32b4 	ldrh.w	r3, [r1, #692]	; 0x2b4
 800428e:	7083      	strb	r3, [r0, #2]
 8004290:	0a1b      	lsrs	r3, r3, #8
 8004292:	70c3      	strb	r3, [r0, #3]
 8004294:	f8b1 32b6 	ldrh.w	r3, [r1, #694]	; 0x2b6
 8004298:	7103      	strb	r3, [r0, #4]
 800429a:	0a1b      	lsrs	r3, r3, #8
 800429c:	7143      	strb	r3, [r0, #5]
 800429e:	4770      	bx	lr

080042a0 <expect_CF>:
 80042a0:	f8b1 32b8 	ldrh.w	r3, [r1, #696]	; 0x2b8
 80042a4:	7003      	strb	r3, [r0, #0]
 80042a6:	0a1b      	lsrs	r3, r3, #8
 80042a8:	7043      	strb	r3, [r0, #1]
 80042aa:	f8b1 32ba 	ldrh.w	r3, [r1, #698]	; 0x2ba
 80042ae:	7083      	strb	r3, [r0, #2]
 80042b0:	0a1b      	lsrs	r3, r3, #8
 80042b2:	70c3      	strb	r3, [r0, #3]
 80042b4:	4770      	bx	lr

080042b6 <expect_D0>:
 80042b6:	f891 32bc 	ldrb.w	r3, [r1, #700]	; 0x2bc
 80042ba:	7003      	strb	r3, [r0, #0]
 80042bc:	f891 32bd 	ldrb.w	r3, [r1, #701]	; 0x2bd
 80042c0:	7043      	strb	r3, [r0, #1]
 80042c2:	f891 32be 	ldrb.w	r3, [r1, #702]	; 0x2be
 80042c6:	7083      	strb	r3, [r0, #2]
 80042c8:	f891 32bf 	ldrb.w	r3, [r1, #703]	; 0x2bf
 80042cc:	70c3      	strb	r3, [r0, #3]
 80042ce:	f891 32c0 	ldrb.w	r3, [r1, #704]	; 0x2c0
 80042d2:	7103      	strb	r3, [r0, #4]
 80042d4:	f891 32c1 	ldrb.w	r3, [r1, #705]	; 0x2c1
 80042d8:	7143      	strb	r3, [r0, #5]
 80042da:	4770      	bx	lr

080042dc <expect_D1>:
 80042dc:	f891 32c2 	ldrb.w	r3, [r1, #706]	; 0x2c2
 80042e0:	7003      	strb	r3, [r0, #0]
 80042e2:	f891 32c3 	ldrb.w	r3, [r1, #707]	; 0x2c3
 80042e6:	7043      	strb	r3, [r0, #1]
 80042e8:	f891 32c4 	ldrb.w	r3, [r1, #708]	; 0x2c4
 80042ec:	7083      	strb	r3, [r0, #2]
 80042ee:	4770      	bx	lr

080042f0 <expect_D8>:
 80042f0:	f891 32c5 	ldrb.w	r3, [r1, #709]	; 0x2c5
 80042f4:	7003      	strb	r3, [r0, #0]
 80042f6:	f891 32c6 	ldrb.w	r3, [r1, #710]	; 0x2c6
 80042fa:	7043      	strb	r3, [r0, #1]
 80042fc:	f891 32c7 	ldrb.w	r3, [r1, #711]	; 0x2c7
 8004300:	7083      	strb	r3, [r0, #2]
 8004302:	f891 32c8 	ldrb.w	r3, [r1, #712]	; 0x2c8
 8004306:	70c3      	strb	r3, [r0, #3]
 8004308:	f891 32c9 	ldrb.w	r3, [r1, #713]	; 0x2c9
 800430c:	7103      	strb	r3, [r0, #4]
 800430e:	f891 32ca 	ldrb.w	r3, [r1, #714]	; 0x2ca
 8004312:	7143      	strb	r3, [r0, #5]
 8004314:	4770      	bx	lr

08004316 <expect_D9>:
 8004316:	f891 32cb 	ldrb.w	r3, [r1, #715]	; 0x2cb
 800431a:	7003      	strb	r3, [r0, #0]
 800431c:	f891 32cc 	ldrb.w	r3, [r1, #716]	; 0x2cc
 8004320:	7043      	strb	r3, [r0, #1]
 8004322:	f891 32cd 	ldrb.w	r3, [r1, #717]	; 0x2cd
 8004326:	7083      	strb	r3, [r0, #2]
 8004328:	4770      	bx	lr

0800432a <expect_1F8>:
 800432a:	f8b1 32ce 	ldrh.w	r3, [r1, #718]	; 0x2ce
 800432e:	7003      	strb	r3, [r0, #0]
 8004330:	0a1b      	lsrs	r3, r3, #8
 8004332:	7043      	strb	r3, [r0, #1]
 8004334:	f8b1 32d0 	ldrh.w	r3, [r1, #720]	; 0x2d0
 8004338:	7083      	strb	r3, [r0, #2]
 800433a:	0a1b      	lsrs	r3, r3, #8
 800433c:	70c3      	strb	r3, [r0, #3]
 800433e:	4770      	bx	lr

08004340 <expect_1FA>:
 8004340:	f891 32d2 	ldrb.w	r3, [r1, #722]	; 0x2d2
 8004344:	7003      	strb	r3, [r0, #0]
 8004346:	f891 32d3 	ldrb.w	r3, [r1, #723]	; 0x2d3
 800434a:	7043      	strb	r3, [r0, #1]
 800434c:	f891 32d4 	ldrb.w	r3, [r1, #724]	; 0x2d4
 8004350:	7083      	strb	r3, [r0, #2]
 8004352:	f891 32d5 	ldrb.w	r3, [r1, #725]	; 0x2d5
 8004356:	70c3      	strb	r3, [r0, #3]
 8004358:	f891 32d6 	ldrb.w	r3, [r1, #726]	; 0x2d6
 800435c:	7103      	strb	r3, [r0, #4]
 800435e:	4770      	bx	lr

08004360 <PMB_LoopbackTest_Run>:
 8004360:	e92d 4ff0 	stmdb	sp!, {r4, r5, r6, r7, r8, r9, sl, fp, lr}
 8004364:	b085      	sub	sp, #20
 8004366:	4604      	mov	r4, r0
 8004368:	9101      	str	r1, [sp, #4]
 800436a:	f7ff f803 	bl	8003374 <PMB_GetRegs>
 800436e:	4607      	mov	r7, r0
 8004370:	f7ff f800 	bl	8003374 <PMB_GetRegs>
 8004374:	f44f 7300 	mov.w	r3, #512	; 0x200
 8004378:	8003      	strh	r3, [r0, #0]
 800437a:	f44f 7340 	mov.w	r3, #768	; 0x300
 800437e:	8043      	strh	r3, [r0, #2]
 8004380:	f44f 7344 	mov.w	r3, #784	; 0x310
 8004384:	8083      	strh	r3, [r0, #4]
 8004386:	2350      	movs	r3, #80	; 0x50
 8004388:	80c3      	strh	r3, [r0, #6]
 800438a:	2351      	movs	r3, #81	; 0x51
 800438c:	8103      	strh	r3, [r0, #8]
 800438e:	2352      	movs	r3, #82	; 0x52
 8004390:	8143      	strh	r3, [r0, #10]
 8004392:	2353      	movs	r3, #83	; 0x53
 8004394:	8183      	strh	r3, [r0, #12]
 8004396:	2354      	movs	r3, #84	; 0x54
 8004398:	81c3      	strh	r3, [r0, #14]
 800439a:	f44f 63c8 	mov.w	r3, #1600	; 0x640
 800439e:	8203      	strh	r3, [r0, #16]
 80043a0:	f44f 6316 	mov.w	r3, #2400	; 0x960
 80043a4:	8243      	strh	r3, [r0, #18]
 80043a6:	f640 1361 	movw	r3, #2401	; 0x961
 80043aa:	8283      	strh	r3, [r0, #20]
 80043ac:	f640 1362 	movw	r3, #2402	; 0x962
 80043b0:	82c3      	strh	r3, [r0, #22]
 80043b2:	2320      	movs	r3, #32
 80043b4:	8303      	strh	r3, [r0, #24]
 80043b6:	f640 1363 	movw	r3, #2403	; 0x963
 80043ba:	8343      	strh	r3, [r0, #26]
 80043bc:	f640 1364 	movw	r3, #2404	; 0x964
 80043c0:	8383      	strh	r3, [r0, #28]
 80043c2:	f640 1365 	movw	r3, #2405	; 0x965
 80043c6:	83c3      	strh	r3, [r0, #30]
 80043c8:	2330      	movs	r3, #48	; 0x30
 80043ca:	8403      	strh	r3, [r0, #32]
 80043cc:	f240 53dc 	movw	r3, #1500	; 0x5dc
 80043d0:	8443      	strh	r3, [r0, #34]	; 0x22
 80043d2:	2340      	movs	r3, #64	; 0x40
 80043d4:	8483      	strh	r3, [r0, #36]	; 0x24
 80043d6:	f240 53dd 	movw	r3, #1501	; 0x5dd
 80043da:	84c3      	strh	r3, [r0, #38]	; 0x26
 80043dc:	2341      	movs	r3, #65	; 0x41
 80043de:	8503      	strh	r3, [r0, #40]	; 0x28
 80043e0:	f240 23ee 	movw	r3, #750	; 0x2ee
 80043e4:	8543      	strh	r3, [r0, #42]	; 0x2a
 80043e6:	2342      	movs	r3, #66	; 0x42
 80043e8:	8583      	strh	r3, [r0, #44]	; 0x2c
 80043ea:	f240 23ef 	movw	r3, #751	; 0x2ef
 80043ee:	85c3      	strh	r3, [r0, #46]	; 0x2e
 80043f0:	2343      	movs	r3, #67	; 0x43
 80043f2:	8603      	strh	r3, [r0, #48]	; 0x30
 80043f4:	2344      	movs	r3, #68	; 0x44
 80043f6:	8643      	strh	r3, [r0, #50]	; 0x32
 80043f8:	2345      	movs	r3, #69	; 0x45
 80043fa:	8683      	strh	r3, [r0, #52]	; 0x34
 80043fc:	2346      	movs	r3, #70	; 0x46
 80043fe:	86c3      	strh	r3, [r0, #54]	; 0x36
 8004400:	2347      	movs	r3, #71	; 0x47
 8004402:	8703      	strh	r3, [r0, #56]	; 0x38
 8004404:	2348      	movs	r3, #72	; 0x48
 8004406:	8743      	strh	r3, [r0, #58]	; 0x3a
 8004408:	2349      	movs	r3, #73	; 0x49
 800440a:	8783      	strh	r3, [r0, #60]	; 0x3c
 800440c:	f240 53de 	movw	r3, #1502	; 0x5de
 8004410:	87c3      	strh	r3, [r0, #62]	; 0x3e
 8004412:	f44f 733c 	mov.w	r3, #752	; 0x2f0
 8004416:	f8a0 3040 	strh.w	r3, [r0, #64]	; 0x40
 800441a:	f44f 739e 	mov.w	r3, #316	; 0x13c
 800441e:	f8a0 3042 	strh.w	r3, [r0, #66]	; 0x42
 8004422:	234a      	movs	r3, #74	; 0x4a
 8004424:	f8a0 3044 	strh.w	r3, [r0, #68]	; 0x44
 8004428:	23ce      	movs	r3, #206	; 0xce
 800442a:	f8a0 3046 	strh.w	r3, [r0, #70]	; 0x46
 800442e:	f240 53df 	movw	r3, #1503	; 0x5df
 8004432:	f8a0 304a 	strh.w	r3, [r0, #74]	; 0x4a
 8004436:	f240 23f1 	movw	r3, #753	; 0x2f1
 800443a:	f8a0 304e 	strh.w	r3, [r0, #78]	; 0x4e
 800443e:	234d      	movs	r3, #77	; 0x4d
 8004440:	f8a0 3050 	strh.w	r3, [r0, #80]	; 0x50
 8004444:	f240 23f2 	movw	r3, #754	; 0x2f2
 8004448:	f8a0 3052 	strh.w	r3, [r0, #82]	; 0x52
 800444c:	f240 23f3 	movw	r3, #755	; 0x2f3
 8004450:	f8a0 3054 	strh.w	r3, [r0, #84]	; 0x54
 8004454:	234e      	movs	r3, #78	; 0x4e
 8004456:	f8a0 3056 	strh.w	r3, [r0, #86]	; 0x56
 800445a:	234f      	movs	r3, #79	; 0x4f
 800445c:	f8a0 3058 	strh.w	r3, [r0, #88]	; 0x58
 8004460:	f44f 7580 	mov.w	r5, #256	; 0x100
 8004464:	f640 1366 	movw	r3, #2406	; 0x966
 8004468:	f8a0 305a 	strh.w	r3, [r0, #90]	; 0x5a
 800446c:	f8a0 506a 	strh.w	r5, [r0, #106]	; 0x6a
 8004470:	2321      	movs	r3, #33	; 0x21
 8004472:	f240 1501 	movw	r5, #257	; 0x101
 8004476:	f8a0 305c 	strh.w	r3, [r0, #92]	; 0x5c
 800447a:	f8a0 506c 	strh.w	r5, [r0, #108]	; 0x6c
 800447e:	23fa      	movs	r3, #250	; 0xfa
 8004480:	f44f 753d 	mov.w	r5, #756	; 0x2f4
 8004484:	f8a0 305e 	strh.w	r3, [r0, #94]	; 0x5e
 8004488:	f8a0 506e 	strh.w	r5, [r0, #110]	; 0x6e
 800448c:	23fb      	movs	r3, #251	; 0xfb
 800448e:	f240 25f5 	movw	r5, #757	; 0x2f5
 8004492:	214b      	movs	r1, #75	; 0x4b
 8004494:	f8a0 3060 	strh.w	r3, [r0, #96]	; 0x60
 8004498:	f8a0 5070 	strh.w	r5, [r0, #112]	; 0x70
 800449c:	23fc      	movs	r3, #252	; 0xfc
 800449e:	f44f 65bc 	mov.w	r5, #1504	; 0x5e0
 80044a2:	f8a0 1048 	strh.w	r1, [r0, #72]	; 0x48
 80044a6:	224c      	movs	r2, #76	; 0x4c
 80044a8:	f8a0 3062 	strh.w	r3, [r0, #98]	; 0x62
 80044ac:	f8a0 5072 	strh.w	r5, [r0, #114]	; 0x72
 80044b0:	f8a0 1078 	strh.w	r1, [r0, #120]	; 0x78
 80044b4:	23fd      	movs	r3, #253	; 0xfd
 80044b6:	f44f 7581 	mov.w	r5, #258	; 0x102
 80044ba:	21cf      	movs	r1, #207	; 0xcf
 80044bc:	f04f 0cfe 	mov.w	ip, #254	; 0xfe
 80044c0:	f8a0 204c 	strh.w	r2, [r0, #76]	; 0x4c
 80044c4:	f8a0 3064 	strh.w	r3, [r0, #100]	; 0x64
 80044c8:	f8a0 5074 	strh.w	r5, [r0, #116]	; 0x74
 80044cc:	23ff      	movs	r3, #255	; 0xff
 80044ce:	f8a0 107a 	strh.w	r1, [r0, #122]	; 0x7a
 80044d2:	f8a0 207c 	strh.w	r2, [r0, #124]	; 0x7c
 80044d6:	2103      	movs	r1, #3
 80044d8:	259c      	movs	r5, #156	; 0x9c
 80044da:	f04f 09a5 	mov.w	r9, #165	; 0xa5
 80044de:	f04f 085a 	mov.w	r8, #90	; 0x5a
 80044e2:	221f      	movs	r2, #31
 80044e4:	f8a0 3068 	strh.w	r3, [r0, #104]	; 0x68
 80044e8:	f8a0 5076 	strh.w	r5, [r0, #118]	; 0x76
 80044ec:	f880 2081 	strb.w	r2, [r0, #129]	; 0x81
 80044f0:	f8a0 c066 	strh.w	ip, [r0, #102]	; 0x66
 80044f4:	f880 907e 	strb.w	r9, [r0, #126]	; 0x7e
 80044f8:	f880 807f 	strb.w	r8, [r0, #127]	; 0x7f
 80044fc:	f880 1080 	strb.w	r1, [r0, #128]	; 0x80
 8004500:	f880 3082 	strb.w	r3, [r0, #130]	; 0x82
 8004504:	23c3      	movs	r3, #195	; 0xc3
 8004506:	f880 3084 	strb.w	r3, [r0, #132]	; 0x84
 800450a:	23e7      	movs	r3, #231	; 0xe7
 800450c:	f880 3086 	strb.w	r3, [r0, #134]	; 0x86
 8004510:	237e      	movs	r3, #126	; 0x7e
 8004512:	f880 308a 	strb.w	r3, [r0, #138]	; 0x8a
 8004516:	f880 308b 	strb.w	r3, [r0, #139]	; 0x8b
 800451a:	f880 308f 	strb.w	r3, [r0, #143]	; 0x8f
 800451e:	231e      	movs	r3, #30
 8004520:	f880 3092 	strb.w	r3, [r0, #146]	; 0x92
 8004524:	f880 3093 	strb.w	r3, [r0, #147]	; 0x93
 8004528:	230a      	movs	r3, #10
 800452a:	f8a0 3094 	strh.w	r3, [r0, #148]	; 0x94
 800452e:	f64f 73fb 	movw	r3, #65531	; 0xfffb
 8004532:	f8a0 3096 	strh.w	r3, [r0, #150]	; 0x96
 8004536:	f64f 73fd 	movw	r3, #65533	; 0xfffd
 800453a:	f8a0 309c 	strh.w	r3, [r0, #156]	; 0x9c
 800453e:	2304      	movs	r3, #4
 8004540:	f8a0 309e 	strh.w	r3, [r0, #158]	; 0x9e
 8004544:	2364      	movs	r3, #100	; 0x64
 8004546:	f8a0 30a6 	strh.w	r3, [r0, #166]	; 0xa6
 800454a:	f64f 73ce 	movw	r3, #65486	; 0xffce
 800454e:	f8a0 30f2 	strh.w	r3, [r0, #242]	; 0xf2
 8004552:	f64f 73d0 	movw	r3, #65488	; 0xffd0
 8004556:	220e      	movs	r2, #14
 8004558:	f8a0 30f4 	strh.w	r3, [r0, #244]	; 0xf4
 800455c:	f64f 73d2 	movw	r3, #65490	; 0xffd2
 8004560:	f04f 0e02 	mov.w	lr, #2
 8004564:	2601      	movs	r6, #1
 8004566:	f880 208c 	strb.w	r2, [r0, #140]	; 0x8c
 800456a:	f880 208d 	strb.w	r2, [r0, #141]	; 0x8d
 800456e:	f880 208e 	strb.w	r2, [r0, #142]	; 0x8e
 8004572:	2500      	movs	r5, #0
 8004574:	2207      	movs	r2, #7
 8004576:	f8a0 30f6 	strh.w	r3, [r0, #246]	; 0xf6
 800457a:	f04f 0a06 	mov.w	sl, #6
 800457e:	f640 73ff 	movw	r3, #4095	; 0xfff
 8004582:	f8a0 3112 	strh.w	r3, [r0, #274]	; 0x112
 8004586:	f8a0 3114 	strh.w	r3, [r0, #276]	; 0x114
 800458a:	f8a0 3116 	strh.w	r3, [r0, #278]	; 0x116
 800458e:	f8a0 3124 	strh.w	r3, [r0, #292]	; 0x124
 8004592:	f8a0 3170 	strh.w	r3, [r0, #368]	; 0x170
 8004596:	f8a0 3172 	strh.w	r3, [r0, #370]	; 0x172
 800459a:	f880 e083 	strb.w	lr, [r0, #131]	; 0x83
 800459e:	f880 6085 	strb.w	r6, [r0, #133]	; 0x85
 80045a2:	f880 6087 	strb.w	r6, [r0, #135]	; 0x87
 80045a6:	f880 e088 	strb.w	lr, [r0, #136]	; 0x88
 80045aa:	f880 c089 	strb.w	ip, [r0, #137]	; 0x89
 80045ae:	f880 5090 	strb.w	r5, [r0, #144]	; 0x90
 80045b2:	f880 a091 	strb.w	sl, [r0, #145]	; 0x91
 80045b6:	f8a0 2098 	strh.w	r2, [r0, #152]	; 0x98
 80045ba:	f8a0 109a 	strh.w	r1, [r0, #154]	; 0x9a
 80045be:	f8a0 3174 	strh.w	r3, [r0, #372]	; 0x174
 80045c2:	f8a0 3236 	strh.w	r3, [r0, #566]	; 0x236
 80045c6:	f44f 7348 	mov.w	r3, #800	; 0x320
 80045ca:	f8a0 3282 	strh.w	r3, [r0, #642]	; 0x282
 80045ce:	f64f 7338 	movw	r3, #65336	; 0xff38
 80045d2:	f8a0 32ac 	strh.w	r3, [r0, #684]	; 0x2ac
 80045d6:	f64f 739c 	movw	r3, #65436	; 0xff9c
 80045da:	f241 3b88 	movw	fp, #5000	; 0x1388
 80045de:	f8a0 32a8 	strh.w	r3, [r0, #680]	; 0x2a8
 80045e2:	f8a0 32aa 	strh.w	r3, [r0, #682]	; 0x2aa
 80045e6:	4b52      	ldr	r3, [pc, #328]	; (8004730 <PMB_LoopbackTest_Run+0x3d0>)
 80045e8:	f8a0 b224 	strh.w	fp, [r0, #548]	; 0x224
 80045ec:	f8c0 3218 	str.w	r3, [r0, #536]	; 0x218
 80045f0:	f44f 6b7a 	mov.w	fp, #4000	; 0xfa0
 80045f4:	230f      	movs	r3, #15
 80045f6:	f8a0 b226 	strh.w	fp, [r0, #550]	; 0x226
 80045fa:	f8a0 b228 	strh.w	fp, [r0, #552]	; 0x228
 80045fe:	f880 a21c 	strb.w	sl, [r0, #540]	; 0x21c
 8004602:	f880 c21d 	strb.w	ip, [r0, #541]	; 0x21d
 8004606:	f880 521e 	strb.w	r5, [r0, #542]	; 0x21e
 800460a:	f880 521f 	strb.w	r5, [r0, #543]	; 0x21f
 800460e:	f880 92bc 	strb.w	r9, [r0, #700]	; 0x2bc
 8004612:	f880 82bd 	strb.w	r8, [r0, #701]	; 0x2bd
 8004616:	f880 32c5 	strb.w	r3, [r0, #709]	; 0x2c5
 800461a:	f8a0 e2ce 	strh.w	lr, [r0, #718]	; 0x2ce
 800461e:	f8a0 12d0 	strh.w	r1, [r0, #720]	; 0x2d0
 8004622:	f880 32d2 	strb.w	r3, [r0, #722]	; 0x2d2
 8004626:	f880 62d3 	strb.w	r6, [r0, #723]	; 0x2d3
 800462a:	f880 22d4 	strb.w	r2, [r0, #724]	; 0x2d4
 800462e:	f880 32d5 	strb.w	r3, [r0, #725]	; 0x2d5
 8004632:	f880 22d6 	strb.w	r2, [r0, #726]	; 0x2d6
 8004636:	f7fb feaf 	bl	8000398 <PMB_UpdateEU>
 800463a:	340b      	adds	r4, #11
 800463c:	2100      	movs	r1, #0
 800463e:	2214      	movs	r2, #20
 8004640:	f1a4 000b 	sub.w	r0, r4, #11
 8004644:	f000 fcfa 	bl	800503c <memset>
 8004648:	f8df 90f0 	ldr.w	r9, [pc, #240]	; 800473c <PMB_LoopbackTest_Run+0x3dc>
 800464c:	4839      	ldr	r0, [pc, #228]	; (8004734 <PMB_LoopbackTest_Run+0x3d4>)
 800464e:	f8d9 2004 	ldr.w	r2, [r9, #4]
 8004652:	5a2b      	ldrh	r3, [r5, r0]
 8004654:	6812      	ldr	r2, [r2, #0]
 8004656:	f824 3c0b 	strh.w	r3, [r4, #-11]
 800465a:	4937      	ldr	r1, [pc, #220]	; (8004738 <PMB_LoopbackTest_Run+0x3d8>)
 800465c:	f3c3 0309 	ubfx	r3, r3, #0, #10
 8004660:	041b      	lsls	r3, r3, #16
 8004662:	4319      	orrs	r1, r3
 8004664:	6853      	ldr	r3, [r2, #4]
 8004666:	f361 031c 	bfi	r3, r1, #0, #29
 800466a:	6053      	str	r3, [r2, #4]
 800466c:	2300      	movs	r3, #0
 800466e:	6113      	str	r3, [r2, #16]
 8004670:	6153      	str	r3, [r2, #20]
 8004672:	6813      	ldr	r3, [r2, #0]
 8004674:	f44f 3280 	mov.w	r2, #65536	; 0x10000
 8004678:	61da      	str	r2, [r3, #28]
 800467a:	f44f 63fa 	mov.w	r3, #2000	; 0x7d0
 800467e:	9302      	str	r3, [sp, #8]
 8004680:	4680      	mov	r8, r0
 8004682:	9b02      	ldr	r3, [sp, #8]
 8004684:	1e5a      	subs	r2, r3, #1
 8004686:	9202      	str	r2, [sp, #8]
 8004688:	b10b      	cbz	r3, 800468e <PMB_LoopbackTest_Run+0x32e>
 800468a:	bf00      	nop
 800468c:	e7f9      	b.n	8004682 <PMB_LoopbackTest_Run+0x322>
 800468e:	f7fc fa03 	bl	8000a98 <PMB_Emulator_Run>
 8004692:	f44f 73fa 	mov.w	r3, #500	; 0x1f4
 8004696:	9303      	str	r3, [sp, #12]
 8004698:	9b03      	ldr	r3, [sp, #12]
 800469a:	1e5a      	subs	r2, r3, #1
 800469c:	9203      	str	r2, [sp, #12]
 800469e:	b10b      	cbz	r3, 80046a4 <PMB_LoopbackTest_Run+0x344>
 80046a0:	bf00      	nop
 80046a2:	e7f9      	b.n	8004698 <PMB_LoopbackTest_Run+0x338>
 80046a4:	f8d9 3008 	ldr.w	r3, [r9, #8]
 80046a8:	681b      	ldr	r3, [r3, #0]
 80046aa:	691a      	ldr	r2, [r3, #16]
 80046ac:	f804 2c08 	strb.w	r2, [r4, #-8]
 80046b0:	691a      	ldr	r2, [r3, #16]
 80046b2:	0a12      	lsrs	r2, r2, #8
 80046b4:	f804 2c07 	strb.w	r2, [r4, #-7]
 80046b8:	8a5a      	ldrh	r2, [r3, #18]
 80046ba:	f804 2c06 	strb.w	r2, [r4, #-6]
 80046be:	7cda      	ldrb	r2, [r3, #19]
 80046c0:	f804 2c05 	strb.w	r2, [r4, #-5]
 80046c4:	695a      	ldr	r2, [r3, #20]
 80046c6:	f804 2c04 	strb.w	r2, [r4, #-4]
 80046ca:	695a      	ldr	r2, [r3, #20]
 80046cc:	0a12      	lsrs	r2, r2, #8
 80046ce:	f804 2c03 	strb.w	r2, [r4, #-3]
 80046d2:	8ada      	ldrh	r2, [r3, #22]
 80046d4:	f804 2c02 	strb.w	r2, [r4, #-2]
 80046d8:	7ddb      	ldrb	r3, [r3, #23]
 80046da:	f804 3c01 	strb.w	r3, [r4, #-1]
 80046de:	44a8      	add	r8, r5
 80046e0:	4620      	mov	r0, r4
 80046e2:	f8d8 3004 	ldr.w	r3, [r8, #4]
 80046e6:	4639      	mov	r1, r7
 80046e8:	4798      	blx	r3
 80046ea:	4623      	mov	r3, r4
 80046ec:	2201      	movs	r2, #1
 80046ee:	f803 2d09 	strb.w	r2, [r3, #-9]!
 80046f2:	1ee2      	subs	r2, r4, #3
 80046f4:	f813 0f01 	ldrb.w	r0, [r3, #1]!
 80046f8:	7a19      	ldrb	r1, [r3, #8]
 80046fa:	4288      	cmp	r0, r1
 80046fc:	d003      	beq.n	8004706 <PMB_LoopbackTest_Run+0x3a6>
 80046fe:	2300      	movs	r3, #0
 8004700:	f804 3c09 	strb.w	r3, [r4, #-9]
 8004704:	e001      	b.n	800470a <PMB_LoopbackTest_Run+0x3aa>
 8004706:	4293      	cmp	r3, r2
 8004708:	d1f4      	bne.n	80046f4 <PMB_LoopbackTest_Run+0x394>
 800470a:	f814 3c09 	ldrb.w	r3, [r4, #-9]
 800470e:	3508      	adds	r5, #8
 8004710:	2b00      	cmp	r3, #0
 8004712:	bf08      	it	eq
 8004714:	2600      	moveq	r6, #0
 8004716:	f5b5 6fa1 	cmp.w	r5, #1288	; 0x508
 800471a:	f104 0414 	add.w	r4, r4, #20
 800471e:	d18d      	bne.n	800463c <PMB_LoopbackTest_Run+0x2dc>
 8004720:	9a01      	ldr	r2, [sp, #4]
 8004722:	23a1      	movs	r3, #161	; 0xa1
 8004724:	4630      	mov	r0, r6
 8004726:	8013      	strh	r3, [r2, #0]
 8004728:	b005      	add	sp, #20
 800472a:	e8bd 8ff0 	ldmia.w	sp!, {r4, r5, r6, r7, r8, r9, sl, fp, pc}
 800472e:	bf00      	nop
 8004730:	12345678 	.word	0x12345678
 8004734:	0800504c 	.word	0x0800504c
 8004738:	1000c0a0 	.word	0x1000c0a0
 800473c:	1ffe8870 	.word	0x1ffe8870

08004740 <XMC_GPIO_Init>:
 8004740:	f001 03fc 	and.w	r3, r1, #252	; 0xfc
 8004744:	4403      	add	r3, r0
 8004746:	b5f0      	push	{r4, r5, r6, r7, lr}
 8004748:	f001 0403 	and.w	r4, r1, #3
 800474c:	691e      	ldr	r6, [r3, #16]
 800474e:	00e4      	lsls	r4, r4, #3
 8004750:	25f8      	movs	r5, #248	; 0xf8
 8004752:	40a5      	lsls	r5, r4
 8004754:	ea26 0505 	bic.w	r5, r6, r5
 8004758:	611d      	str	r5, [r3, #16]
 800475a:	6f46      	ldr	r6, [r0, #116]	; 0x74
 800475c:	004f      	lsls	r7, r1, #1
 800475e:	2503      	movs	r5, #3
 8004760:	40bd      	lsls	r5, r7
 8004762:	ea26 0505 	bic.w	r5, r6, r5
 8004766:	6745      	str	r5, [r0, #116]	; 0x74
 8004768:	4d16      	ldr	r5, [pc, #88]	; (80047c4 <XMC_GPIO_Init+0x84>)
 800476a:	42a8      	cmp	r0, r5
 800476c:	d003      	beq.n	8004776 <XMC_GPIO_Init+0x36>
 800476e:	f505 7580 	add.w	r5, r5, #256	; 0x100
 8004772:	42a8      	cmp	r0, r5
 8004774:	d107      	bne.n	8004786 <XMC_GPIO_Init+0x46>
 8004776:	6e05      	ldr	r5, [r0, #96]	; 0x60
 8004778:	2601      	movs	r6, #1
 800477a:	fa06 f101 	lsl.w	r1, r6, r1
 800477e:	ea25 0101 	bic.w	r1, r5, r1
 8004782:	6601      	str	r1, [r0, #96]	; 0x60
 8004784:	e018      	b.n	80047b8 <XMC_GPIO_Init+0x78>
 8004786:	f992 5000 	ldrsb.w	r5, [r2]
 800478a:	2d00      	cmp	r5, #0
 800478c:	da14      	bge.n	80047b8 <XMC_GPIO_Init+0x78>
 800478e:	6855      	ldr	r5, [r2, #4]
 8004790:	408d      	lsls	r5, r1
 8004792:	6045      	str	r5, [r0, #4]
 8004794:	08cd      	lsrs	r5, r1, #3
 8004796:	eb00 0085 	add.w	r0, r0, r5, lsl #2
 800479a:	f001 0107 	and.w	r1, r1, #7
 800479e:	6c06      	ldr	r6, [r0, #64]	; 0x40
 80047a0:	0089      	lsls	r1, r1, #2
 80047a2:	2507      	movs	r5, #7
 80047a4:	408d      	lsls	r5, r1
 80047a6:	ea26 0505 	bic.w	r5, r6, r5
 80047aa:	6405      	str	r5, [r0, #64]	; 0x40
 80047ac:	7a16      	ldrb	r6, [r2, #8]
 80047ae:	6c05      	ldr	r5, [r0, #64]	; 0x40
 80047b0:	fa06 f101 	lsl.w	r1, r6, r1
 80047b4:	4329      	orrs	r1, r5
 80047b6:	6401      	str	r1, [r0, #64]	; 0x40
 80047b8:	7812      	ldrb	r2, [r2, #0]
 80047ba:	6919      	ldr	r1, [r3, #16]
 80047bc:	40a2      	lsls	r2, r4
 80047be:	430a      	orrs	r2, r1
 80047c0:	611a      	str	r2, [r3, #16]
 80047c2:	bdf0      	pop	{r4, r5, r6, r7, pc}
 80047c4:	48028e00 	.word	0x48028e00

080047c8 <XMC_SCU_lDelay>:
 80047c8:	b510      	push	{r4, lr}
 80047ca:	4604      	mov	r4, r0
 80047cc:	f7fb fd88 	bl	80002e0 <SystemCoreClockUpdate>
 80047d0:	4b06      	ldr	r3, [pc, #24]	; (80047ec <XMC_SCU_lDelay+0x24>)
 80047d2:	4807      	ldr	r0, [pc, #28]	; (80047f0 <XMC_SCU_lDelay+0x28>)
 80047d4:	681b      	ldr	r3, [r3, #0]
 80047d6:	fbb3 f3f0 	udiv	r3, r3, r0
 80047da:	fb03 f004 	mul.w	r0, r3, r4
 80047de:	2300      	movs	r3, #0
 80047e0:	4283      	cmp	r3, r0
 80047e2:	d002      	beq.n	80047ea <XMC_SCU_lDelay+0x22>
 80047e4:	bf00      	nop
 80047e6:	3301      	adds	r3, #1
 80047e8:	e7fa      	b.n	80047e0 <XMC_SCU_lDelay+0x18>
 80047ea:	bd10      	pop	{r4, pc}
 80047ec:	2003ffc0 	.word	0x2003ffc0
 80047f0:	000f4240 	.word	0x000f4240

080047f4 <XMC_SCU_RESET_DeassertPeripheralReset>:
 80047f4:	f020 4270 	bic.w	r2, r0, #4026531840	; 0xf0000000
 80047f8:	230c      	movs	r3, #12
 80047fa:	0f00      	lsrs	r0, r0, #28
 80047fc:	4358      	muls	r0, r3
 80047fe:	4b01      	ldr	r3, [pc, #4]	; (8004804 <XMC_SCU_RESET_DeassertPeripheralReset+0x10>)
 8004800:	50c2      	str	r2, [r0, r3]
 8004802:	4770      	bx	lr
 8004804:	50004414 	.word	0x50004414

08004808 <XMC_SCU_CLOCK_GetPeripheralClockFrequency>:
 8004808:	4b03      	ldr	r3, [pc, #12]	; (8004818 <XMC_SCU_CLOCK_GetPeripheralClockFrequency+0x10>)
 800480a:	4a04      	ldr	r2, [pc, #16]	; (800481c <XMC_SCU_CLOCK_GetPeripheralClockFrequency+0x14>)
 800480c:	695b      	ldr	r3, [r3, #20]
 800480e:	6810      	ldr	r0, [r2, #0]
 8004810:	f003 0301 	and.w	r3, r3, #1
 8004814:	40d8      	lsrs	r0, r3
 8004816:	4770      	bx	lr
 8004818:	50004600 	.word	0x50004600
 800481c:	2003ffc0 	.word	0x2003ffc0

08004820 <XMC_SCU_CLOCK_SetSystemClockSource>:
 8004820:	4a03      	ldr	r2, [pc, #12]	; (8004830 <XMC_SCU_CLOCK_SetSystemClockSource+0x10>)
 8004822:	68d3      	ldr	r3, [r2, #12]
 8004824:	f423 3380 	bic.w	r3, r3, #65536	; 0x10000
 8004828:	4318      	orrs	r0, r3
 800482a:	60d0      	str	r0, [r2, #12]
 800482c:	4770      	bx	lr
 800482e:	bf00      	nop
 8004830:	50004600 	.word	0x50004600

08004834 <XMC_SCU_CLOCK_SetUsbClockSource>:
 8004834:	4a03      	ldr	r2, [pc, #12]	; (8004844 <XMC_SCU_CLOCK_SetUsbClockSource+0x10>)
 8004836:	6993      	ldr	r3, [r2, #24]
 8004838:	f423 3380 	bic.w	r3, r3, #65536	; 0x10000
 800483c:	4318      	orrs	r0, r3
 800483e:	6190      	str	r0, [r2, #24]
 8004840:	4770      	bx	lr
 8004842:	bf00      	nop
 8004844:	50004600 	.word	0x50004600

08004848 <XMC_SCU_CLOCK_SetWdtClockSource>:
 8004848:	4a03      	ldr	r2, [pc, #12]	; (8004858 <XMC_SCU_CLOCK_SetWdtClockSource+0x10>)
 800484a:	6a53      	ldr	r3, [r2, #36]	; 0x24
 800484c:	f423 3340 	bic.w	r3, r3, #196608	; 0x30000
 8004850:	4318      	orrs	r0, r3
 8004852:	6250      	str	r0, [r2, #36]	; 0x24
 8004854:	4770      	bx	lr
 8004856:	bf00      	nop
 8004858:	50004600 	.word	0x50004600

0800485c <XMC_SCU_CLOCK_SetSystemPllClockSource>:
 800485c:	4a06      	ldr	r2, [pc, #24]	; (8004878 <XMC_SCU_CLOCK_SetSystemPllClockSource+0x1c>)
 800485e:	68d3      	ldr	r3, [r2, #12]
 8004860:	b920      	cbnz	r0, 800486c <XMC_SCU_CLOCK_SetSystemPllClockSource+0x10>
 8004862:	f423 7380 	bic.w	r3, r3, #256	; 0x100
 8004866:	f023 0301 	bic.w	r3, r3, #1
 800486a:	e003      	b.n	8004874 <XMC_SCU_CLOCK_SetSystemPllClockSource+0x18>
 800486c:	f443 7380 	orr.w	r3, r3, #256	; 0x100
 8004870:	f043 0301 	orr.w	r3, r3, #1
 8004874:	60d3      	str	r3, [r2, #12]
 8004876:	4770      	bx	lr
 8004878:	50004710 	.word	0x50004710

0800487c <XMC_SCU_HIB_SetRtcClockSource>:
 800487c:	4b05      	ldr	r3, [pc, #20]	; (8004894 <XMC_SCU_HIB_SetRtcClockSource+0x18>)
 800487e:	f8d3 30c4 	ldr.w	r3, [r3, #196]	; 0xc4
 8004882:	071b      	lsls	r3, r3, #28
 8004884:	d4fa      	bmi.n	800487c <XMC_SCU_HIB_SetRtcClockSource>
 8004886:	4a04      	ldr	r2, [pc, #16]	; (8004898 <XMC_SCU_HIB_SetRtcClockSource+0x1c>)
 8004888:	68d3      	ldr	r3, [r2, #12]
 800488a:	f023 0340 	bic.w	r3, r3, #64	; 0x40
 800488e:	4318      	orrs	r0, r3
 8004890:	60d0      	str	r0, [r2, #12]
 8004892:	4770      	bx	lr
 8004894:	50004000 	.word	0x50004000
 8004898:	50004300 	.word	0x50004300

0800489c <XMC_SCU_HIB_SetStandbyClockSource>:
 800489c:	4b05      	ldr	r3, [pc, #20]	; (80048b4 <XMC_SCU_HIB_SetStandbyClockSource+0x18>)
 800489e:	f8d3 30c4 	ldr.w	r3, [r3, #196]	; 0xc4
 80048a2:	071b      	lsls	r3, r3, #28
 80048a4:	d4fa      	bmi.n	800489c <XMC_SCU_HIB_SetStandbyClockSource>
 80048a6:	4a04      	ldr	r2, [pc, #16]	; (80048b8 <XMC_SCU_HIB_SetStandbyClockSource+0x1c>)
 80048a8:	68d3      	ldr	r3, [r2, #12]
 80048aa:	f023 0380 	bic.w	r3, r3, #128	; 0x80
 80048ae:	4318      	orrs	r0, r3
 80048b0:	60d0      	str	r0, [r2, #12]
 80048b2:	4770      	bx	lr
 80048b4:	50004000 	.word	0x50004000
 80048b8:	50004300 	.word	0x50004300

080048bc <XMC_SCU_CLOCK_SetSystemClockDivider>:
 80048bc:	4a03      	ldr	r2, [pc, #12]	; (80048cc <XMC_SCU_CLOCK_SetSystemClockDivider+0x10>)
 80048be:	68d3      	ldr	r3, [r2, #12]
 80048c0:	3801      	subs	r0, #1
 80048c2:	f023 03ff 	bic.w	r3, r3, #255	; 0xff
 80048c6:	4303      	orrs	r3, r0
 80048c8:	60d3      	str	r3, [r2, #12]
 80048ca:	4770      	bx	lr
 80048cc:	50004600 	.word	0x50004600

080048d0 <XMC_SCU_CLOCK_SetCcuClockDivider>:
 80048d0:	4a03      	ldr	r2, [pc, #12]	; (80048e0 <XMC_SCU_CLOCK_SetCcuClockDivider+0x10>)
 80048d2:	6a13      	ldr	r3, [r2, #32]
 80048d4:	3801      	subs	r0, #1
 80048d6:	f023 0301 	bic.w	r3, r3, #1
 80048da:	4303      	orrs	r3, r0
 80048dc:	6213      	str	r3, [r2, #32]
 80048de:	4770      	bx	lr
 80048e0:	50004600 	.word	0x50004600

080048e4 <XMC_SCU_CLOCK_SetCpuClockDivider>:
 80048e4:	4a03      	ldr	r2, [pc, #12]	; (80048f4 <XMC_SCU_CLOCK_SetCpuClockDivider+0x10>)
 80048e6:	6913      	ldr	r3, [r2, #16]
 80048e8:	3801      	subs	r0, #1
 80048ea:	f023 0301 	bic.w	r3, r3, #1
 80048ee:	4303      	orrs	r3, r0
 80048f0:	6113      	str	r3, [r2, #16]
 80048f2:	4770      	bx	lr
 80048f4:	50004600 	.word	0x50004600

080048f8 <XMC_SCU_CLOCK_SetPeripheralClockDivider>:
 80048f8:	4a03      	ldr	r2, [pc, #12]	; (8004908 <XMC_SCU_CLOCK_SetPeripheralClockDivider+0x10>)
 80048fa:	6953      	ldr	r3, [r2, #20]
 80048fc:	3801      	subs	r0, #1
 80048fe:	f023 0301 	bic.w	r3, r3, #1
 8004902:	4303      	orrs	r3, r0
 8004904:	6153      	str	r3, [r2, #20]
 8004906:	4770      	bx	lr
 8004908:	50004600 	.word	0x50004600

0800490c <XMC_SCU_CLOCK_SetUsbClockDivider>:
 800490c:	4a03      	ldr	r2, [pc, #12]	; (800491c <XMC_SCU_CLOCK_SetUsbClockDivider+0x10>)
 800490e:	6993      	ldr	r3, [r2, #24]
 8004910:	3801      	subs	r0, #1
 8004912:	f023 0307 	bic.w	r3, r3, #7
 8004916:	4303      	orrs	r3, r0
 8004918:	6193      	str	r3, [r2, #24]
 800491a:	4770      	bx	lr
 800491c:	50004600 	.word	0x50004600

08004920 <XMC_SCU_CLOCK_SetEbuClockDivider>:
 8004920:	4a03      	ldr	r2, [pc, #12]	; (8004930 <XMC_SCU_CLOCK_SetEbuClockDivider+0x10>)
 8004922:	69d3      	ldr	r3, [r2, #28]
 8004924:	3801      	subs	r0, #1
 8004926:	f023 033f 	bic.w	r3, r3, #63	; 0x3f
 800492a:	4303      	orrs	r3, r0
 800492c:	61d3      	str	r3, [r2, #28]
 800492e:	4770      	bx	lr
 8004930:	50004600 	.word	0x50004600

08004934 <XMC_SCU_CLOCK_SetWdtClockDivider>:
 8004934:	4a03      	ldr	r2, [pc, #12]	; (8004944 <XMC_SCU_CLOCK_SetWdtClockDivider+0x10>)
 8004936:	6a53      	ldr	r3, [r2, #36]	; 0x24
 8004938:	3801      	subs	r0, #1
 800493a:	f023 03ff 	bic.w	r3, r3, #255	; 0xff
 800493e:	4303      	orrs	r3, r0
 8004940:	6253      	str	r3, [r2, #36]	; 0x24
 8004942:	4770      	bx	lr
 8004944:	50004600 	.word	0x50004600

08004948 <XMC_SCU_CLOCK_SetECATClockDivider>:
 8004948:	4a03      	ldr	r2, [pc, #12]	; (8004958 <XMC_SCU_CLOCK_SetECATClockDivider+0x10>)
 800494a:	6b93      	ldr	r3, [r2, #56]	; 0x38
 800494c:	3801      	subs	r0, #1
 800494e:	f023 0303 	bic.w	r3, r3, #3
 8004952:	4303      	orrs	r3, r0
 8004954:	6393      	str	r3, [r2, #56]	; 0x38
 8004956:	4770      	bx	lr
 8004958:	50004600 	.word	0x50004600

0800495c <XMC_SCU_CLOCK_UngatePeripheralClock>:
 800495c:	f020 4270 	bic.w	r2, r0, #4026531840	; 0xf0000000
 8004960:	230c      	movs	r3, #12
 8004962:	0f00      	lsrs	r0, r0, #28
 8004964:	4358      	muls	r0, r3
 8004966:	4b01      	ldr	r3, [pc, #4]	; (800496c <XMC_SCU_CLOCK_UngatePeripheralClock+0x10>)
 8004968:	50c2      	str	r2, [r0, r3]
 800496a:	4770      	bx	lr
 800496c:	50004648 	.word	0x50004648

08004970 <XMC_SCU_CLOCK_EnableUsbPll>:
 8004970:	4a03      	ldr	r2, [pc, #12]	; (8004980 <XMC_SCU_CLOCK_EnableUsbPll+0x10>)
 8004972:	6953      	ldr	r3, [r2, #20]
 8004974:	f423 3380 	bic.w	r3, r3, #65536	; 0x10000
 8004978:	f023 0302 	bic.w	r3, r3, #2
 800497c:	6153      	str	r3, [r2, #20]
 800497e:	4770      	bx	lr
 8004980:	50004710 	.word	0x50004710

08004984 <XMC_SCU_CLOCK_StartUsbPll>:
 8004984:	4a19      	ldr	r2, [pc, #100]	; (80049ec <XMC_SCU_CLOCK_StartUsbPll+0x68>)
 8004986:	6953      	ldr	r3, [r2, #20]
 8004988:	f043 0301 	orr.w	r3, r3, #1
 800498c:	b510      	push	{r4, lr}
 800498e:	6153      	str	r3, [r2, #20]
 8004990:	6914      	ldr	r4, [r2, #16]
 8004992:	4b16      	ldr	r3, [pc, #88]	; (80049ec <XMC_SCU_CLOCK_StartUsbPll+0x68>)
 8004994:	07e4      	lsls	r4, r4, #31
 8004996:	d5fb      	bpl.n	8004990 <XMC_SCU_CLOCK_StartUsbPll+0xc>
 8004998:	695c      	ldr	r4, [r3, #20]
 800499a:	3801      	subs	r0, #1
 800499c:	3901      	subs	r1, #1
 800499e:	0600      	lsls	r0, r0, #24
 80049a0:	ea40 2001 	orr.w	r0, r0, r1, lsl #8
 80049a4:	f044 0410 	orr.w	r4, r4, #16
 80049a8:	615c      	str	r4, [r3, #20]
 80049aa:	6158      	str	r0, [r3, #20]
 80049ac:	6959      	ldr	r1, [r3, #20]
 80049ae:	f041 0140 	orr.w	r1, r1, #64	; 0x40
 80049b2:	6159      	str	r1, [r3, #20]
 80049b4:	6959      	ldr	r1, [r3, #20]
 80049b6:	f021 0110 	bic.w	r1, r1, #16
 80049ba:	6159      	str	r1, [r3, #20]
 80049bc:	6959      	ldr	r1, [r3, #20]
 80049be:	f441 2180 	orr.w	r1, r1, #262144	; 0x40000
 80049c2:	6159      	str	r1, [r3, #20]
 80049c4:	6913      	ldr	r3, [r2, #16]
 80049c6:	4909      	ldr	r1, [pc, #36]	; (80049ec <XMC_SCU_CLOCK_StartUsbPll+0x68>)
 80049c8:	0758      	lsls	r0, r3, #29
 80049ca:	d5fb      	bpl.n	80049c4 <XMC_SCU_CLOCK_StartUsbPll+0x40>
 80049cc:	694b      	ldr	r3, [r1, #20]
 80049ce:	f023 0301 	bic.w	r3, r3, #1
 80049d2:	614b      	str	r3, [r1, #20]
 80049d4:	6913      	ldr	r3, [r2, #16]
 80049d6:	4905      	ldr	r1, [pc, #20]	; (80049ec <XMC_SCU_CLOCK_StartUsbPll+0x68>)
 80049d8:	07db      	lsls	r3, r3, #31
 80049da:	d4fb      	bmi.n	80049d4 <XMC_SCU_CLOCK_StartUsbPll+0x50>
 80049dc:	694b      	ldr	r3, [r1, #20]
 80049de:	f023 0340 	bic.w	r3, r3, #64	; 0x40
 80049e2:	614b      	str	r3, [r1, #20]
 80049e4:	4b02      	ldr	r3, [pc, #8]	; (80049f0 <XMC_SCU_CLOCK_StartUsbPll+0x6c>)
 80049e6:	2208      	movs	r2, #8
 80049e8:	60da      	str	r2, [r3, #12]
 80049ea:	bd10      	pop	{r4, pc}
 80049ec:	50004710 	.word	0x50004710
 80049f0:	50004160 	.word	0x50004160

080049f4 <XMC_SCU_CLOCK_SetBackupClockCalibrationMode>:
 80049f4:	b510      	push	{r4, lr}
 80049f6:	4c0b      	ldr	r4, [pc, #44]	; (8004a24 <XMC_SCU_CLOCK_SetBackupClockCalibrationMode+0x30>)
 80049f8:	6863      	ldr	r3, [r4, #4]
 80049fa:	2801      	cmp	r0, #1
 80049fc:	f443 1380 	orr.w	r3, r3, #1048576	; 0x100000
 8004a00:	6063      	str	r3, [r4, #4]
 8004a02:	d10a      	bne.n	8004a1a <XMC_SCU_CLOCK_SetBackupClockCalibrationMode+0x26>
 8004a04:	6863      	ldr	r3, [r4, #4]
 8004a06:	f423 1380 	bic.w	r3, r3, #1048576	; 0x100000
 8004a0a:	6063      	str	r3, [r4, #4]
 8004a0c:	2064      	movs	r0, #100	; 0x64
 8004a0e:	f7ff fedb 	bl	80047c8 <XMC_SCU_lDelay>
 8004a12:	6863      	ldr	r3, [r4, #4]
 8004a14:	f443 2300 	orr.w	r3, r3, #524288	; 0x80000
 8004a18:	6063      	str	r3, [r4, #4]
 8004a1a:	2064      	movs	r0, #100	; 0x64
 8004a1c:	e8bd 4010 	ldmia.w	sp!, {r4, lr}
 8004a20:	f7ff bed2 	b.w	80047c8 <XMC_SCU_lDelay>
 8004a24:	50004710 	.word	0x50004710

08004a28 <XMC_SCU_HIB_EnableHibernateDomain>:
 8004a28:	4b0a      	ldr	r3, [pc, #40]	; (8004a54 <XMC_SCU_HIB_EnableHibernateDomain+0x2c>)
 8004a2a:	681a      	ldr	r2, [r3, #0]
 8004a2c:	07d2      	lsls	r2, r2, #31
 8004a2e:	d504      	bpl.n	8004a3a <XMC_SCU_HIB_EnableHibernateDomain+0x12>
 8004a30:	4b09      	ldr	r3, [pc, #36]	; (8004a58 <XMC_SCU_HIB_EnableHibernateDomain+0x30>)
 8004a32:	681a      	ldr	r2, [r3, #0]
 8004a34:	0590      	lsls	r0, r2, #22
 8004a36:	d406      	bmi.n	8004a46 <XMC_SCU_HIB_EnableHibernateDomain+0x1e>
 8004a38:	4770      	bx	lr
 8004a3a:	2201      	movs	r2, #1
 8004a3c:	605a      	str	r2, [r3, #4]
 8004a3e:	681a      	ldr	r2, [r3, #0]
 8004a40:	07d1      	lsls	r1, r2, #31
 8004a42:	d5fc      	bpl.n	8004a3e <XMC_SCU_HIB_EnableHibernateDomain+0x16>
 8004a44:	e7f4      	b.n	8004a30 <XMC_SCU_HIB_EnableHibernateDomain+0x8>
 8004a46:	f44f 7200 	mov.w	r2, #512	; 0x200
 8004a4a:	609a      	str	r2, [r3, #8]
 8004a4c:	681a      	ldr	r2, [r3, #0]
 8004a4e:	0592      	lsls	r2, r2, #22
 8004a50:	d4fc      	bmi.n	8004a4c <XMC_SCU_HIB_EnableHibernateDomain+0x24>
 8004a52:	4770      	bx	lr
 8004a54:	50004200 	.word	0x50004200
 8004a58:	50004400 	.word	0x50004400

08004a5c <XMC_SCU_CLOCK_IsLowPowerOscillatorStable>:
 8004a5c:	4b03      	ldr	r3, [pc, #12]	; (8004a6c <XMC_SCU_CLOCK_IsLowPowerOscillatorStable+0x10>)
 8004a5e:	6818      	ldr	r0, [r3, #0]
 8004a60:	f080 0008 	eor.w	r0, r0, #8
 8004a64:	f3c0 00c0 	ubfx	r0, r0, #3, #1
 8004a68:	4770      	bx	lr
 8004a6a:	bf00      	nop
 8004a6c:	50004300 	.word	0x50004300

08004a70 <XMC_SCU_CLOCK_EnableLowPowerOscillator>:
 8004a70:	4b10      	ldr	r3, [pc, #64]	; (8004ab4 <XMC_SCU_CLOCK_EnableLowPowerOscillator+0x44>)
 8004a72:	f44f 0200 	mov.w	r2, #8388608	; 0x800000
 8004a76:	60da      	str	r2, [r3, #12]
 8004a78:	4a0f      	ldr	r2, [pc, #60]	; (8004ab8 <XMC_SCU_CLOCK_EnableLowPowerOscillator+0x48>)
 8004a7a:	69d1      	ldr	r1, [r2, #28]
 8004a7c:	f021 0130 	bic.w	r1, r1, #48	; 0x30
 8004a80:	61d1      	str	r1, [r2, #28]
 8004a82:	6859      	ldr	r1, [r3, #4]
 8004a84:	0208      	lsls	r0, r1, #8
 8004a86:	d5fc      	bpl.n	8004a82 <XMC_SCU_CLOCK_EnableLowPowerOscillator+0x12>
 8004a88:	490a      	ldr	r1, [pc, #40]	; (8004ab4 <XMC_SCU_CLOCK_EnableLowPowerOscillator+0x44>)
 8004a8a:	f44f 3000 	mov.w	r0, #131072	; 0x20000
 8004a8e:	60c8      	str	r0, [r1, #12]
 8004a90:	2108      	movs	r1, #8
 8004a92:	6051      	str	r1, [r2, #4]
 8004a94:	685a      	ldr	r2, [r3, #4]
 8004a96:	0391      	lsls	r1, r2, #14
 8004a98:	d5fc      	bpl.n	8004a94 <XMC_SCU_CLOCK_EnableLowPowerOscillator+0x24>
 8004a9a:	4a06      	ldr	r2, [pc, #24]	; (8004ab4 <XMC_SCU_CLOCK_EnableLowPowerOscillator+0x44>)
 8004a9c:	f44f 2100 	mov.w	r1, #524288	; 0x80000
 8004aa0:	60d1      	str	r1, [r2, #12]
 8004aa2:	4905      	ldr	r1, [pc, #20]	; (8004ab8 <XMC_SCU_CLOCK_EnableLowPowerOscillator+0x48>)
 8004aa4:	68ca      	ldr	r2, [r1, #12]
 8004aa6:	f042 0208 	orr.w	r2, r2, #8
 8004aaa:	60ca      	str	r2, [r1, #12]
 8004aac:	685a      	ldr	r2, [r3, #4]
 8004aae:	0312      	lsls	r2, r2, #12
 8004ab0:	d5fc      	bpl.n	8004aac <XMC_SCU_CLOCK_EnableLowPowerOscillator+0x3c>
 8004ab2:	4770      	bx	lr
 8004ab4:	50004074 	.word	0x50004074
 8004ab8:	50004300 	.word	0x50004300

08004abc <XMC_SCU_CLOCK_EnableHighPerformanceOscillator>:
 8004abc:	b570      	push	{r4, r5, r6, lr}
 8004abe:	4d0c      	ldr	r5, [pc, #48]	; (8004af0 <XMC_SCU_CLOCK_EnableHighPerformanceOscillator+0x34>)
 8004ac0:	4e0c      	ldr	r6, [pc, #48]	; (8004af4 <XMC_SCU_CLOCK_EnableHighPerformanceOscillator+0x38>)
 8004ac2:	686b      	ldr	r3, [r5, #4]
 8004ac4:	f423 3380 	bic.w	r3, r3, #65536	; 0x10000
 8004ac8:	606b      	str	r3, [r5, #4]
 8004aca:	6874      	ldr	r4, [r6, #4]
 8004acc:	f000 fa18 	bl	8004f00 <OSCHP_GetFrequency>
 8004ad0:	4b09      	ldr	r3, [pc, #36]	; (8004af8 <XMC_SCU_CLOCK_EnableHighPerformanceOscillator+0x3c>)
 8004ad2:	fbb0 f0f3 	udiv	r0, r0, r3
 8004ad6:	f424 2370 	bic.w	r3, r4, #983040	; 0xf0000
 8004ada:	3801      	subs	r0, #1
 8004adc:	f023 0330 	bic.w	r3, r3, #48	; 0x30
 8004ae0:	ea43 4300 	orr.w	r3, r3, r0, lsl #16
 8004ae4:	6073      	str	r3, [r6, #4]
 8004ae6:	686b      	ldr	r3, [r5, #4]
 8004ae8:	f423 3300 	bic.w	r3, r3, #131072	; 0x20000
 8004aec:	606b      	str	r3, [r5, #4]
 8004aee:	bd70      	pop	{r4, r5, r6, pc}
 8004af0:	50004710 	.word	0x50004710
 8004af4:	50004700 	.word	0x50004700
 8004af8:	002625a0 	.word	0x002625a0

08004afc <XMC_SCU_CLOCK_IsHighPerformanceOscillatorStable>:
 8004afc:	4b04      	ldr	r3, [pc, #16]	; (8004b10 <XMC_SCU_CLOCK_IsHighPerformanceOscillatorStable+0x14>)
 8004afe:	6818      	ldr	r0, [r3, #0]
 8004b00:	f400 7060 	and.w	r0, r0, #896	; 0x380
 8004b04:	f5a0 7360 	sub.w	r3, r0, #896	; 0x380
 8004b08:	4258      	negs	r0, r3
 8004b0a:	4158      	adcs	r0, r3
 8004b0c:	4770      	bx	lr
 8004b0e:	bf00      	nop
 8004b10:	50004710 	.word	0x50004710

08004b14 <XMC_SCU_CLOCK_EnableSystemPll>:
 8004b14:	4a03      	ldr	r2, [pc, #12]	; (8004b24 <XMC_SCU_CLOCK_EnableSystemPll+0x10>)
 8004b16:	6853      	ldr	r3, [r2, #4]
 8004b18:	f423 3380 	bic.w	r3, r3, #65536	; 0x10000
 8004b1c:	f023 0302 	bic.w	r3, r3, #2
 8004b20:	6053      	str	r3, [r2, #4]
 8004b22:	4770      	bx	lr
 8004b24:	50004710 	.word	0x50004710

08004b28 <XMC_SCU_CLOCK_DisableSystemPll>:
 8004b28:	4a03      	ldr	r2, [pc, #12]	; (8004b38 <XMC_SCU_CLOCK_DisableSystemPll+0x10>)
 8004b2a:	6853      	ldr	r3, [r2, #4]
 8004b2c:	f443 3380 	orr.w	r3, r3, #65536	; 0x10000
 8004b30:	f043 0302 	orr.w	r3, r3, #2
 8004b34:	6053      	str	r3, [r2, #4]
 8004b36:	4770      	bx	lr
 8004b38:	50004710 	.word	0x50004710

08004b3c <XMC_SCU_CLOCK_StepSystemPllFrequency>:
 8004b3c:	4b06      	ldr	r3, [pc, #24]	; (8004b58 <XMC_SCU_CLOCK_StepSystemPllFrequency+0x1c>)
 8004b3e:	689a      	ldr	r2, [r3, #8]
 8004b40:	3801      	subs	r0, #1
 8004b42:	f422 02fe 	bic.w	r2, r2, #8323072	; 0x7f0000
 8004b46:	ea42 4200 	orr.w	r2, r2, r0, lsl #16
 8004b4a:	609a      	str	r2, [r3, #8]
 8004b4c:	681a      	ldr	r2, [r3, #0]
 8004b4e:	0692      	lsls	r2, r2, #26
 8004b50:	d5fc      	bpl.n	8004b4c <XMC_SCU_CLOCK_StepSystemPllFrequency+0x10>
 8004b52:	2032      	movs	r0, #50	; 0x32
 8004b54:	f7ff be38 	b.w	80047c8 <XMC_SCU_lDelay>
 8004b58:	50004710 	.word	0x50004710

08004b5c <XMC_SCU_CLOCK_StartSystemPll>:
 8004b5c:	e92d 41f0 	stmdb	sp!, {r4, r5, r6, r7, r8, lr}
 8004b60:	460f      	mov	r7, r1
 8004b62:	4604      	mov	r4, r0
 8004b64:	4690      	mov	r8, r2
 8004b66:	461e      	mov	r6, r3
 8004b68:	9d06      	ldr	r5, [sp, #24]
 8004b6a:	f7ff fe77 	bl	800485c <XMC_SCU_CLOCK_SetSystemPllClockSource>
 8004b6e:	2f01      	cmp	r7, #1
 8004b70:	4f36      	ldr	r7, [pc, #216]	; (8004c4c <XMC_SCU_CLOCK_StartSystemPll+0xf0>)
 8004b72:	d155      	bne.n	8004c20 <XMC_SCU_CLOCK_StartSystemPll+0xc4>
 8004b74:	b934      	cbnz	r4, 8004b84 <XMC_SCU_CLOCK_StartSystemPll+0x28>
 8004b76:	f000 f9c3 	bl	8004f00 <OSCHP_GetFrequency>
 8004b7a:	4c35      	ldr	r4, [pc, #212]	; (8004c50 <XMC_SCU_CLOCK_StartSystemPll+0xf4>)
 8004b7c:	fbb0 f0f4 	udiv	r0, r0, r4
 8004b80:	0580      	lsls	r0, r0, #22
 8004b82:	e001      	b.n	8004b88 <XMC_SCU_CLOCK_StartSystemPll+0x2c>
 8004b84:	f04f 60c0 	mov.w	r0, #100663296	; 0x6000000
 8004b88:	687b      	ldr	r3, [r7, #4]
 8004b8a:	f043 0301 	orr.w	r3, r3, #1
 8004b8e:	4370      	muls	r0, r6
 8004b90:	2218      	movs	r2, #24
 8004b92:	fbb0 f4f8 	udiv	r4, r0, r8
 8004b96:	607b      	str	r3, [r7, #4]
 8004b98:	fbb4 f2f2 	udiv	r2, r4, r2
 8004b9c:	0d92      	lsrs	r2, r2, #22
 8004b9e:	683b      	ldr	r3, [r7, #0]
 8004ba0:	492a      	ldr	r1, [pc, #168]	; (8004c4c <XMC_SCU_CLOCK_StartSystemPll+0xf0>)
 8004ba2:	07db      	lsls	r3, r3, #31
 8004ba4:	d5fb      	bpl.n	8004b9e <XMC_SCU_CLOCK_StartSystemPll+0x42>
 8004ba6:	684b      	ldr	r3, [r1, #4]
 8004ba8:	f043 0310 	orr.w	r3, r3, #16
 8004bac:	604b      	str	r3, [r1, #4]
 8004bae:	6888      	ldr	r0, [r1, #8]
 8004bb0:	4b28      	ldr	r3, [pc, #160]	; (8004c54 <XMC_SCU_CLOCK_StartSystemPll+0xf8>)
 8004bb2:	f108 38ff 	add.w	r8, r8, #4294967295
 8004bb6:	4003      	ands	r3, r0
 8004bb8:	ea43 6308 	orr.w	r3, r3, r8, lsl #24
 8004bbc:	3e01      	subs	r6, #1
 8004bbe:	ea43 2306 	orr.w	r3, r3, r6, lsl #8
 8004bc2:	3a01      	subs	r2, #1
 8004bc4:	ea43 4302 	orr.w	r3, r3, r2, lsl #16
 8004bc8:	608b      	str	r3, [r1, #8]
 8004bca:	684b      	ldr	r3, [r1, #4]
 8004bcc:	f043 0340 	orr.w	r3, r3, #64	; 0x40
 8004bd0:	604b      	str	r3, [r1, #4]
 8004bd2:	684b      	ldr	r3, [r1, #4]
 8004bd4:	f023 0310 	bic.w	r3, r3, #16
 8004bd8:	604b      	str	r3, [r1, #4]
 8004bda:	684b      	ldr	r3, [r1, #4]
 8004bdc:	f443 2380 	orr.w	r3, r3, #262144	; 0x40000
 8004be0:	604b      	str	r3, [r1, #4]
 8004be2:	683b      	ldr	r3, [r7, #0]
 8004be4:	4a19      	ldr	r2, [pc, #100]	; (8004c4c <XMC_SCU_CLOCK_StartSystemPll+0xf0>)
 8004be6:	075e      	lsls	r6, r3, #29
 8004be8:	d5fb      	bpl.n	8004be2 <XMC_SCU_CLOCK_StartSystemPll+0x86>
 8004bea:	6853      	ldr	r3, [r2, #4]
 8004bec:	f023 0301 	bic.w	r3, r3, #1
 8004bf0:	6053      	str	r3, [r2, #4]
 8004bf2:	683b      	ldr	r3, [r7, #0]
 8004bf4:	07d8      	lsls	r0, r3, #31
 8004bf6:	d4fc      	bmi.n	8004bf2 <XMC_SCU_CLOCK_StartSystemPll+0x96>
 8004bf8:	203c      	movs	r0, #60	; 0x3c
 8004bfa:	fbb4 f0f0 	udiv	r0, r4, r0
 8004bfe:	0d80      	lsrs	r0, r0, #22
 8004c00:	4285      	cmp	r5, r0
 8004c02:	d201      	bcs.n	8004c08 <XMC_SCU_CLOCK_StartSystemPll+0xac>
 8004c04:	f7ff ff9a 	bl	8004b3c <XMC_SCU_CLOCK_StepSystemPllFrequency>
 8004c08:	205a      	movs	r0, #90	; 0x5a
 8004c0a:	fbb4 f0f0 	udiv	r0, r4, r0
 8004c0e:	0d80      	lsrs	r0, r0, #22
 8004c10:	4285      	cmp	r5, r0
 8004c12:	d201      	bcs.n	8004c18 <XMC_SCU_CLOCK_StartSystemPll+0xbc>
 8004c14:	f7ff ff92 	bl	8004b3c <XMC_SCU_CLOCK_StepSystemPllFrequency>
 8004c18:	4628      	mov	r0, r5
 8004c1a:	f7ff ff8f 	bl	8004b3c <XMC_SCU_CLOCK_StepSystemPllFrequency>
 8004c1e:	e010      	b.n	8004c42 <XMC_SCU_CLOCK_StartSystemPll+0xe6>
 8004c20:	68bb      	ldr	r3, [r7, #8]
 8004c22:	3d01      	subs	r5, #1
 8004c24:	f023 037f 	bic.w	r3, r3, #127	; 0x7f
 8004c28:	431d      	orrs	r5, r3
 8004c2a:	60bd      	str	r5, [r7, #8]
 8004c2c:	683b      	ldr	r3, [r7, #0]
 8004c2e:	4a07      	ldr	r2, [pc, #28]	; (8004c4c <XMC_SCU_CLOCK_StartSystemPll+0xf0>)
 8004c30:	06d9      	lsls	r1, r3, #27
 8004c32:	d5fb      	bpl.n	8004c2c <XMC_SCU_CLOCK_StartSystemPll+0xd0>
 8004c34:	6853      	ldr	r3, [r2, #4]
 8004c36:	f043 0301 	orr.w	r3, r3, #1
 8004c3a:	6053      	str	r3, [r2, #4]
 8004c3c:	683b      	ldr	r3, [r7, #0]
 8004c3e:	07db      	lsls	r3, r3, #31
 8004c40:	d5fc      	bpl.n	8004c3c <XMC_SCU_CLOCK_StartSystemPll+0xe0>
 8004c42:	4b05      	ldr	r3, [pc, #20]	; (8004c58 <XMC_SCU_CLOCK_StartSystemPll+0xfc>)
 8004c44:	2205      	movs	r2, #5
 8004c46:	60da      	str	r2, [r3, #12]
 8004c48:	e8bd 81f0 	ldmia.w	sp!, {r4, r5, r6, r7, r8, pc}
 8004c4c:	50004710 	.word	0x50004710
 8004c50:	000f4240 	.word	0x000f4240
 8004c54:	f08080ff 	.word	0xf08080ff
 8004c58:	50004160 	.word	0x50004160

08004c5c <XMC_SCU_CLOCK_Init>:
 8004c5c:	b537      	push	{r0, r1, r2, r4, r5, lr}
 8004c5e:	4604      	mov	r4, r0
 8004c60:	2000      	movs	r0, #0
 8004c62:	f7ff fddd 	bl	8004820 <XMC_SCU_CLOCK_SetSystemClockSource>
 8004c66:	f7ff fedf 	bl	8004a28 <XMC_SCU_HIB_EnableHibernateDomain>
 8004c6a:	79e3      	ldrb	r3, [r4, #7]
 8004c6c:	b91b      	cbnz	r3, 8004c76 <XMC_SCU_CLOCK_Init+0x1a>
 8004c6e:	7a60      	ldrb	r0, [r4, #9]
 8004c70:	f7ff fe14 	bl	800489c <XMC_SCU_HIB_SetStandbyClockSource>
 8004c74:	e006      	b.n	8004c84 <XMC_SCU_CLOCK_Init+0x28>
 8004c76:	f7ff fefb 	bl	8004a70 <XMC_SCU_CLOCK_EnableLowPowerOscillator>
 8004c7a:	f7ff feef 	bl	8004a5c <XMC_SCU_CLOCK_IsLowPowerOscillatorStable>
 8004c7e:	2800      	cmp	r0, #0
 8004c80:	d0fb      	beq.n	8004c7a <XMC_SCU_CLOCK_Init+0x1e>
 8004c82:	e7f4      	b.n	8004c6e <XMC_SCU_CLOCK_Init+0x12>
 8004c84:	4b1c      	ldr	r3, [pc, #112]	; (8004cf8 <XMC_SCU_CLOCK_Init+0x9c>)
 8004c86:	f8d3 30c4 	ldr.w	r3, [r3, #196]	; 0xc4
 8004c8a:	2b00      	cmp	r3, #0
 8004c8c:	d1fa      	bne.n	8004c84 <XMC_SCU_CLOCK_Init+0x28>
 8004c8e:	7a20      	ldrb	r0, [r4, #8]
 8004c90:	f7ff feb0 	bl	80049f4 <XMC_SCU_CLOCK_SetBackupClockCalibrationMode>
 8004c94:	7c20      	ldrb	r0, [r4, #16]
 8004c96:	f7ff fe11 	bl	80048bc <XMC_SCU_CLOCK_SetSystemClockDivider>
 8004c9a:	7c60      	ldrb	r0, [r4, #17]
 8004c9c:	f7ff fe22 	bl	80048e4 <XMC_SCU_CLOCK_SetCpuClockDivider>
 8004ca0:	7ca0      	ldrb	r0, [r4, #18]
 8004ca2:	f7ff fe15 	bl	80048d0 <XMC_SCU_CLOCK_SetCcuClockDivider>
 8004ca6:	7ce0      	ldrb	r0, [r4, #19]
 8004ca8:	f7ff fe26 	bl	80048f8 <XMC_SCU_CLOCK_SetPeripheralClockDivider>
 8004cac:	79a3      	ldrb	r3, [r4, #6]
 8004cae:	b913      	cbnz	r3, 8004cb6 <XMC_SCU_CLOCK_Init+0x5a>
 8004cb0:	78e3      	ldrb	r3, [r4, #3]
 8004cb2:	b13b      	cbz	r3, 8004cc4 <XMC_SCU_CLOCK_Init+0x68>
 8004cb4:	e00b      	b.n	8004cce <XMC_SCU_CLOCK_Init+0x72>
 8004cb6:	f7ff ff01 	bl	8004abc <XMC_SCU_CLOCK_EnableHighPerformanceOscillator>
 8004cba:	f7ff ff1f 	bl	8004afc <XMC_SCU_CLOCK_IsHighPerformanceOscillatorStable>
 8004cbe:	2800      	cmp	r0, #0
 8004cc0:	d0fb      	beq.n	8004cba <XMC_SCU_CLOCK_Init+0x5e>
 8004cc2:	e7f5      	b.n	8004cb0 <XMC_SCU_CLOCK_Init+0x54>
 8004cc4:	79a3      	ldrb	r3, [r4, #6]
 8004cc6:	b963      	cbnz	r3, 8004ce2 <XMC_SCU_CLOCK_Init+0x86>
 8004cc8:	f7ff ff2e 	bl	8004b28 <XMC_SCU_CLOCK_DisableSystemPll>
 8004ccc:	e009      	b.n	8004ce2 <XMC_SCU_CLOCK_Init+0x86>
 8004cce:	f7ff ff21 	bl	8004b14 <XMC_SCU_CLOCK_EnableSystemPll>
 8004cd2:	78a5      	ldrb	r5, [r4, #2]
 8004cd4:	88a0      	ldrh	r0, [r4, #4]
 8004cd6:	78e1      	ldrb	r1, [r4, #3]
 8004cd8:	7862      	ldrb	r2, [r4, #1]
 8004cda:	7823      	ldrb	r3, [r4, #0]
 8004cdc:	9500      	str	r5, [sp, #0]
 8004cde:	f7ff ff3d 	bl	8004b5c <XMC_SCU_CLOCK_StartSystemPll>
 8004ce2:	68e0      	ldr	r0, [r4, #12]
 8004ce4:	f5b0 3f80 	cmp.w	r0, #65536	; 0x10000
 8004ce8:	d101      	bne.n	8004cee <XMC_SCU_CLOCK_Init+0x92>
 8004cea:	f7ff fd99 	bl	8004820 <XMC_SCU_CLOCK_SetSystemClockSource>
 8004cee:	b003      	add	sp, #12
 8004cf0:	e8bd 4030 	ldmia.w	sp!, {r4, r5, lr}
 8004cf4:	f7fb baf4 	b.w	80002e0 <SystemCoreClockUpdate>
 8004cf8:	50004000 	.word	0x50004000

08004cfc <XMC_CAN_Enable>:
 8004cfc:	b510      	push	{r4, lr}
 8004cfe:	4604      	mov	r4, r0
 8004d00:	4806      	ldr	r0, [pc, #24]	; (8004d1c <XMC_CAN_Enable+0x20>)
 8004d02:	f7ff fe2b 	bl	800495c <XMC_SCU_CLOCK_UngatePeripheralClock>
 8004d06:	4805      	ldr	r0, [pc, #20]	; (8004d1c <XMC_CAN_Enable+0x20>)
 8004d08:	f7ff fd74 	bl	80047f4 <XMC_SCU_RESET_DeassertPeripheralReset>
 8004d0c:	6823      	ldr	r3, [r4, #0]
 8004d0e:	f023 0301 	bic.w	r3, r3, #1
 8004d12:	6023      	str	r3, [r4, #0]
 8004d14:	6823      	ldr	r3, [r4, #0]
 8004d16:	079b      	lsls	r3, r3, #30
 8004d18:	d4fc      	bmi.n	8004d14 <XMC_CAN_Enable+0x18>
 8004d1a:	bd10      	pop	{r4, pc}
 8004d1c:	10000010 	.word	0x10000010

08004d20 <XMC_CAN_GetBaudrateClockFrequency>:
 8004d20:	f8d0 31c8 	ldr.w	r3, [r0, #456]	; 0x1c8
 8004d24:	f003 030f 	and.w	r3, r3, #15
 8004d28:	2b01      	cmp	r3, #1
 8004d2a:	d003      	beq.n	8004d34 <XMC_CAN_GetBaudrateClockFrequency+0x14>
 8004d2c:	2b02      	cmp	r3, #2
 8004d2e:	d103      	bne.n	8004d38 <XMC_CAN_GetBaudrateClockFrequency+0x18>
 8004d30:	f000 b8e6 	b.w	8004f00 <OSCHP_GetFrequency>
 8004d34:	f7ff bd68 	b.w	8004808 <XMC_SCU_CLOCK_GetPeripheralClockFrequency>
 8004d38:	2000      	movs	r0, #0
 8004d3a:	4770      	bx	lr

08004d3c <XMC_CAN_InitEx>:
 8004d3c:	b570      	push	{r4, r5, r6, lr}
 8004d3e:	4605      	mov	r5, r0
 8004d40:	4614      	mov	r4, r2
 8004d42:	460e      	mov	r6, r1
 8004d44:	f7ff ffda 	bl	8004cfc <XMC_CAN_Enable>
 8004d48:	f8d5 31c8 	ldr.w	r3, [r5, #456]	; 0x1c8
 8004d4c:	f023 030f 	bic.w	r3, r3, #15
 8004d50:	ea46 0103 	orr.w	r1, r6, r3
 8004d54:	f8c5 11c8 	str.w	r1, [r5, #456]	; 0x1c8
 8004d58:	4628      	mov	r0, r5
 8004d5a:	f7ff ffe1 	bl	8004d20 <XMC_CAN_GetBaudrateClockFrequency>
 8004d5e:	fbb0 f2f4 	udiv	r2, r0, r4
 8004d62:	f5c2 6280 	rsb	r2, r2, #1024	; 0x400
 8004d66:	2a00      	cmp	r2, #0
 8004d68:	bf38      	it	cc
 8004d6a:	2200      	movcc	r2, #0
 8004d6c:	f240 33ff 	movw	r3, #1023	; 0x3ff
 8004d70:	429a      	cmp	r2, r3
 8004d72:	bf28      	it	cs
 8004d74:	461a      	movcs	r2, r3
 8004d76:	68eb      	ldr	r3, [r5, #12]
 8004d78:	f423 4343 	bic.w	r3, r3, #49920	; 0xc300
 8004d7c:	f023 03ff 	bic.w	r3, r3, #255	; 0xff
 8004d80:	60eb      	str	r3, [r5, #12]
 8004d82:	68eb      	ldr	r3, [r5, #12]
 8004d84:	f443 4380 	orr.w	r3, r3, #16384	; 0x4000
 8004d88:	4313      	orrs	r3, r2
 8004d8a:	60eb      	str	r3, [r5, #12]
 8004d8c:	f5c2 6280 	rsb	r2, r2, #1024	; 0x400
 8004d90:	fbb0 f0f2 	udiv	r0, r0, r2
 8004d94:	bd70      	pop	{r4, r5, r6, pc}
	...

08004d98 <XMC_CAN_MO_UpdateData>:
 8004d98:	7e03      	ldrb	r3, [r0, #24]
 8004d9a:	2b01      	cmp	r3, #1
 8004d9c:	d114      	bne.n	8004dc8 <XMC_CAN_MO_UpdateData+0x30>
 8004d9e:	6803      	ldr	r3, [r0, #0]
 8004da0:	2220      	movs	r2, #32
 8004da2:	61da      	str	r2, [r3, #28]
 8004da4:	6803      	ldr	r3, [r0, #0]
 8004da6:	7b01      	ldrb	r1, [r0, #12]
 8004da8:	681a      	ldr	r2, [r3, #0]
 8004daa:	0609      	lsls	r1, r1, #24
 8004dac:	f001 6170 	and.w	r1, r1, #251658240	; 0xf000000
 8004db0:	f022 6270 	bic.w	r2, r2, #251658240	; 0xf000000
 8004db4:	430a      	orrs	r2, r1
 8004db6:	601a      	str	r2, [r3, #0]
 8004db8:	6902      	ldr	r2, [r0, #16]
 8004dba:	611a      	str	r2, [r3, #16]
 8004dbc:	6942      	ldr	r2, [r0, #20]
 8004dbe:	615a      	str	r2, [r3, #20]
 8004dc0:	4a02      	ldr	r2, [pc, #8]	; (8004dcc <XMC_CAN_MO_UpdateData+0x34>)
 8004dc2:	61da      	str	r2, [r3, #28]
 8004dc4:	2000      	movs	r0, #0
 8004dc6:	4770      	bx	lr
 8004dc8:	2003      	movs	r0, #3
 8004dca:	4770      	bx	lr
 8004dcc:	00280040 	.word	0x00280040

08004dd0 <XMC_CAN_MO_Config>:
 8004dd0:	6802      	ldr	r2, [r0, #0]
 8004dd2:	6891      	ldr	r1, [r2, #8]
 8004dd4:	f102 4338 	add.w	r3, r2, #3087007744	; 0xb8000000
 8004dd8:	f421 417f 	bic.w	r1, r1, #65280	; 0xff00
 8004ddc:	b510      	push	{r4, lr}
 8004dde:	f5a3 33a8 	sub.w	r3, r3, #86016	; 0x15000
 8004de2:	6091      	str	r1, [r2, #8]
 8004de4:	6891      	ldr	r1, [r2, #8]
 8004de6:	00db      	lsls	r3, r3, #3
 8004de8:	f023 03ff 	bic.w	r3, r3, #255	; 0xff
 8004dec:	430b      	orrs	r3, r1
 8004dee:	6093      	str	r3, [r2, #8]
 8004df0:	7e03      	ldrb	r3, [r0, #24]
 8004df2:	2b01      	cmp	r3, #1
 8004df4:	4604      	mov	r4, r0
 8004df6:	d828      	bhi.n	8004e4a <XMC_CAN_MO_Config+0x7a>
 8004df8:	2320      	movs	r3, #32
 8004dfa:	61d3      	str	r3, [r2, #28]
 8004dfc:	79c3      	ldrb	r3, [r0, #7]
 8004dfe:	6842      	ldr	r2, [r0, #4]
 8004e00:	f013 0f20 	tst.w	r3, #32
 8004e04:	bf08      	it	eq
 8004e06:	f002 4160 	andeq.w	r1, r2, #3758096384	; 0xe0000000
 8004e0a:	6803      	ldr	r3, [r0, #0]
 8004e0c:	bf03      	ittte	eq
 8004e0e:	ea41 4282 	orreq.w	r2, r1, r2, lsl #18
 8004e12:	619a      	streq	r2, [r3, #24]
 8004e14:	6881      	ldreq	r1, [r0, #8]
 8004e16:	619a      	strne	r2, [r3, #24]
 8004e18:	bf06      	itte	eq
 8004e1a:	f001 4260 	andeq.w	r2, r1, #3758096384	; 0xe0000000
 8004e1e:	ea42 4281 	orreq.w	r2, r2, r1, lsl #18
 8004e22:	6882      	ldrne	r2, [r0, #8]
 8004e24:	60da      	str	r2, [r3, #12]
 8004e26:	7e02      	ldrb	r2, [r0, #24]
 8004e28:	2a01      	cmp	r2, #1
 8004e2a:	d108      	bne.n	8004e3e <XMC_CAN_MO_Config+0x6e>
 8004e2c:	f7ff ffb4 	bl	8004d98 <XMC_CAN_MO_UpdateData>
 8004e30:	6823      	ldr	r3, [r4, #0]
 8004e32:	f04f 6200 	mov.w	r2, #134217728	; 0x8000000
 8004e36:	61da      	str	r2, [r3, #28]
 8004e38:	6823      	ldr	r3, [r4, #0]
 8004e3a:	4a04      	ldr	r2, [pc, #16]	; (8004e4c <XMC_CAN_MO_Config+0x7c>)
 8004e3c:	e004      	b.n	8004e48 <XMC_CAN_MO_Config+0x78>
 8004e3e:	f44f 6200 	mov.w	r2, #2048	; 0x800
 8004e42:	61da      	str	r2, [r3, #28]
 8004e44:	6803      	ldr	r3, [r0, #0]
 8004e46:	4a02      	ldr	r2, [pc, #8]	; (8004e50 <XMC_CAN_MO_Config+0x80>)
 8004e48:	61da      	str	r2, [r3, #28]
 8004e4a:	bd10      	pop	{r4, pc}
 8004e4c:	062000c0 	.word	0x062000c0
 8004e50:	00a00640 	.word	0x00a00640

08004e54 <XMC_GPIO_SetHardwareControl>:
 8004e54:	6f43      	ldr	r3, [r0, #116]	; 0x74
 8004e56:	0049      	lsls	r1, r1, #1
 8004e58:	b510      	push	{r4, lr}
 8004e5a:	2403      	movs	r4, #3
 8004e5c:	408c      	lsls	r4, r1
 8004e5e:	ea23 0304 	bic.w	r3, r3, r4
 8004e62:	6743      	str	r3, [r0, #116]	; 0x74
 8004e64:	6f43      	ldr	r3, [r0, #116]	; 0x74
 8004e66:	408a      	lsls	r2, r1
 8004e68:	4313      	orrs	r3, r2
 8004e6a:	6743      	str	r3, [r0, #116]	; 0x74
 8004e6c:	bd10      	pop	{r4, pc}

08004e6e <_init>:
 8004e6e:	4770      	bx	lr

08004e70 <MULTICAN_CONFIG_Init>:
 8004e70:	68c3      	ldr	r3, [r0, #12]
 8004e72:	4718      	bx	r3

08004e74 <MULTICAN_CONFIG_0_lInit>:
 8004e74:	b570      	push	{r4, r5, r6, lr}
 8004e76:	4c11      	ldr	r4, [pc, #68]	; (8004ebc <MULTICAN_CONFIG_0_lInit+0x48>)
 8004e78:	6820      	ldr	r0, [r4, #0]
 8004e7a:	f000 f821 	bl	8004ec0 <GLOBAL_CAN_Init>
 8004e7e:	4606      	mov	r6, r0
 8004e80:	b9c8      	cbnz	r0, 8004eb6 <MULTICAN_CONFIG_0_lInit+0x42>
 8004e82:	1d25      	adds	r5, r4, #4
 8004e84:	340c      	adds	r4, #12
 8004e86:	682b      	ldr	r3, [r5, #0]
 8004e88:	6818      	ldr	r0, [r3, #0]
 8004e8a:	f7ff ffa1 	bl	8004dd0 <XMC_CAN_MO_Config>
 8004e8e:	f855 1b04 	ldr.w	r1, [r5], #4
 8004e92:	680b      	ldr	r3, [r1, #0]
 8004e94:	681a      	ldr	r2, [r3, #0]
 8004e96:	6893      	ldr	r3, [r2, #8]
 8004e98:	f023 0007 	bic.w	r0, r3, #7
 8004e9c:	7c0b      	ldrb	r3, [r1, #16]
 8004e9e:	4303      	orrs	r3, r0
 8004ea0:	6093      	str	r3, [r2, #8]
 8004ea2:	6893      	ldr	r3, [r2, #8]
 8004ea4:	7bc9      	ldrb	r1, [r1, #15]
 8004ea6:	f023 0370 	bic.w	r3, r3, #112	; 0x70
 8004eaa:	ea43 1301 	orr.w	r3, r3, r1, lsl #4
 8004eae:	42a5      	cmp	r5, r4
 8004eb0:	6093      	str	r3, [r2, #8]
 8004eb2:	d1e8      	bne.n	8004e86 <MULTICAN_CONFIG_0_lInit+0x12>
 8004eb4:	e000      	b.n	8004eb8 <MULTICAN_CONFIG_0_lInit+0x44>
 8004eb6:	2601      	movs	r6, #1
 8004eb8:	4630      	mov	r0, r6
 8004eba:	bd70      	pop	{r4, r5, r6, pc}
 8004ebc:	1ffe8870 	.word	0x1ffe8870

08004ec0 <GLOBAL_CAN_Init>:
 8004ec0:	7a43      	ldrb	r3, [r0, #9]
 8004ec2:	b510      	push	{r4, lr}
 8004ec4:	4604      	mov	r4, r0
 8004ec6:	b933      	cbnz	r3, 8004ed6 <GLOBAL_CAN_Init+0x16>
 8004ec8:	6840      	ldr	r0, [r0, #4]
 8004eca:	7a21      	ldrb	r1, [r4, #8]
 8004ecc:	6822      	ldr	r2, [r4, #0]
 8004ece:	f7ff ff35 	bl	8004d3c <XMC_CAN_InitEx>
 8004ed2:	2301      	movs	r3, #1
 8004ed4:	7263      	strb	r3, [r4, #9]
 8004ed6:	2000      	movs	r0, #0
 8004ed8:	bd10      	pop	{r4, pc}

08004eda <DIGITAL_IO_Init>:
 8004eda:	b510      	push	{r4, lr}
 8004edc:	4604      	mov	r4, r0
 8004ede:	1d22      	adds	r2, r4, #4
 8004ee0:	7c21      	ldrb	r1, [r4, #16]
 8004ee2:	6800      	ldr	r0, [r0, #0]
 8004ee4:	f7ff fc2c 	bl	8004740 <XMC_GPIO_Init>
 8004ee8:	6820      	ldr	r0, [r4, #0]
 8004eea:	7c21      	ldrb	r1, [r4, #16]
 8004eec:	7c62      	ldrb	r2, [r4, #17]
 8004eee:	f7ff ffb1 	bl	8004e54 <XMC_GPIO_SetHardwareControl>
 8004ef2:	2000      	movs	r0, #0
 8004ef4:	bd10      	pop	{r4, pc}

08004ef6 <CLOCK_XMC4_Init>:
 8004ef6:	2301      	movs	r3, #1
 8004ef8:	7003      	strb	r3, [r0, #0]
 8004efa:	2000      	movs	r0, #0
 8004efc:	4770      	bx	lr
	...

08004f00 <OSCHP_GetFrequency>:
 8004f00:	4800      	ldr	r0, [pc, #0]	; (8004f04 <OSCHP_GetFrequency+0x4>)
 8004f02:	4770      	bx	lr
 8004f04:	00b71b00 	.word	0x00b71b00

08004f08 <SystemCoreClockSetup>:
 8004f08:	b530      	push	{r4, r5, lr}
 8004f0a:	4d16      	ldr	r5, [pc, #88]	; (8004f64 <SystemCoreClockSetup+0x5c>)
 8004f0c:	cd0f      	ldmia	r5!, {r0, r1, r2, r3}
 8004f0e:	b087      	sub	sp, #28
 8004f10:	ac01      	add	r4, sp, #4
 8004f12:	c40f      	stmia	r4!, {r0, r1, r2, r3}
 8004f14:	682b      	ldr	r3, [r5, #0]
 8004f16:	6023      	str	r3, [r4, #0]
 8004f18:	a801      	add	r0, sp, #4
 8004f1a:	f7ff fe9f 	bl	8004c5c <XMC_SCU_CLOCK_Init>
 8004f1e:	2000      	movs	r0, #0
 8004f20:	f7ff fcac 	bl	800487c <XMC_SCU_HIB_SetRtcClockSource>
 8004f24:	f44f 3080 	mov.w	r0, #65536	; 0x10000
 8004f28:	f7ff fc84 	bl	8004834 <XMC_SCU_CLOCK_SetUsbClockSource>
 8004f2c:	2006      	movs	r0, #6
 8004f2e:	f7ff fced 	bl	800490c <XMC_SCU_CLOCK_SetUsbClockDivider>
 8004f32:	f7ff fd1d 	bl	8004970 <XMC_SCU_CLOCK_EnableUsbPll>
 8004f36:	2164      	movs	r1, #100	; 0x64
 8004f38:	2003      	movs	r0, #3
 8004f3a:	f7ff fd23 	bl	8004984 <XMC_SCU_CLOCK_StartUsbPll>
 8004f3e:	4a0a      	ldr	r2, [pc, #40]	; (8004f68 <SystemCoreClockSetup+0x60>)
 8004f40:	6b93      	ldr	r3, [r2, #56]	; 0x38
 8004f42:	f423 3380 	bic.w	r3, r3, #65536	; 0x10000
 8004f46:	6393      	str	r3, [r2, #56]	; 0x38
 8004f48:	2002      	movs	r0, #2
 8004f4a:	f7ff fcfd 	bl	8004948 <XMC_SCU_CLOCK_SetECATClockDivider>
 8004f4e:	2000      	movs	r0, #0
 8004f50:	f7ff fc7a 	bl	8004848 <XMC_SCU_CLOCK_SetWdtClockSource>
 8004f54:	2001      	movs	r0, #1
 8004f56:	f7ff fced 	bl	8004934 <XMC_SCU_CLOCK_SetWdtClockDivider>
 8004f5a:	2001      	movs	r0, #1
 8004f5c:	f7ff fce0 	bl	8004920 <XMC_SCU_CLOCK_SetEbuClockDivider>
 8004f60:	b007      	add	sp, #28
 8004f62:	bd30      	pop	{r4, r5, pc}
 8004f64:	0800557c 	.word	0x0800557c
 8004f68:	50004600 	.word	0x50004600

08004f6c <DAVE_Init>:
 8004f6c:	b508      	push	{r3, lr}
 8004f6e:	4809      	ldr	r0, [pc, #36]	; (8004f94 <DAVE_Init+0x28>)
 8004f70:	f7ff ffc1 	bl	8004ef6 <CLOCK_XMC4_Init>
 8004f74:	b960      	cbnz	r0, 8004f90 <DAVE_Init+0x24>
 8004f76:	4808      	ldr	r0, [pc, #32]	; (8004f98 <DAVE_Init+0x2c>)
 8004f78:	f7ff ff7a 	bl	8004e70 <MULTICAN_CONFIG_Init>
 8004f7c:	b940      	cbnz	r0, 8004f90 <DAVE_Init+0x24>
 8004f7e:	4807      	ldr	r0, [pc, #28]	; (8004f9c <DAVE_Init+0x30>)
 8004f80:	f7ff ffab 	bl	8004eda <DIGITAL_IO_Init>
 8004f84:	b920      	cbnz	r0, 8004f90 <DAVE_Init+0x24>
 8004f86:	4806      	ldr	r0, [pc, #24]	; (8004fa0 <DAVE_Init+0x34>)
 8004f88:	e8bd 4008 	ldmia.w	sp!, {r3, lr}
 8004f8c:	f7ff bfa5 	b.w	8004eda <DIGITAL_IO_Init>
 8004f90:	bd08      	pop	{r3, pc}
 8004f92:	bf00      	nop
 8004f94:	1ffe8b68 	.word	0x1ffe8b68
 8004f98:	1ffe8870 	.word	0x1ffe8870
 8004f9c:	08005554 	.word	0x08005554
 8004fa0:	08005568 	.word	0x08005568

08004fa4 <main>:
 8004fa4:	b510      	push	{r4, lr}
 8004fa6:	f6ad 4d98 	subw	sp, sp, #3224	; 0xc98
 8004faa:	b672      	cpsid	i
 8004fac:	f7ff ffde 	bl	8004f6c <DAVE_Init>
 8004fb0:	4604      	mov	r4, r0
 8004fb2:	b100      	cbz	r0, 8004fb6 <main+0x12>
 8004fb4:	e7fe      	b.n	8004fb4 <main+0x10>
 8004fb6:	f7fb fd1f 	bl	80009f8 <PMB_Emulator_Init>
 8004fba:	f10d 0102 	add.w	r1, sp, #2
 8004fbe:	a801      	add	r0, sp, #4
 8004fc0:	f8ad 4002 	strh.w	r4, [sp, #2]
 8004fc4:	f7ff f9cc 	bl	8004360 <PMB_LoopbackTest_Run>
 8004fc8:	4a07      	ldr	r2, [pc, #28]	; (8004fe8 <main+0x44>)
 8004fca:	4b08      	ldr	r3, [pc, #32]	; (8004fec <main+0x48>)
 8004fcc:	2800      	cmp	r0, #0
 8004fce:	bf14      	ite	ne
 8004fd0:	4618      	movne	r0, r3
 8004fd2:	4610      	moveq	r0, r2
 8004fd4:	2301      	movs	r3, #1
 8004fd6:	7c01      	ldrb	r1, [r0, #16]
 8004fd8:	6802      	ldr	r2, [r0, #0]
 8004fda:	408b      	lsls	r3, r1
 8004fdc:	6053      	str	r3, [r2, #4]
 8004fde:	f7fb fd5b 	bl	8000a98 <PMB_Emulator_Run>
 8004fe2:	f7fb f9d9 	bl	8000398 <PMB_UpdateEU>
 8004fe6:	e7fa      	b.n	8004fde <main+0x3a>
 8004fe8:	08005568 	.word	0x08005568
 8004fec:	08005554 	.word	0x08005554

08004ff0 <__libc_init_array>:
 8004ff0:	b570      	push	{r4, r5, r6, lr}
 8004ff2:	4b0e      	ldr	r3, [pc, #56]	; (800502c <__libc_init_array+0x3c>)
 8004ff4:	4c0e      	ldr	r4, [pc, #56]	; (8005030 <__libc_init_array+0x40>)
 8004ff6:	1ae4      	subs	r4, r4, r3
 8004ff8:	10a4      	asrs	r4, r4, #2
 8004ffa:	2500      	movs	r5, #0
 8004ffc:	461e      	mov	r6, r3
 8004ffe:	42a5      	cmp	r5, r4
 8005000:	d004      	beq.n	800500c <__libc_init_array+0x1c>
 8005002:	f856 3025 	ldr.w	r3, [r6, r5, lsl #2]
 8005006:	4798      	blx	r3
 8005008:	3501      	adds	r5, #1
 800500a:	e7f8      	b.n	8004ffe <__libc_init_array+0xe>
 800500c:	f7ff ff2f 	bl	8004e6e <_init>
 8005010:	4c08      	ldr	r4, [pc, #32]	; (8005034 <__libc_init_array+0x44>)
 8005012:	4b09      	ldr	r3, [pc, #36]	; (8005038 <__libc_init_array+0x48>)
 8005014:	1ae4      	subs	r4, r4, r3
 8005016:	10a4      	asrs	r4, r4, #2
 8005018:	2500      	movs	r5, #0
 800501a:	461e      	mov	r6, r3
 800501c:	42a5      	cmp	r5, r4
 800501e:	d004      	beq.n	800502a <__libc_init_array+0x3a>
 8005020:	f856 3025 	ldr.w	r3, [r6, r5, lsl #2]
 8005024:	4798      	blx	r3
 8005026:	3501      	adds	r5, #1
 8005028:	e7f8      	b.n	800501c <__libc_init_array+0x2c>
 800502a:	bd70      	pop	{r4, r5, r6, pc}
 800502c:	1ffe888c 	.word	0x1ffe888c
 8005030:	1ffe888c 	.word	0x1ffe888c
 8005034:	1ffe888c 	.word	0x1ffe888c
 8005038:	1ffe888c 	.word	0x1ffe888c

0800503c <memset>:
 800503c:	4402      	add	r2, r0
 800503e:	4603      	mov	r3, r0
 8005040:	4293      	cmp	r3, r2
 8005042:	d002      	beq.n	800504a <memset+0xe>
 8005044:	f803 1b01 	strb.w	r1, [r3], #1
 8005048:	e7fa      	b.n	8005040 <memset+0x4>
 800504a:	4770      	bx	lr

0800504c <k_tests>:
 800504c:	0000 0000 337d 0800 0001 0000 339d 0800     ....}3.......3..
 800505c:	0002 0000 33bd 0800 0003 0000 33dd 0800     .....3.......3..
 800506c:	0004 0000 33fd 0800 0005 0000 341d 0800     .....3.......4..
 800507c:	0006 0000 3433 0800 0007 0000 3449 0800     ....34......I4..
 800508c:	0008 0000 345f 0800 0009 0000 3475 0800     ...._4......u4..
 800509c:	000a 0000 348b 0800 000b 0000 34ab 0800     .....4.......4..
 80050ac:	000c 0000 34cb 0800 000d 0000 34e3 0800     .....4.......4..
 80050bc:	000e 0000 34fd 0800 000f 0000 3517 0800     .....4.......5..
 80050cc:	0010 0000 3531 0800 0011 0000 354b 0800     ....15......K5..
 80050dc:	0012 0000 3565 0800 0013 0000 357f 0800     ....e5.......5..
 80050ec:	0014 0000 3599 0800 0015 0000 35bf 0800     .....5.......5..
 80050fc:	0016 0000 35e5 0800 0017 0000 35ff 0800     .....5.......5..
 800510c:	0018 0000 3619 0800 0019 0000 3633 0800     .....6......36..
 800511c:	001a 0000 364d 0800 001b 0000 3667 0800     ....M6......g6..
 800512c:	001c 0000 367b 0800 001d 0000 368f 0800     ....{6.......6..
 800513c:	001e 0000 369d 0800 001f 0000 36ab 0800     .....6.......6..
 800514c:	0020 0000 36b3 0800 0021 0000 36c7 0800      ....6..!....6..
 800515c:	0022 0000 36e1 0800 0023 0000 36e9 0800     "....6..#....6..
 800516c:	0030 0000 36fd 0800 0031 0000 371d 0800     0....6..1....7..
 800517c:	0032 0000 373d 0800 0033 0000 375d 0800     2...=7..3...]7..
 800518c:	0034 0000 377d 0800 0035 0000 379d 0800     4...}7..5....7..
 800519c:	0036 0000 37b3 0800 0037 0000 37c9 0800     6....7..7....7..
 80051ac:	0038 0000 37df 0800 0039 0000 37f5 0800     8....7..9....7..
 80051bc:	003a 0000 380b 0800 003b 0000 382b 0800     :....8..;...+8..
 80051cc:	003c 0000 384b 0800 003d 0000 3861 0800     <...K8..=...a8..
 80051dc:	003e 0000 3877 0800 003f 0000 388d 0800     >...w8..?....8..
 80051ec:	0040 0000 38a3 0800 0041 0000 38b9 0800     @....8..A....8..
 80051fc:	0042 0000 38cf 0800 0043 0000 38e5 0800     B....8..C....8..
 800520c:	0044 0000 38fb 0800 0045 0000 391b 0800     D....8..E....9..
 800521c:	0046 0000 393b 0800 0047 0000 3951 0800     F...;9..G...Q9..
 800522c:	0048 0000 3967 0800 0049 0000 397d 0800     H...g9..I...}9..
 800523c:	004a 0000 3993 0800 0050 0000 39a9 0800     J....9..P....9..
 800524c:	0051 0000 39c9 0800 0052 0000 39e9 0800     Q....9..R....9..
 800525c:	0053 0000 3a09 0800 0054 0000 3a29 0800     S....:..T...):..
 800526c:	0055 0000 3a49 0800 0056 0000 3a5f 0800     U...I:..V..._:..
 800527c:	0057 0000 3a75 0800 0058 0000 3a8b 0800     W...u:..X....:..
 800528c:	0059 0000 3aa1 0800 005a 0000 3ab7 0800     Y....:..Z....:..
 800529c:	005b 0000 3ad7 0800 005c 0000 3af7 0800     [....:..\....:..
 80052ac:	005d 0000 3b0d 0800 005e 0000 3b23 0800     ]....;..^...#;..
 80052bc:	005f 0000 3b39 0800 0060 0000 3b4f 0800     _...9;..`...O;..
 80052cc:	0061 0000 3b65 0800 0062 0000 3b7b 0800     a...e;..b...{;..
 80052dc:	0063 0000 3b91 0800 0064 0000 3ba7 0800     c....;..d....;..
 80052ec:	0065 0000 3bc7 0800 0066 0000 3be7 0800     e....;..f....;..
 80052fc:	0067 0000 3bfd 0800 0068 0000 3c13 0800     g....;..h....<..
 800530c:	0069 0000 3c29 0800 006a 0000 3c3f 0800     i...)<..j...?<..
 800531c:	0070 0000 3c55 0800 0071 0000 3c75 0800     p...U<..q...u<..
 800532c:	0072 0000 3c95 0800 0073 0000 3cb5 0800     r....<..s....<..
 800533c:	0074 0000 3cd5 0800 0075 0000 3cf5 0800     t....<..u....<..
 800534c:	0076 0000 3d0b 0800 0077 0000 3d21 0800     v....=..w...!=..
 800535c:	0078 0000 3d37 0800 0079 0000 3d4d 0800     x...7=..y...M=..
 800536c:	007a 0000 3d63 0800 007b 0000 3d83 0800     z...c=..{....=..
 800537c:	007c 0000 3da3 0800 007d 0000 3db9 0800     |....=..}....=..
 800538c:	007e 0000 3dcf 0800 007f 0000 3de5 0800     ~....=.......=..
 800539c:	0080 0000 3dfb 0800 0081 0000 3e11 0800     .....=.......>..
 80053ac:	0082 0000 3e27 0800 0083 0000 3e3d 0800     ....'>......=>..
 80053bc:	0084 0000 3e53 0800 0085 0000 3e73 0800     ....S>......s>..
 80053cc:	0086 0000 3e93 0800 0087 0000 3ea9 0800     .....>.......>..
 80053dc:	0088 0000 3ebf 0800 0089 0000 3ed5 0800     .....>.......>..
 80053ec:	008a 0000 3eeb 0800 0090 0000 3f01 0800     .....>.......?..
 80053fc:	0091 0000 3f21 0800 00a0 0000 3f2d 0800     ....!?......-?..
 800540c:	00a8 0000 3f49 0800 00a9 0000 3f51 0800     ....I?......Q?..
 800541c:	00aa 0000 3f65 0800 00b0 0000 3f7f 0800     ....e?.......?..
 800542c:	00b1 0000 3f9f 0800 00b2 0000 3fbf 0800     .....?.......?..
 800543c:	00b3 0000 3fdf 0800 00b4 0000 3fff 0800     .....?.......?..
 800544c:	00b5 0000 401f 0800 00b6 0000 4035 0800     .....@......5@..
 800545c:	00b7 0000 404b 0800 00b8 0000 4061 0800     ....K@......a@..
 800546c:	00b9 0000 4077 0800 00ba 0000 408d 0800     ....w@.......@..
 800547c:	00bb 0000 40ad 0800 00bc 0000 40cd 0800     .....@.......@..
 800548c:	00bd 0000 40e3 0800 00be 0000 40f9 0800     .....@.......@..
 800549c:	00bf 0000 410f 0800 00c0 0000 4125 0800     .....A......%A..
 80054ac:	00c1 0000 413b 0800 00c2 0000 4151 0800     ....;A......QA..
 80054bc:	00c3 0000 4167 0800 00c4 0000 417d 0800     ....gA......}A..
 80054cc:	00c5 0000 419d 0800 00c6 0000 41bd 0800     .....A.......A..
 80054dc:	00c7 0000 41d3 0800 00c8 0000 41e9 0800     .....A.......A..
 80054ec:	00c9 0000 41ff 0800 00ca 0000 4215 0800     .....A.......B..
 80054fc:	00cb 0000 422b 0800 00cc 0000 424b 0800     ....+B......KB..
 800550c:	00cd 0000 4261 0800 00ce 0000 4281 0800     ....aB.......B..
 800551c:	00cf 0000 42a1 0800 00d0 0000 42b7 0800     .....B.......B..
 800552c:	00d1 0000 42dd 0800 00d8 0000 42f1 0800     .....B.......B..
 800553c:	00d9 0000 4317 0800 01f8 0000 432b 0800     .....C......+C..
 800554c:	01fa 0000 4341 0800                         ....AC..

08005554 <LED1>:
 8005554:	8400 4802 0080 0000 0000 0001 0000 0000     ...H............
 8005564:	0000 0000                                   ....

08005568 <LED2>:
 8005568:	8400 4802 0080 0000 0000 0001 0000 0000     ...H............
 8005578:	0001 0000 0230 0101 0000 0001 0000 0000     ....0...........
 8005588:	0000 0001 0102 0101                         ........
